# SymbolsHelper-Confirmed: 6.4.2 amd64
libQt6OpenGL.so.6 libqt6opengl6 #MINVER#
| libqt6opengl6 #MINVER#, qt6-base-abi (= 6.4.2)
* Build-Depends-Package: qt6-base-dev
 Qt_6.0@Qt_6.0 6.1.2
 Qt_6.1@Qt_6.1 6.1.2
 Qt_6.2@Qt_6.2 6.2.0
 Qt_6.3@Qt_6.3 6.3.0
 Qt_6.4@Qt_6.4 6.4.0
 Qt_6@Qt_6 6.1.2
 (symver)Qt_6_PRIVATE_API 0 1
 _Z22qt_gl_read_framebufferRK5QSizebb@Qt_6 6.1.2
 _Z47qRegisterNormalizedMetaType_QOpenGLDebugMessageRK10QByteArray@Qt_6 6.4.0
 _ZN13QOpenGLBuffer15setUsagePatternENS_12UsagePatternE@Qt_6 6.1.2
 _ZN13QOpenGLBuffer3mapENS_6AccessE@Qt_6 6.1.2
 _ZN13QOpenGLBuffer4bindEv@Qt_6 6.1.2
 _ZN13QOpenGLBuffer4readEiPvi@Qt_6 6.1.2
 _ZN13QOpenGLBuffer5unmapEv@Qt_6 6.1.2
 _ZN13QOpenGLBuffer5writeEiPKvi@Qt_6 6.1.2
 _ZN13QOpenGLBuffer6createEv@Qt_6 6.1.2
 _ZN13QOpenGLBuffer7destroyEv@Qt_6 6.1.2
 _ZN13QOpenGLBuffer7releaseENS_4TypeE@Qt_6 6.1.2
 _ZN13QOpenGLBuffer7releaseEv@Qt_6 6.1.2
 _ZN13QOpenGLBuffer8allocateEPKvi@Qt_6 6.1.2
 _ZN13QOpenGLBuffer8mapRangeEii6QFlagsINS_15RangeAccessFlagEE@Qt_6 6.1.2
 _ZN13QOpenGLBufferC1ENS_4TypeE@Qt_6 6.1.2
 _ZN13QOpenGLBufferC1ERKS_@Qt_6 6.1.2
 _ZN13QOpenGLBufferC1Ev@Qt_6 6.1.2
 _ZN13QOpenGLBufferC2ENS_4TypeE@Qt_6 6.1.2
 _ZN13QOpenGLBufferC2ERKS_@Qt_6 6.1.2
 _ZN13QOpenGLBufferC2Ev@Qt_6 6.1.2
 _ZN13QOpenGLBufferD1Ev@Qt_6 6.1.2
 _ZN13QOpenGLBufferD2Ev@Qt_6 6.1.2
 _ZN13QOpenGLBufferaSERKS_@Qt_6 6.1.2
 _ZN13QOpenGLShader11qt_metacallEN11QMetaObject4CallEiPPv@Qt_6 6.1.2
 _ZN13QOpenGLShader11qt_metacastEPKc@Qt_6 6.1.2
 _ZN13QOpenGLShader16hasOpenGLShadersE6QFlagsINS_13ShaderTypeBitEEP14QOpenGLContext@Qt_6 6.1.2
 _ZN13QOpenGLShader16staticMetaObjectE@Qt_6 6.1.2
 _ZN13QOpenGLShader17compileSourceCodeEPKc@Qt_6 6.1.2
 _ZN13QOpenGLShader17compileSourceCodeERK10QByteArray@Qt_6 6.1.2
 _ZN13QOpenGLShader17compileSourceCodeERK7QString@Qt_6 6.1.2
 _ZN13QOpenGLShader17compileSourceFileERK7QString@Qt_6 6.1.2
 _ZN13QOpenGLShaderC1E6QFlagsINS_13ShaderTypeBitEEP7QObject@Qt_6 6.1.2
 _ZN13QOpenGLShaderC2E6QFlagsINS_13ShaderTypeBitEEP7QObject@Qt_6 6.1.2
 _ZN13QOpenGLShaderD0Ev@Qt_6 6.1.2
 _ZN13QOpenGLShaderD1Ev@Qt_6 6.1.2
 _ZN13QOpenGLShaderD2Ev@Qt_6 6.1.2
 _ZN13QOpenGLWindow10paintEventEP11QPaintEvent@Qt_6 6.1.2
 _ZN13QOpenGLWindow11doneCurrentEv@Qt_6 6.1.2
 _ZN13QOpenGLWindow11makeCurrentEv@Qt_6 6.1.2
 _ZN13QOpenGLWindow11paintOverGLEv@Qt_6 6.1.2
 _ZN13QOpenGLWindow11qt_metacallEN11QMetaObject4CallEiPPv@Qt_6 6.1.2
 _ZN13QOpenGLWindow11qt_metacastEPKc@Qt_6 6.1.2
 _ZN13QOpenGLWindow11resizeEventEP12QResizeEvent@Qt_6 6.1.2
 _ZN13QOpenGLWindow12frameSwappedEv@Qt_6 6.1.2
 _ZN13QOpenGLWindow12initializeGLEv@Qt_6 6.1.2
 _ZN13QOpenGLWindow12paintUnderGLEv@Qt_6 6.1.2
 _ZN13QOpenGLWindow15grabFramebufferEv@Qt_6 6.1.2
 _ZN13QOpenGLWindow16staticMetaObjectE@Qt_6 6.1.2
 _ZN13QOpenGLWindow7paintGLEv@Qt_6 6.1.2
 _ZN13QOpenGLWindow8resizeGLEii@Qt_6 6.1.2
 _ZN13QOpenGLWindowC1ENS_14UpdateBehaviorEP7QWindow@Qt_6 6.1.2
 _ZN13QOpenGLWindowC1EP14QOpenGLContextNS_14UpdateBehaviorEP7QWindow@Qt_6 6.1.2
 _ZN13QOpenGLWindowC2ENS_14UpdateBehaviorEP7QWindow@Qt_6 6.1.2
 _ZN13QOpenGLWindowC2EP14QOpenGLContextNS_14UpdateBehaviorEP7QWindow@Qt_6 6.1.2
 _ZN13QOpenGLWindowD0Ev@Qt_6 6.1.2
 _ZN13QOpenGLWindowD1Ev@Qt_6 6.1.2
 _ZN13QOpenGLWindowD2Ev@Qt_6 6.1.2
 _ZN14QOpenGLTexture10hasFeatureENS_7FeatureE@Qt_6 6.1.2
 _ZN14QOpenGLTexture10setSamplesEi@Qt_6 6.1.2
 _ZN14QOpenGLTexture11setWrapModeENS_19CoordinateDirectionENS_8WrapModeE@Qt_6 6.1.2
 _ZN14QOpenGLTexture11setWrapModeENS_8WrapModeE@Qt_6 6.1.2
 _ZN14QOpenGLTexture12setMipLevelsEi@Qt_6 6.1.2
 _ZN14QOpenGLTexture14boundTextureIdENS_13BindingTargetE@Qt_6 6.1.2
 _ZN14QOpenGLTexture14boundTextureIdEjNS_13BindingTargetE@Qt_6 6.1.2
 _ZN14QOpenGLTexture14setBorderColorERK6QColor@Qt_6 6.1.2
 _ZN14QOpenGLTexture14setBorderColorEffff@Qt_6 6.1.2
 _ZN14QOpenGLTexture14setBorderColorEiiii@Qt_6 6.1.2
 _ZN14QOpenGLTexture14setBorderColorEjjjj@Qt_6 6.1.2
 _ZN14QOpenGLTexture14setMipMaxLevelEi@Qt_6 6.1.2
 _ZN14QOpenGLTexture14setSwizzleMaskENS_12SwizzleValueES0_S0_S0_@Qt_6 6.1.2
 _ZN14QOpenGLTexture14setSwizzleMaskENS_16SwizzleComponentENS_12SwizzleValueE@Qt_6 6.1.2
 _ZN14QOpenGLTexture15allocateStorageENS_11PixelFormatENS_9PixelTypeE@Qt_6 6.1.2
 _ZN14QOpenGLTexture15allocateStorageEv@Qt_6 6.1.2
 _ZN14QOpenGLTexture15generateMipMapsEib@Qt_6 6.1.2
 _ZN14QOpenGLTexture15generateMipMapsEv@Qt_6 6.1.2
 _ZN14QOpenGLTexture15setMipBaseLevelEi@Qt_6 6.1.2
 _ZN14QOpenGLTexture16setMinMagFiltersENS_6FilterES0_@Qt_6 6.1.2
 _ZN14QOpenGLTexture16setMipLevelRangeEii@Qt_6 6.1.2
 _ZN14QOpenGLTexture16staticMetaObjectE@Qt_6 6.1.2
 _ZN14QOpenGLTexture17setComparisonModeENS_14ComparisonModeE@Qt_6 6.1.2
 _ZN14QOpenGLTexture17setCompressedDataEiPKvPK27QOpenGLPixelTransferOptions@Qt_6 6.1.2
 _ZN14QOpenGLTexture17setCompressedDataEiiNS_11CubeMapFaceEiPKvPK27QOpenGLPixelTransferOptions@Qt_6 6.1.2
 _ZN14QOpenGLTexture17setCompressedDataEiiPKvPK27QOpenGLPixelTransferOptions@Qt_6 6.1.2
 _ZN14QOpenGLTexture17setCompressedDataEiiiNS_11CubeMapFaceEiPKvPK27QOpenGLPixelTransferOptions@Qt_6 6.1.2
 _ZN14QOpenGLTexture17setCompressedDataEiiiPKvPK27QOpenGLPixelTransferOptions@Qt_6 6.1.2
 _ZN14QOpenGLTexture19setDepthStencilModeENS_16DepthStencilModeE@Qt_6 6.1.2
 _ZN14QOpenGLTexture20setLevelofDetailBiasEf@Qt_6 6.1.2
 _ZN14QOpenGLTexture20setMaximumAnisotropyEf@Qt_6 6.1.2
 _ZN14QOpenGLTexture21setComparisonFunctionENS_18ComparisonFunctionE@Qt_6 6.1.2
 _ZN14QOpenGLTexture21setLevelOfDetailRangeEff@Qt_6 6.1.2
 _ZN14QOpenGLTexture21setMinificationFilterENS_6FilterE@Qt_6 6.1.2
 _ZN14QOpenGLTexture22setMagnificationFilterENS_6FilterE@Qt_6 6.1.2
 _ZN14QOpenGLTexture23setFixedSamplePositionsEb@Qt_6 6.1.2
 _ZN14QOpenGLTexture23setMaximumLevelOfDetailEf@Qt_6 6.1.2
 _ZN14QOpenGLTexture23setMinimumLevelOfDetailEf@Qt_6 6.1.2
 _ZN14QOpenGLTexture30setAutoMipMapGenerationEnabledEb@Qt_6 6.1.2
 _ZN14QOpenGLTexture4bindEjNS_16TextureUnitResetE@Qt_6 6.1.2
 _ZN14QOpenGLTexture4bindEv@Qt_6 6.1.2
 _ZN14QOpenGLTexture6createEv@Qt_6 6.1.2
 _ZN14QOpenGLTexture7destroyEv@Qt_6 6.1.2
 _ZN14QOpenGLTexture7isBoundEj@Qt_6 6.1.2
 _ZN14QOpenGLTexture7releaseEjNS_16TextureUnitResetE@Qt_6 6.1.2
 _ZN14QOpenGLTexture7releaseEv@Qt_6 6.1.2
 _ZN14QOpenGLTexture7setDataENS_11PixelFormatENS_9PixelTypeEPKvPK27QOpenGLPixelTransferOptions@Qt_6 6.1.2
 _ZN14QOpenGLTexture7setDataERK6QImageNS_16MipMapGenerationE@Qt_6 6.1.2
 _ZN14QOpenGLTexture7setDataEiNS_11PixelFormatENS_9PixelTypeEPKvPK27QOpenGLPixelTransferOptions@Qt_6 6.1.2
 _ZN14QOpenGLTexture7setDataEiiNS_11CubeMapFaceENS_11PixelFormatENS_9PixelTypeEPKvPK27QOpenGLPixelTransferOptions@Qt_6 6.1.2
 _ZN14QOpenGLTexture7setDataEiiNS_11PixelFormatENS_9PixelTypeEPKvPK27QOpenGLPixelTransferOptions@Qt_6 6.1.2
 _ZN14QOpenGLTexture7setDataEiiiNS_11CubeMapFaceENS_11PixelFormatENS_9PixelTypeEPKvPK27QOpenGLPixelTransferOptions@Qt_6 6.1.2
 _ZN14QOpenGLTexture7setDataEiiiiiiNS_11PixelFormatENS_9PixelTypeEPKvPK27QOpenGLPixelTransferOptions@Qt_6 6.1.2
 _ZN14QOpenGLTexture7setDataEiiiiiiiNS_11PixelFormatENS_9PixelTypeEPKvPK27QOpenGLPixelTransferOptions@Qt_6 6.1.2
 _ZN14QOpenGLTexture7setDataEiiiiiiiiNS_11CubeMapFaceENS_11PixelFormatENS_9PixelTypeEPKvPK27QOpenGLPixelTransferOptions@Qt_6 6.1.2
 _ZN14QOpenGLTexture7setDataEiiiiiiiiNS_11CubeMapFaceEiNS_11PixelFormatENS_9PixelTypeEPKvPK27QOpenGLPixelTransferOptions@Qt_6 6.1.2
 _ZN14QOpenGLTexture7setDataEiiiiiiiiNS_11PixelFormatENS_9PixelTypeEPKvPK27QOpenGLPixelTransferOptions@Qt_6 6.1.2
 _ZN14QOpenGLTexture7setSizeEiii@Qt_6 6.1.2
 _ZN14QOpenGLTexture9setFormatENS_13TextureFormatE@Qt_6 6.1.2
 _ZN14QOpenGLTexture9setLayersEi@Qt_6 6.1.2
 _ZN14QOpenGLTextureC1ENS_6TargetE@Qt_6 6.1.2
 _ZN14QOpenGLTextureC1ERK6QImageNS_16MipMapGenerationE@Qt_6 6.1.2
 _ZN14QOpenGLTextureC2ENS_6TargetE@Qt_6 6.1.2
 _ZN14QOpenGLTextureC2ERK6QImageNS_16MipMapGenerationE@Qt_6 6.1.2
 _ZN14QOpenGLTextureD1Ev@Qt_6 6.1.2
 _ZN14QOpenGLTextureD2Ev@Qt_6 6.1.2
 _ZN17QOpenGLTimerQuery11qt_metacallEN11QMetaObject4CallEiPPv@Qt_6 6.1.2
 _ZN17QOpenGLTimerQuery11qt_metacastEPKc@Qt_6 6.1.2
 _ZN17QOpenGLTimerQuery15recordTimestampEv@Qt_6 6.1.2
 _ZN17QOpenGLTimerQuery16staticMetaObjectE@Qt_6 6.1.2
 _ZN17QOpenGLTimerQuery3endEv@Qt_6 6.1.2
 _ZN17QOpenGLTimerQuery5beginEv@Qt_6 6.1.2
 _ZN17QOpenGLTimerQuery6createEv@Qt_6 6.1.2
 _ZN17QOpenGLTimerQuery7destroyEv@Qt_6 6.1.2
 _ZN17QOpenGLTimerQueryC1EP7QObject@Qt_6 6.1.2
 _ZN17QOpenGLTimerQueryC2EP7QObject@Qt_6 6.1.2
 _ZN17QOpenGLTimerQueryD0Ev@Qt_6 6.1.2
 _ZN17QOpenGLTimerQueryD1Ev@Qt_6 6.1.2
 _ZN17QOpenGLTimerQueryD2Ev@Qt_6 6.1.2
 _ZN18QOpenGLDebugLogger10initializeEv@Qt_6 6.1.2
 _ZN18QOpenGLDebugLogger10logMessageERK19QOpenGLDebugMessage@Qt_6 6.1.2
 _ZN18QOpenGLDebugLogger11qt_metacallEN11QMetaObject4CallEiPPv@Qt_6 6.1.2
 _ZN18QOpenGLDebugLogger11qt_metacastEPKc@Qt_6 6.1.2
 _ZN18QOpenGLDebugLogger11stopLoggingEv@Qt_6 6.1.2
 _ZN18QOpenGLDebugLogger12startLoggingENS_11LoggingModeE@Qt_6 6.1.2
 _ZN18QOpenGLDebugLogger13messageLoggedERK19QOpenGLDebugMessage@Qt_6 6.1.2
 _ZN18QOpenGLDebugLogger14enableMessagesE6QFlagsIN19QOpenGLDebugMessage6SourceEES0_INS1_4TypeEES0_INS1_8SeverityEE@Qt_6 6.1.2
 _ZN18QOpenGLDebugLogger14enableMessagesERK5QListIjE6QFlagsIN19QOpenGLDebugMessage6SourceEES4_INS5_4TypeEE@Qt_6 6.1.2
 _ZN18QOpenGLDebugLogger15disableMessagesE6QFlagsIN19QOpenGLDebugMessage6SourceEES0_INS1_4TypeEES0_INS1_8SeverityEE@Qt_6 6.1.2
 _ZN18QOpenGLDebugLogger15disableMessagesERK5QListIjE6QFlagsIN19QOpenGLDebugMessage6SourceEES4_INS5_4TypeEE@Qt_6 6.1.2
 _ZN18QOpenGLDebugLogger16staticMetaObjectE@Qt_6 6.1.2
 _ZN18QOpenGLDebugLogger8popGroupEv@Qt_6 6.1.2
 _ZN18QOpenGLDebugLogger9pushGroupERK7QStringjN19QOpenGLDebugMessage6SourceE@Qt_6 6.1.2
 _ZN18QOpenGLDebugLoggerC1EP7QObject@Qt_6 6.1.2
 _ZN18QOpenGLDebugLoggerC2EP7QObject@Qt_6 6.1.2
 _ZN18QOpenGLDebugLoggerD0Ev@Qt_6 6.1.2
 _ZN18QOpenGLDebugLoggerD1Ev@Qt_6 6.1.2
 _ZN18QOpenGLDebugLoggerD2Ev@Qt_6 6.1.2
 _ZN18QOpenGLPaintDevice15setPaintFlippedEb@Qt_6 6.1.2
 _ZN18QOpenGLPaintDevice16setDotsPerMeterXEd@Qt_6 6.1.2
 _ZN18QOpenGLPaintDevice16setDotsPerMeterYEd@Qt_6 6.1.2
 _ZN18QOpenGLPaintDevice18ensureActiveTargetEv@Qt_6 6.1.2
 _ZN18QOpenGLPaintDevice19setDevicePixelRatioEd@Qt_6 6.1.2
 _ZN18QOpenGLPaintDevice7setSizeERK5QSize@Qt_6 6.1.2
 _ZN18QOpenGLPaintDeviceC1ERK5QSize@Qt_6 6.1.2
 _ZN18QOpenGLPaintDeviceC1Eii@Qt_6 6.1.2
 _ZN18QOpenGLPaintDeviceC1Ev@Qt_6 6.1.2
 _ZN18QOpenGLPaintDeviceC2ERK5QSize@Qt_6 6.1.2
 _ZN18QOpenGLPaintDeviceC2Eii@Qt_6 6.1.2
 _ZN18QOpenGLPaintDeviceC2Ev@Qt_6 6.1.2
 _ZN18QOpenGLPaintDeviceD0Ev@Qt_6 6.1.2
 _ZN18QOpenGLPaintDeviceD1Ev@Qt_6 6.1.2
 _ZN18QOpenGLPaintDeviceD2Ev@Qt_6 6.1.2
 _ZN18QOpenGLTimeMonitor11qt_metacallEN11QMetaObject4CallEiPPv@Qt_6 6.1.2
 _ZN18QOpenGLTimeMonitor11qt_metacastEPKc@Qt_6 6.1.2
 _ZN18QOpenGLTimeMonitor12recordSampleEv@Qt_6 6.1.2
 _ZN18QOpenGLTimeMonitor14setSampleCountEi@Qt_6 6.1.2
 _ZN18QOpenGLTimeMonitor16staticMetaObjectE@Qt_6 6.1.2
 _ZN18QOpenGLTimeMonitor5resetEv@Qt_6 6.1.2
 _ZN18QOpenGLTimeMonitor6createEv@Qt_6 6.1.2
 _ZN18QOpenGLTimeMonitor7destroyEv@Qt_6 6.1.2
 _ZN18QOpenGLTimeMonitorC1EP7QObject@Qt_6 6.1.2
 _ZN18QOpenGLTimeMonitorC2EP7QObject@Qt_6 6.1.2
 _ZN18QOpenGLTimeMonitorD0Ev@Qt_6 6.1.2
 _ZN18QOpenGLTimeMonitorD1Ev@Qt_6 6.1.2
 _ZN18QOpenGLTimeMonitorD2Ev@Qt_6 6.1.2
 _ZN19QOpenGLDebugMessage23createThirdPartyMessageERK7QStringjNS_8SeverityENS_4TypeE@Qt_6 6.1.2
 _ZN19QOpenGLDebugMessage24createApplicationMessageERK7QStringjNS_8SeverityENS_4TypeE@Qt_6 6.1.2
 _ZN19QOpenGLDebugMessageC1ERKS_@Qt_6 6.1.2
 _ZN19QOpenGLDebugMessageC1Ev@Qt_6 6.1.2
 _ZN19QOpenGLDebugMessageC2ERKS_@Qt_6 6.1.2
 _ZN19QOpenGLDebugMessageC2Ev@Qt_6 6.1.2
 _ZN19QOpenGLDebugMessageD1Ev@Qt_6 6.1.2
 _ZN19QOpenGLDebugMessageD2Ev@Qt_6 6.1.2
 _ZN19QOpenGLDebugMessageaSERKS_@Qt_6 6.1.2
 _ZN20QOpenGLFunctions_1_014versionProfileEv@Qt_6 6.1.2
 _ZN20QOpenGLFunctions_1_019isContextCompatibleEP14QOpenGLContext@Qt_6 6.1.2
 _ZN20QOpenGLFunctions_1_025initializeOpenGLFunctionsEv@Qt_6 6.1.2
 _ZN20QOpenGLFunctions_1_0C1Ev@Qt_6 6.1.2
 _ZN20QOpenGLFunctions_1_0C2Ev@Qt_6 6.1.2
 _ZN20QOpenGLFunctions_1_0D0Ev@Qt_6 6.1.2
 _ZN20QOpenGLFunctions_1_0D1Ev@Qt_6 6.1.2
 _ZN20QOpenGLFunctions_1_0D2Ev@Qt_6 6.1.2
 _ZN20QOpenGLFunctions_1_114versionProfileEv@Qt_6 6.1.2
 _ZN20QOpenGLFunctions_1_119isContextCompatibleEP14QOpenGLContext@Qt_6 6.1.2
 _ZN20QOpenGLFunctions_1_125initializeOpenGLFunctionsEv@Qt_6 6.1.2
 _ZN20QOpenGLFunctions_1_1C1Ev@Qt_6 6.1.2
 _ZN20QOpenGLFunctions_1_1C2Ev@Qt_6 6.1.2
 _ZN20QOpenGLFunctions_1_1D0Ev@Qt_6 6.1.2
 _ZN20QOpenGLFunctions_1_1D1Ev@Qt_6 6.1.2
 _ZN20QOpenGLFunctions_1_1D2Ev@Qt_6 6.1.2
 _ZN20QOpenGLFunctions_1_214versionProfileEv@Qt_6 6.1.2
 _ZN20QOpenGLFunctions_1_219isContextCompatibleEP14QOpenGLContext@Qt_6 6.1.2
 _ZN20QOpenGLFunctions_1_225initializeOpenGLFunctionsEv@Qt_6 6.1.2
 _ZN20QOpenGLFunctions_1_2C1Ev@Qt_6 6.1.2
 _ZN20QOpenGLFunctions_1_2C2Ev@Qt_6 6.1.2
 _ZN20QOpenGLFunctions_1_2D0Ev@Qt_6 6.1.2
 _ZN20QOpenGLFunctions_1_2D1Ev@Qt_6 6.1.2
 _ZN20QOpenGLFunctions_1_2D2Ev@Qt_6 6.1.2
 _ZN20QOpenGLFunctions_1_314versionProfileEv@Qt_6 6.1.2
 _ZN20QOpenGLFunctions_1_319isContextCompatibleEP14QOpenGLContext@Qt_6 6.1.2
 _ZN20QOpenGLFunctions_1_325initializeOpenGLFunctionsEv@Qt_6 6.1.2
 _ZN20QOpenGLFunctions_1_3C1Ev@Qt_6 6.1.2
 _ZN20QOpenGLFunctions_1_3C2Ev@Qt_6 6.1.2
 _ZN20QOpenGLFunctions_1_3D0Ev@Qt_6 6.1.2
 _ZN20QOpenGLFunctions_1_3D1Ev@Qt_6 6.1.2
 _ZN20QOpenGLFunctions_1_3D2Ev@Qt_6 6.1.2
 _ZN20QOpenGLFunctions_1_414versionProfileEv@Qt_6 6.1.2
 _ZN20QOpenGLFunctions_1_419isContextCompatibleEP14QOpenGLContext@Qt_6 6.1.2
 _ZN20QOpenGLFunctions_1_425initializeOpenGLFunctionsEv@Qt_6 6.1.2
 _ZN20QOpenGLFunctions_1_4C1Ev@Qt_6 6.1.2
 _ZN20QOpenGLFunctions_1_4C2Ev@Qt_6 6.1.2
 _ZN20QOpenGLFunctions_1_4D0Ev@Qt_6 6.1.2
 _ZN20QOpenGLFunctions_1_4D1Ev@Qt_6 6.1.2
 _ZN20QOpenGLFunctions_1_4D2Ev@Qt_6 6.1.2
 _ZN20QOpenGLFunctions_1_514versionProfileEv@Qt_6 6.1.2
 _ZN20QOpenGLFunctions_1_519isContextCompatibleEP14QOpenGLContext@Qt_6 6.1.2
 _ZN20QOpenGLFunctions_1_525initializeOpenGLFunctionsEv@Qt_6 6.1.2
 _ZN20QOpenGLFunctions_1_5C1Ev@Qt_6 6.1.2
 _ZN20QOpenGLFunctions_1_5C2Ev@Qt_6 6.1.2
 _ZN20QOpenGLFunctions_1_5D0Ev@Qt_6 6.1.2
 _ZN20QOpenGLFunctions_1_5D1Ev@Qt_6 6.1.2
 _ZN20QOpenGLFunctions_1_5D2Ev@Qt_6 6.1.2
 _ZN20QOpenGLFunctions_2_014versionProfileEv@Qt_6 6.1.2
 _ZN20QOpenGLFunctions_2_019isContextCompatibleEP14QOpenGLContext@Qt_6 6.1.2
 _ZN20QOpenGLFunctions_2_025initializeOpenGLFunctionsEv@Qt_6 6.1.2
 _ZN20QOpenGLFunctions_2_0C1Ev@Qt_6 6.1.2
 _ZN20QOpenGLFunctions_2_0C2Ev@Qt_6 6.1.2
 _ZN20QOpenGLFunctions_2_0D0Ev@Qt_6 6.1.2
 _ZN20QOpenGLFunctions_2_0D1Ev@Qt_6 6.1.2
 _ZN20QOpenGLFunctions_2_0D2Ev@Qt_6 6.1.2
 _ZN20QOpenGLFunctions_2_114versionProfileEv@Qt_6 6.1.2
 _ZN20QOpenGLFunctions_2_119isContextCompatibleEP14QOpenGLContext@Qt_6 6.1.2
 _ZN20QOpenGLFunctions_2_125initializeOpenGLFunctionsEv@Qt_6 6.1.2
 _ZN20QOpenGLFunctions_2_1C1Ev@Qt_6 6.1.2
 _ZN20QOpenGLFunctions_2_1C2Ev@Qt_6 6.1.2
 _ZN20QOpenGLFunctions_2_1D0Ev@Qt_6 6.1.2
 _ZN20QOpenGLFunctions_2_1D1Ev@Qt_6 6.1.2
 _ZN20QOpenGLFunctions_2_1D2Ev@Qt_6 6.1.2
 _ZN20QOpenGLFunctions_3_014versionProfileEv@Qt_6 6.1.2
 _ZN20QOpenGLFunctions_3_019isContextCompatibleEP14QOpenGLContext@Qt_6 6.1.2
 _ZN20QOpenGLFunctions_3_025initializeOpenGLFunctionsEv@Qt_6 6.1.2
 _ZN20QOpenGLFunctions_3_0C1Ev@Qt_6 6.1.2
 _ZN20QOpenGLFunctions_3_0C2Ev@Qt_6 6.1.2
 _ZN20QOpenGLFunctions_3_0D0Ev@Qt_6 6.1.2
 _ZN20QOpenGLFunctions_3_0D1Ev@Qt_6 6.1.2
 _ZN20QOpenGLFunctions_3_0D2Ev@Qt_6 6.1.2
 _ZN20QOpenGLFunctions_3_114versionProfileEv@Qt_6 6.1.2
 _ZN20QOpenGLFunctions_3_119isContextCompatibleEP14QOpenGLContext@Qt_6 6.1.2
 _ZN20QOpenGLFunctions_3_125initializeOpenGLFunctionsEv@Qt_6 6.1.2
 _ZN20QOpenGLFunctions_3_1C1Ev@Qt_6 6.1.2
 _ZN20QOpenGLFunctions_3_1C2Ev@Qt_6 6.1.2
 _ZN20QOpenGLFunctions_3_1D0Ev@Qt_6 6.1.2
 _ZN20QOpenGLFunctions_3_1D1Ev@Qt_6 6.1.2
 _ZN20QOpenGLFunctions_3_1D2Ev@Qt_6 6.1.2
 _ZN20QOpenGLShaderProgram11qt_metacallEN11QMetaObject4CallEiPPv@Qt_6 6.1.2
 _ZN20QOpenGLShaderProgram11qt_metacastEPKc@Qt_6 6.1.2
 _ZN20QOpenGLShaderProgram12removeShaderEP13QOpenGLShader@Qt_6 6.1.2
 _ZN20QOpenGLShaderProgram15setUniformValueEPKcPA2_Kf@Qt_6 6.1.2
 _ZN20QOpenGLShaderProgram15setUniformValueEPKcPA3_Kf@Qt_6 6.1.2
 _ZN20QOpenGLShaderProgram15setUniformValueEPKcPA4_Kf@Qt_6 6.1.2
 _ZN20QOpenGLShaderProgram15setUniformValueEPKcRK10QMatrix4x4@Qt_6 6.1.2
 _ZN20QOpenGLShaderProgram15setUniformValueEPKcRK10QTransform@Qt_6 6.1.2
 _ZN20QOpenGLShaderProgram15setUniformValueEPKcRK14QGenericMatrixILi2ELi2EfE@Qt_6 6.1.2
 _ZN20QOpenGLShaderProgram15setUniformValueEPKcRK14QGenericMatrixILi2ELi3EfE@Qt_6 6.1.2
 _ZN20QOpenGLShaderProgram15setUniformValueEPKcRK14QGenericMatrixILi2ELi4EfE@Qt_6 6.1.2
 _ZN20QOpenGLShaderProgram15setUniformValueEPKcRK14QGenericMatrixILi3ELi2EfE@Qt_6 6.1.2
 _ZN20QOpenGLShaderProgram15setUniformValueEPKcRK14QGenericMatrixILi3ELi3EfE@Qt_6 6.1.2
 _ZN20QOpenGLShaderProgram15setUniformValueEPKcRK14QGenericMatrixILi3ELi4EfE@Qt_6 6.1.2
 _ZN20QOpenGLShaderProgram15setUniformValueEPKcRK14QGenericMatrixILi4ELi2EfE@Qt_6 6.1.2
 _ZN20QOpenGLShaderProgram15setUniformValueEPKcRK14QGenericMatrixILi4ELi3EfE@Qt_6 6.1.2
 _ZN20QOpenGLShaderProgram15setUniformValueEPKcRK5QSize@Qt_6 6.1.2
 _ZN20QOpenGLShaderProgram15setUniformValueEPKcRK6QColor@Qt_6 6.1.2
 _ZN20QOpenGLShaderProgram15setUniformValueEPKcRK6QPoint@Qt_6 6.1.2
 _ZN20QOpenGLShaderProgram15setUniformValueEPKcRK6QSizeF@Qt_6 6.1.2
 _ZN20QOpenGLShaderProgram15setUniformValueEPKcRK7QPointF@Qt_6 6.1.2
 _ZN20QOpenGLShaderProgram15setUniformValueEPKcRK9QVector2D@Qt_6 6.1.2
 _ZN20QOpenGLShaderProgram15setUniformValueEPKcRK9QVector3D@Qt_6 6.1.2
 _ZN20QOpenGLShaderProgram15setUniformValueEPKcRK9QVector4D@Qt_6 6.1.2
 _ZN20QOpenGLShaderProgram15setUniformValueEPKcf@Qt_6 6.1.2
 _ZN20QOpenGLShaderProgram15setUniformValueEPKcff@Qt_6 6.1.2
 _ZN20QOpenGLShaderProgram15setUniformValueEPKcfff@Qt_6 6.1.2
 _ZN20QOpenGLShaderProgram15setUniformValueEPKcffff@Qt_6 6.1.2
 _ZN20QOpenGLShaderProgram15setUniformValueEPKci@Qt_6 6.1.2
 _ZN20QOpenGLShaderProgram15setUniformValueEPKcj@Qt_6 6.1.2
 _ZN20QOpenGLShaderProgram15setUniformValueEiPA2_Kf@Qt_6 6.1.2
 _ZN20QOpenGLShaderProgram15setUniformValueEiPA3_Kf@Qt_6 6.1.2
 _ZN20QOpenGLShaderProgram15setUniformValueEiPA4_Kf@Qt_6 6.1.2
 _ZN20QOpenGLShaderProgram15setUniformValueEiRK10QMatrix4x4@Qt_6 6.1.2
 _ZN20QOpenGLShaderProgram15setUniformValueEiRK10QTransform@Qt_6 6.1.2
 _ZN20QOpenGLShaderProgram15setUniformValueEiRK14QGenericMatrixILi2ELi2EfE@Qt_6 6.1.2
 _ZN20QOpenGLShaderProgram15setUniformValueEiRK14QGenericMatrixILi2ELi3EfE@Qt_6 6.1.2
 _ZN20QOpenGLShaderProgram15setUniformValueEiRK14QGenericMatrixILi2ELi4EfE@Qt_6 6.1.2
 _ZN20QOpenGLShaderProgram15setUniformValueEiRK14QGenericMatrixILi3ELi2EfE@Qt_6 6.1.2
 _ZN20QOpenGLShaderProgram15setUniformValueEiRK14QGenericMatrixILi3ELi3EfE@Qt_6 6.1.2
 _ZN20QOpenGLShaderProgram15setUniformValueEiRK14QGenericMatrixILi3ELi4EfE@Qt_6 6.1.2
 _ZN20QOpenGLShaderProgram15setUniformValueEiRK14QGenericMatrixILi4ELi2EfE@Qt_6 6.1.2
 _ZN20QOpenGLShaderProgram15setUniformValueEiRK14QGenericMatrixILi4ELi3EfE@Qt_6 6.1.2
 _ZN20QOpenGLShaderProgram15setUniformValueEiRK5QSize@Qt_6 6.1.2
 _ZN20QOpenGLShaderProgram15setUniformValueEiRK6QColor@Qt_6 6.1.2
 _ZN20QOpenGLShaderProgram15setUniformValueEiRK6QPoint@Qt_6 6.1.2
 _ZN20QOpenGLShaderProgram15setUniformValueEiRK6QSizeF@Qt_6 6.1.2
 _ZN20QOpenGLShaderProgram15setUniformValueEiRK7QPointF@Qt_6 6.1.2
 _ZN20QOpenGLShaderProgram15setUniformValueEiRK9QVector2D@Qt_6 6.1.2
 _ZN20QOpenGLShaderProgram15setUniformValueEiRK9QVector3D@Qt_6 6.1.2
 _ZN20QOpenGLShaderProgram15setUniformValueEiRK9QVector4D@Qt_6 6.1.2
 _ZN20QOpenGLShaderProgram15setUniformValueEif@Qt_6 6.1.2
 _ZN20QOpenGLShaderProgram15setUniformValueEiff@Qt_6 6.1.2
 _ZN20QOpenGLShaderProgram15setUniformValueEifff@Qt_6 6.1.2
 _ZN20QOpenGLShaderProgram15setUniformValueEiffff@Qt_6 6.1.2
 _ZN20QOpenGLShaderProgram15setUniformValueEii@Qt_6 6.1.2
 _ZN20QOpenGLShaderProgram15setUniformValueEij@Qt_6 6.1.2
 _ZN20QOpenGLShaderProgram15shaderDestroyedEv@Qt_6 6.1.2
 _ZN20QOpenGLShaderProgram16removeAllShadersEv@Qt_6 6.1.2
 _ZN20QOpenGLShaderProgram16staticMetaObjectE@Qt_6 6.1.2
 _ZN20QOpenGLShaderProgram17setAttributeArrayEPKcPK9QVector2Di@Qt_6 6.1.2
 _ZN20QOpenGLShaderProgram17setAttributeArrayEPKcPK9QVector3Di@Qt_6 6.1.2
 _ZN20QOpenGLShaderProgram17setAttributeArrayEPKcPK9QVector4Di@Qt_6 6.1.2
 _ZN20QOpenGLShaderProgram17setAttributeArrayEPKcPKfii@Qt_6 6.1.2
 _ZN20QOpenGLShaderProgram17setAttributeArrayEPKcjPKvii@Qt_6 6.1.2
 _ZN20QOpenGLShaderProgram17setAttributeArrayEiPK9QVector2Di@Qt_6 6.1.2
 _ZN20QOpenGLShaderProgram17setAttributeArrayEiPK9QVector3Di@Qt_6 6.1.2
 _ZN20QOpenGLShaderProgram17setAttributeArrayEiPK9QVector4Di@Qt_6 6.1.2
 _ZN20QOpenGLShaderProgram17setAttributeArrayEiPKfii@Qt_6 6.1.2
 _ZN20QOpenGLShaderProgram17setAttributeArrayEijPKvii@Qt_6 6.1.2
 _ZN20QOpenGLShaderProgram17setAttributeValueEPKcPKfii@Qt_6 6.1.2
 _ZN20QOpenGLShaderProgram17setAttributeValueEPKcRK6QColor@Qt_6 6.1.2
 _ZN20QOpenGLShaderProgram17setAttributeValueEPKcRK9QVector2D@Qt_6 6.1.2
 _ZN20QOpenGLShaderProgram17setAttributeValueEPKcRK9QVector3D@Qt_6 6.1.2
 _ZN20QOpenGLShaderProgram17setAttributeValueEPKcRK9QVector4D@Qt_6 6.1.2
 _ZN20QOpenGLShaderProgram17setAttributeValueEPKcf@Qt_6 6.1.2
 _ZN20QOpenGLShaderProgram17setAttributeValueEPKcff@Qt_6 6.1.2
 _ZN20QOpenGLShaderProgram17setAttributeValueEPKcfff@Qt_6 6.1.2
 _ZN20QOpenGLShaderProgram17setAttributeValueEPKcffff@Qt_6 6.1.2
 _ZN20QOpenGLShaderProgram17setAttributeValueEiPKfii@Qt_6 6.1.2
 _ZN20QOpenGLShaderProgram17setAttributeValueEiRK6QColor@Qt_6 6.1.2
 _ZN20QOpenGLShaderProgram17setAttributeValueEiRK9QVector2D@Qt_6 6.1.2
 _ZN20QOpenGLShaderProgram17setAttributeValueEiRK9QVector3D@Qt_6 6.1.2
 _ZN20QOpenGLShaderProgram17setAttributeValueEiRK9QVector4D@Qt_6 6.1.2
 _ZN20QOpenGLShaderProgram17setAttributeValueEif@Qt_6 6.1.2
 _ZN20QOpenGLShaderProgram17setAttributeValueEiff@Qt_6 6.1.2
 _ZN20QOpenGLShaderProgram17setAttributeValueEifff@Qt_6 6.1.2
 _ZN20QOpenGLShaderProgram17setAttributeValueEiffff@Qt_6 6.1.2
 _ZN20QOpenGLShaderProgram18setAttributeBufferEPKcjiii@Qt_6 6.1.2
 _ZN20QOpenGLShaderProgram18setAttributeBufferEijiii@Qt_6 6.1.2
 _ZN20QOpenGLShaderProgram19setPatchVertexCountEi@Qt_6 6.1.2
 _ZN20QOpenGLShaderProgram20enableAttributeArrayEPKc@Qt_6 6.1.2
 _ZN20QOpenGLShaderProgram20enableAttributeArrayEi@Qt_6 6.1.2
 _ZN20QOpenGLShaderProgram20setUniformValueArrayEPKcPK10QMatrix4x4i@Qt_6 6.1.2
 _ZN20QOpenGLShaderProgram20setUniformValueArrayEPKcPK14QGenericMatrixILi2ELi2EfEi@Qt_6 6.1.2
 _ZN20QOpenGLShaderProgram20setUniformValueArrayEPKcPK14QGenericMatrixILi2ELi3EfEi@Qt_6 6.1.2
 _ZN20QOpenGLShaderProgram20setUniformValueArrayEPKcPK14QGenericMatrixILi2ELi4EfEi@Qt_6 6.1.2
 _ZN20QOpenGLShaderProgram20setUniformValueArrayEPKcPK14QGenericMatrixILi3ELi2EfEi@Qt_6 6.1.2
 _ZN20QOpenGLShaderProgram20setUniformValueArrayEPKcPK14QGenericMatrixILi3ELi3EfEi@Qt_6 6.1.2
 _ZN20QOpenGLShaderProgram20setUniformValueArrayEPKcPK14QGenericMatrixILi3ELi4EfEi@Qt_6 6.1.2
 _ZN20QOpenGLShaderProgram20setUniformValueArrayEPKcPK14QGenericMatrixILi4ELi2EfEi@Qt_6 6.1.2
 _ZN20QOpenGLShaderProgram20setUniformValueArrayEPKcPK14QGenericMatrixILi4ELi3EfEi@Qt_6 6.1.2
 _ZN20QOpenGLShaderProgram20setUniformValueArrayEPKcPK9QVector2Di@Qt_6 6.1.2
 _ZN20QOpenGLShaderProgram20setUniformValueArrayEPKcPK9QVector3Di@Qt_6 6.1.2
 _ZN20QOpenGLShaderProgram20setUniformValueArrayEPKcPK9QVector4Di@Qt_6 6.1.2
 _ZN20QOpenGLShaderProgram20setUniformValueArrayEPKcPKfii@Qt_6 6.1.2
 _ZN20QOpenGLShaderProgram20setUniformValueArrayEPKcPKii@Qt_6 6.1.2
 _ZN20QOpenGLShaderProgram20setUniformValueArrayEPKcPKji@Qt_6 6.1.2
 _ZN20QOpenGLShaderProgram20setUniformValueArrayEiPK10QMatrix4x4i@Qt_6 6.1.2
 _ZN20QOpenGLShaderProgram20setUniformValueArrayEiPK14QGenericMatrixILi2ELi2EfEi@Qt_6 6.1.2
 _ZN20QOpenGLShaderProgram20setUniformValueArrayEiPK14QGenericMatrixILi2ELi3EfEi@Qt_6 6.1.2
 _ZN20QOpenGLShaderProgram20setUniformValueArrayEiPK14QGenericMatrixILi2ELi4EfEi@Qt_6 6.1.2
 _ZN20QOpenGLShaderProgram20setUniformValueArrayEiPK14QGenericMatrixILi3ELi2EfEi@Qt_6 6.1.2
 _ZN20QOpenGLShaderProgram20setUniformValueArrayEiPK14QGenericMatrixILi3ELi3EfEi@Qt_6 6.1.2
 _ZN20QOpenGLShaderProgram20setUniformValueArrayEiPK14QGenericMatrixILi3ELi4EfEi@Qt_6 6.1.2
 _ZN20QOpenGLShaderProgram20setUniformValueArrayEiPK14QGenericMatrixILi4ELi2EfEi@Qt_6 6.1.2
 _ZN20QOpenGLShaderProgram20setUniformValueArrayEiPK14QGenericMatrixILi4ELi3EfEi@Qt_6 6.1.2
 _ZN20QOpenGLShaderProgram20setUniformValueArrayEiPK9QVector2Di@Qt_6 6.1.2
 _ZN20QOpenGLShaderProgram20setUniformValueArrayEiPK9QVector3Di@Qt_6 6.1.2
 _ZN20QOpenGLShaderProgram20setUniformValueArrayEiPK9QVector4Di@Qt_6 6.1.2
 _ZN20QOpenGLShaderProgram20setUniformValueArrayEiPKfii@Qt_6 6.1.2
 _ZN20QOpenGLShaderProgram20setUniformValueArrayEiPKii@Qt_6 6.1.2
 _ZN20QOpenGLShaderProgram20setUniformValueArrayEiPKji@Qt_6 6.1.2
 _ZN20QOpenGLShaderProgram21bindAttributeLocationEPKci@Qt_6 6.1.2
 _ZN20QOpenGLShaderProgram21bindAttributeLocationERK10QByteArrayi@Qt_6 6.1.2
 _ZN20QOpenGLShaderProgram21bindAttributeLocationERK7QStringi@Qt_6 6.1.2
 _ZN20QOpenGLShaderProgram21disableAttributeArrayEPKc@Qt_6 6.1.2
 _ZN20QOpenGLShaderProgram21disableAttributeArrayEi@Qt_6 6.1.2
 _ZN20QOpenGLShaderProgram23addShaderFromSourceCodeE6QFlagsIN13QOpenGLShader13ShaderTypeBitEEPKc@Qt_6 6.1.2
 _ZN20QOpenGLShaderProgram23addShaderFromSourceCodeE6QFlagsIN13QOpenGLShader13ShaderTypeBitEERK10QByteArray@Qt_6 6.1.2
 _ZN20QOpenGLShaderProgram23addShaderFromSourceCodeE6QFlagsIN13QOpenGLShader13ShaderTypeBitEERK7QString@Qt_6 6.1.2
 _ZN20QOpenGLShaderProgram23addShaderFromSourceFileE6QFlagsIN13QOpenGLShader13ShaderTypeBitEERK7QString@Qt_6 6.1.2
 _ZN20QOpenGLShaderProgram23hasOpenGLShaderProgramsEP14QOpenGLContext@Qt_6 6.1.2
 _ZN20QOpenGLShaderProgram32addCacheableShaderFromSourceCodeE6QFlagsIN13QOpenGLShader13ShaderTypeBitEEPKc@Qt_6 6.1.2
 _ZN20QOpenGLShaderProgram32addCacheableShaderFromSourceCodeE6QFlagsIN13QOpenGLShader13ShaderTypeBitEERK10QByteArray@Qt_6 6.1.2
 _ZN20QOpenGLShaderProgram32addCacheableShaderFromSourceCodeE6QFlagsIN13QOpenGLShader13ShaderTypeBitEERK7QString@Qt_6 6.1.2
 _ZN20QOpenGLShaderProgram32addCacheableShaderFromSourceFileE6QFlagsIN13QOpenGLShader13ShaderTypeBitEERK7QString@Qt_6 6.1.2
 _ZN20QOpenGLShaderProgram33setDefaultInnerTessellationLevelsERK5QListIfE@Qt_6 6.1.2
 _ZN20QOpenGLShaderProgram33setDefaultOuterTessellationLevelsERK5QListIfE@Qt_6 6.1.2
 _ZN20QOpenGLShaderProgram4bindEv@Qt_6 6.1.2
 _ZN20QOpenGLShaderProgram4initEv@Qt_6 6.1.2
 _ZN20QOpenGLShaderProgram4linkEv@Qt_6 6.1.2
 _ZN20QOpenGLShaderProgram6createEv@Qt_6 6.1.2
 _ZN20QOpenGLShaderProgram7releaseEv@Qt_6 6.1.2
 _ZN20QOpenGLShaderProgram9addShaderEP13QOpenGLShader@Qt_6 6.1.2
 _ZN20QOpenGLShaderProgramC1EP7QObject@Qt_6 6.1.2
 _ZN20QOpenGLShaderProgramC2EP7QObject@Qt_6 6.1.2
 _ZN20QOpenGLShaderProgramD0Ev@Qt_6 6.1.2
 _ZN20QOpenGLShaderProgramD1Ev@Qt_6 6.1.2
 _ZN20QOpenGLShaderProgramD2Ev@Qt_6 6.1.2
 _ZN21QOpenGLTextureBlitter10setOpacityEf@Qt_6 6.1.2
 _ZN21QOpenGLTextureBlitter15sourceTransformERK6QRectFRK5QSizeNS_6OriginE@Qt_6 6.1.2
 _ZN21QOpenGLTextureBlitter15targetTransformERK6QRectFRK5QRect@Qt_6 6.1.2
 _ZN21QOpenGLTextureBlitter17setRedBlueSwizzleEb@Qt_6 6.1.2
 _ZN21QOpenGLTextureBlitter4bindEj@Qt_6 6.1.2
 _ZN21QOpenGLTextureBlitter4blitEjRK10QMatrix4x4NS_6OriginE@Qt_6 6.1.2
 _ZN21QOpenGLTextureBlitter4blitEjRK10QMatrix4x4RK14QGenericMatrixILi3ELi3EfE@Qt_6 6.1.2
 _ZN21QOpenGLTextureBlitter6createEv@Qt_6 6.1.2
 _ZN21QOpenGLTextureBlitter7destroyEv@Qt_6 6.1.2
 _ZN21QOpenGLTextureBlitter7releaseEv@Qt_6 6.1.2
 _ZN21QOpenGLTextureBlitterC1Ev@Qt_6 6.1.2
 _ZN21QOpenGLTextureBlitterC2Ev@Qt_6 6.1.2
 _ZN21QOpenGLTextureBlitterD1Ev@Qt_6 6.1.2
 _ZN21QOpenGLTextureBlitterD2Ev@Qt_6 6.1.2
 _ZN21QOpenGLVersionProfile10setProfileEN14QSurfaceFormat20OpenGLContextProfileE@Qt_6 6.1.2
 _ZN21QOpenGLVersionProfile10setVersionEii@Qt_6 6.1.2
 _ZN21QOpenGLVersionProfileC1ERK14QSurfaceFormat@Qt_6 6.1.2
 _ZN21QOpenGLVersionProfileC1ERKS_@Qt_6 6.1.2
 _ZN21QOpenGLVersionProfileC1Ev@Qt_6 6.1.2
 _ZN21QOpenGLVersionProfileC2ERK14QSurfaceFormat@Qt_6 6.1.2
 _ZN21QOpenGLVersionProfileC2ERKS_@Qt_6 6.1.2
 _ZN21QOpenGLVersionProfileC2Ev@Qt_6 6.1.2
 _ZN21QOpenGLVersionProfileD1Ev@Qt_6 6.1.2
 _ZN21QOpenGLVersionProfileD2Ev@Qt_6 6.1.2
 _ZN21QOpenGLVersionProfileaSERKS_@Qt_6 6.1.2
 _ZN24QAbstractOpenGLFunctions16setOwningContextEPK14QOpenGLContext@Qt_6 6.1.2
 _ZN24QAbstractOpenGLFunctions25initializeOpenGLFunctionsEv@Qt_6 6.1.2
 _ZN24QAbstractOpenGLFunctionsC1Ev@Qt_6 6.1.2
 _ZN24QAbstractOpenGLFunctionsC2Ev@Qt_6 6.1.2
 _ZN24QAbstractOpenGLFunctionsD0Ev@Qt_6 6.1.2
 _ZN24QAbstractOpenGLFunctionsD1Ev@Qt_6 6.1.2
 _ZN24QAbstractOpenGLFunctionsD2Ev@Qt_6 6.1.2
 _ZN24QOpenGLFramebufferObject11bindDefaultEv@Qt_6 6.1.2
 _ZN24QOpenGLFramebufferObject11takeTextureEi@Qt_6 6.1.2
 _ZN24QOpenGLFramebufferObject11takeTextureEv@Qt_6 6.1.2
 _ZN24QOpenGLFramebufferObject13setAttachmentENS_10AttachmentE@Qt_6 6.1.2
 _ZN24QOpenGLFramebufferObject15blitFramebufferEPS_RK5QRectS0_S3_jj@Qt_6 6.1.2
 _ZN24QOpenGLFramebufferObject15blitFramebufferEPS_RK5QRectS0_S3_jjii@Qt_6 6.1.2
 _ZN24QOpenGLFramebufferObject15blitFramebufferEPS_RK5QRectS0_S3_jjiiNS_24FramebufferRestorePolicyE@Qt_6 6.1.2
 _ZN24QOpenGLFramebufferObject15blitFramebufferEPS_S0_jj@Qt_6 6.1.2
 _ZN24QOpenGLFramebufferObject18addColorAttachmentERK5QSizej@Qt_6 6.1.2
 _ZN24QOpenGLFramebufferObject18addColorAttachmentEiij@Qt_6 6.1.2
 _ZN24QOpenGLFramebufferObject24hasOpenGLFramebufferBlitEv@Qt_6 6.1.2
 _ZN24QOpenGLFramebufferObject27hasOpenGLFramebufferObjectsEv@Qt_6 6.1.2
 _ZN24QOpenGLFramebufferObject4bindEv@Qt_6 6.1.2
 _ZN24QOpenGLFramebufferObject7releaseEv@Qt_6 6.1.2
 _ZN24QOpenGLFramebufferObjectC1ERK5QSizeNS_10AttachmentEjj@Qt_6 6.1.2
 _ZN24QOpenGLFramebufferObjectC1ERK5QSizeRK30QOpenGLFramebufferObjectFormat@Qt_6 6.1.2
 _ZN24QOpenGLFramebufferObjectC1ERK5QSizej@Qt_6 6.1.2
 _ZN24QOpenGLFramebufferObjectC1EiiNS_10AttachmentEjj@Qt_6 6.1.2
 _ZN24QOpenGLFramebufferObjectC1EiiRK30QOpenGLFramebufferObjectFormat@Qt_6 6.1.2
 _ZN24QOpenGLFramebufferObjectC1Eiij@Qt_6 6.1.2
 _ZN24QOpenGLFramebufferObjectC2ERK5QSizeNS_10AttachmentEjj@Qt_6 6.1.2
 _ZN24QOpenGLFramebufferObjectC2ERK5QSizeRK30QOpenGLFramebufferObjectFormat@Qt_6 6.1.2
 _ZN24QOpenGLFramebufferObjectC2ERK5QSizej@Qt_6 6.1.2
 _ZN24QOpenGLFramebufferObjectC2EiiNS_10AttachmentEjj@Qt_6 6.1.2
 _ZN24QOpenGLFramebufferObjectC2EiiRK30QOpenGLFramebufferObjectFormat@Qt_6 6.1.2
 _ZN24QOpenGLFramebufferObjectC2Eiij@Qt_6 6.1.2
 _ZN24QOpenGLFramebufferObjectD0Ev@Qt_6 6.1.2
 _ZN24QOpenGLFramebufferObjectD1Ev@Qt_6 6.1.2
 _ZN24QOpenGLFramebufferObjectD2Ev@Qt_6 6.1.2
 _ZN24QOpenGLVertexArrayObject11qt_metacallEN11QMetaObject4CallEiPPv@Qt_6 6.1.2
 _ZN24QOpenGLVertexArrayObject11qt_metacastEPKc@Qt_6 6.1.2
 _ZN24QOpenGLVertexArrayObject16staticMetaObjectE@Qt_6 6.1.2
 _ZN24QOpenGLVertexArrayObject4bindEv@Qt_6 6.1.2
 _ZN24QOpenGLVertexArrayObject6createEv@Qt_6 6.1.2
 _ZN24QOpenGLVertexArrayObject7destroyEv@Qt_6 6.1.2
 _ZN24QOpenGLVertexArrayObject7releaseEv@Qt_6 6.1.2
 _ZN24QOpenGLVertexArrayObjectC1EP7QObject@Qt_6 6.1.2
 _ZN24QOpenGLVertexArrayObjectC1ER31QOpenGLVertexArrayObjectPrivate@Qt_6 6.1.2
 _ZN24QOpenGLVertexArrayObjectC2EP7QObject@Qt_6 6.1.2
 _ZN24QOpenGLVertexArrayObjectC2ER31QOpenGLVertexArrayObjectPrivate@Qt_6 6.1.2
 _ZN24QOpenGLVertexArrayObjectD0Ev@Qt_6 6.1.2
 _ZN24QOpenGLVertexArrayObjectD1Ev@Qt_6 6.1.2
 _ZN24QOpenGLVertexArrayObjectD2Ev@Qt_6 6.1.2
 _ZN25QOpenGLFunctions_3_2_Core14versionProfileEv@Qt_6 6.1.2
 _ZN25QOpenGLFunctions_3_2_Core19isContextCompatibleEP14QOpenGLContext@Qt_6 6.1.2
 _ZN25QOpenGLFunctions_3_2_Core25initializeOpenGLFunctionsEv@Qt_6 6.1.2
 _ZN25QOpenGLFunctions_3_2_CoreC1Ev@Qt_6 6.1.2
 _ZN25QOpenGLFunctions_3_2_CoreC2Ev@Qt_6 6.1.2
 _ZN25QOpenGLFunctions_3_2_CoreD0Ev@Qt_6 6.1.2
 _ZN25QOpenGLFunctions_3_2_CoreD1Ev@Qt_6 6.1.2
 _ZN25QOpenGLFunctions_3_2_CoreD2Ev@Qt_6 6.1.2
 _ZN25QOpenGLFunctions_3_3_Core14versionProfileEv@Qt_6 6.1.2
 _ZN25QOpenGLFunctions_3_3_Core19isContextCompatibleEP14QOpenGLContext@Qt_6 6.1.2
 _ZN25QOpenGLFunctions_3_3_Core25initializeOpenGLFunctionsEv@Qt_6 6.1.2
 _ZN25QOpenGLFunctions_3_3_CoreC1Ev@Qt_6 6.1.2
 _ZN25QOpenGLFunctions_3_3_CoreC2Ev@Qt_6 6.1.2
 _ZN25QOpenGLFunctions_3_3_CoreD0Ev@Qt_6 6.1.2
 _ZN25QOpenGLFunctions_3_3_CoreD1Ev@Qt_6 6.1.2
 _ZN25QOpenGLFunctions_3_3_CoreD2Ev@Qt_6 6.1.2
 _ZN25QOpenGLFunctions_4_0_Core14versionProfileEv@Qt_6 6.1.2
 _ZN25QOpenGLFunctions_4_0_Core19isContextCompatibleEP14QOpenGLContext@Qt_6 6.1.2
 _ZN25QOpenGLFunctions_4_0_Core25initializeOpenGLFunctionsEv@Qt_6 6.1.2
 _ZN25QOpenGLFunctions_4_0_CoreC1Ev@Qt_6 6.1.2
 _ZN25QOpenGLFunctions_4_0_CoreC2Ev@Qt_6 6.1.2
 _ZN25QOpenGLFunctions_4_0_CoreD0Ev@Qt_6 6.1.2
 _ZN25QOpenGLFunctions_4_0_CoreD1Ev@Qt_6 6.1.2
 _ZN25QOpenGLFunctions_4_0_CoreD2Ev@Qt_6 6.1.2
 _ZN25QOpenGLFunctions_4_1_Core14versionProfileEv@Qt_6 6.1.2
 _ZN25QOpenGLFunctions_4_1_Core19isContextCompatibleEP14QOpenGLContext@Qt_6 6.1.2
 _ZN25QOpenGLFunctions_4_1_Core25initializeOpenGLFunctionsEv@Qt_6 6.1.2
 _ZN25QOpenGLFunctions_4_1_CoreC1Ev@Qt_6 6.1.2
 _ZN25QOpenGLFunctions_4_1_CoreC2Ev@Qt_6 6.1.2
 _ZN25QOpenGLFunctions_4_1_CoreD0Ev@Qt_6 6.1.2
 _ZN25QOpenGLFunctions_4_1_CoreD1Ev@Qt_6 6.1.2
 _ZN25QOpenGLFunctions_4_1_CoreD2Ev@Qt_6 6.1.2
 _ZN25QOpenGLFunctions_4_2_Core14versionProfileEv@Qt_6 6.1.2
 _ZN25QOpenGLFunctions_4_2_Core19isContextCompatibleEP14QOpenGLContext@Qt_6 6.1.2
 _ZN25QOpenGLFunctions_4_2_Core25initializeOpenGLFunctionsEv@Qt_6 6.1.2
 _ZN25QOpenGLFunctions_4_2_CoreC1Ev@Qt_6 6.1.2
 _ZN25QOpenGLFunctions_4_2_CoreC2Ev@Qt_6 6.1.2
 _ZN25QOpenGLFunctions_4_2_CoreD0Ev@Qt_6 6.1.2
 _ZN25QOpenGLFunctions_4_2_CoreD1Ev@Qt_6 6.1.2
 _ZN25QOpenGLFunctions_4_2_CoreD2Ev@Qt_6 6.1.2
 _ZN25QOpenGLFunctions_4_3_Core14versionProfileEv@Qt_6 6.1.2
 _ZN25QOpenGLFunctions_4_3_Core19isContextCompatibleEP14QOpenGLContext@Qt_6 6.1.2
 _ZN25QOpenGLFunctions_4_3_Core25initializeOpenGLFunctionsEv@Qt_6 6.1.2
 _ZN25QOpenGLFunctions_4_3_CoreC1Ev@Qt_6 6.1.2
 _ZN25QOpenGLFunctions_4_3_CoreC2Ev@Qt_6 6.1.2
 _ZN25QOpenGLFunctions_4_3_CoreD0Ev@Qt_6 6.1.2
 _ZN25QOpenGLFunctions_4_3_CoreD1Ev@Qt_6 6.1.2
 _ZN25QOpenGLFunctions_4_3_CoreD2Ev@Qt_6 6.1.2
 _ZN25QOpenGLFunctions_4_4_Core14versionProfileEv@Qt_6 6.1.2
 _ZN25QOpenGLFunctions_4_4_Core19isContextCompatibleEP14QOpenGLContext@Qt_6 6.1.2
 _ZN25QOpenGLFunctions_4_4_Core25initializeOpenGLFunctionsEv@Qt_6 6.1.2
 _ZN25QOpenGLFunctions_4_4_CoreC1Ev@Qt_6 6.1.2
 _ZN25QOpenGLFunctions_4_4_CoreC2Ev@Qt_6 6.1.2
 _ZN25QOpenGLFunctions_4_4_CoreD0Ev@Qt_6 6.1.2
 _ZN25QOpenGLFunctions_4_4_CoreD1Ev@Qt_6 6.1.2
 _ZN25QOpenGLFunctions_4_4_CoreD2Ev@Qt_6 6.1.2
 _ZN25QOpenGLFunctions_4_5_Core14versionProfileEv@Qt_6 6.1.2
 _ZN25QOpenGLFunctions_4_5_Core19isContextCompatibleEP14QOpenGLContext@Qt_6 6.1.2
 _ZN25QOpenGLFunctions_4_5_Core25initializeOpenGLFunctionsEv@Qt_6 6.1.2
 _ZN25QOpenGLFunctions_4_5_CoreC1Ev@Qt_6 6.1.2
 _ZN25QOpenGLFunctions_4_5_CoreC2Ev@Qt_6 6.1.2
 _ZN25QOpenGLFunctions_4_5_CoreD0Ev@Qt_6 6.1.2
 _ZN25QOpenGLFunctions_4_5_CoreD1Ev@Qt_6 6.1.2
 _ZN25QOpenGLFunctions_4_5_CoreD2Ev@Qt_6 6.1.2
 _ZN27QOpenGLPixelTransferOptions11setSkipRowsEi@Qt_6 6.1.2
 _ZN27QOpenGLPixelTransferOptions12setAlignmentEi@Qt_6 6.1.2
 _ZN27QOpenGLPixelTransferOptions12setRowLengthEi@Qt_6 6.1.2
 _ZN27QOpenGLPixelTransferOptions13setSkipImagesEi@Qt_6 6.1.2
 _ZN27QOpenGLPixelTransferOptions13setSkipPixelsEi@Qt_6 6.1.2
 _ZN27QOpenGLPixelTransferOptions14setImageHeightEi@Qt_6 6.1.2
 _ZN27QOpenGLPixelTransferOptions19setSwapBytesEnabledEb@Qt_6 6.1.2
 _ZN27QOpenGLPixelTransferOptions28setLeastSignificantByteFirstEb@Qt_6 6.1.2
 _ZN27QOpenGLPixelTransferOptionsC1ERKS_@Qt_6 6.1.2
 _ZN27QOpenGLPixelTransferOptionsC1Ev@Qt_6 6.1.2
 _ZN27QOpenGLPixelTransferOptionsC2ERKS_@Qt_6 6.1.2
 _ZN27QOpenGLPixelTransferOptionsC2Ev@Qt_6 6.1.2
 _ZN27QOpenGLPixelTransferOptionsD1Ev@Qt_6 6.1.2
 _ZN27QOpenGLPixelTransferOptionsD2Ev@Qt_6 6.1.2
 _ZN27QOpenGLPixelTransferOptionsaSERKS_@Qt_6 6.1.2
 _ZN30QOpenGLFramebufferObjectFormat10setSamplesEi@Qt_6 6.1.2
 _ZN30QOpenGLFramebufferObjectFormat13setAttachmentEN24QOpenGLFramebufferObject10AttachmentE@Qt_6 6.1.2
 _ZN30QOpenGLFramebufferObjectFormat16setTextureTargetEj@Qt_6 6.1.2
 _ZN30QOpenGLFramebufferObjectFormat24setInternalTextureFormatEj@Qt_6 6.1.2
 _ZN30QOpenGLFramebufferObjectFormat6detachEv@Qt_6 6.1.2
 _ZN30QOpenGLFramebufferObjectFormat9setMipmapEb@Qt_6 6.1.2
 _ZN30QOpenGLFramebufferObjectFormatC1ERKS_@Qt_6 6.1.2
 _ZN30QOpenGLFramebufferObjectFormatC1Ev@Qt_6 6.1.2
 _ZN30QOpenGLFramebufferObjectFormatC2ERKS_@Qt_6 6.1.2
 _ZN30QOpenGLFramebufferObjectFormatC2Ev@Qt_6 6.1.2
 _ZN30QOpenGLFramebufferObjectFormatD1Ev@Qt_6 6.1.2
 _ZN30QOpenGLFramebufferObjectFormatD2Ev@Qt_6 6.1.2
 _ZN30QOpenGLFramebufferObjectFormataSERKS_@Qt_6 6.1.2
 _ZN30QOpenGLVersionFunctionsFactory3getERK21QOpenGLVersionProfileP14QOpenGLContext@Qt_6 6.1.2
 _ZN30QOpenGLVertexArrayObjectHelper21initializeFromContextEP14QOpenGLContext@Qt_6 6.1.2
 _ZN30QOpenGLVertexArrayObjectHelper33vertexArrayObjectHelperForContextEP14QOpenGLContext@Qt_6 6.1.2
 _ZN34QOpenGLFunctions_3_2_Compatibility14versionProfileEv@Qt_6 6.1.2
 _ZN34QOpenGLFunctions_3_2_Compatibility19isContextCompatibleEP14QOpenGLContext@Qt_6 6.1.2
 _ZN34QOpenGLFunctions_3_2_Compatibility25initializeOpenGLFunctionsEv@Qt_6 6.1.2
 _ZN34QOpenGLFunctions_3_2_CompatibilityC1Ev@Qt_6 6.1.2
 _ZN34QOpenGLFunctions_3_2_CompatibilityC2Ev@Qt_6 6.1.2
 _ZN34QOpenGLFunctions_3_2_CompatibilityD0Ev@Qt_6 6.1.2
 _ZN34QOpenGLFunctions_3_2_CompatibilityD1Ev@Qt_6 6.1.2
 _ZN34QOpenGLFunctions_3_2_CompatibilityD2Ev@Qt_6 6.1.2
 _ZN34QOpenGLFunctions_3_3_Compatibility14versionProfileEv@Qt_6 6.1.2
 _ZN34QOpenGLFunctions_3_3_Compatibility19isContextCompatibleEP14QOpenGLContext@Qt_6 6.1.2
 _ZN34QOpenGLFunctions_3_3_Compatibility25initializeOpenGLFunctionsEv@Qt_6 6.1.2
 _ZN34QOpenGLFunctions_3_3_CompatibilityC1Ev@Qt_6 6.1.2
 _ZN34QOpenGLFunctions_3_3_CompatibilityC2Ev@Qt_6 6.1.2
 _ZN34QOpenGLFunctions_3_3_CompatibilityD0Ev@Qt_6 6.1.2
 _ZN34QOpenGLFunctions_3_3_CompatibilityD1Ev@Qt_6 6.1.2
 _ZN34QOpenGLFunctions_3_3_CompatibilityD2Ev@Qt_6 6.1.2
 _ZN34QOpenGLFunctions_4_0_Compatibility14versionProfileEv@Qt_6 6.1.2
 _ZN34QOpenGLFunctions_4_0_Compatibility19isContextCompatibleEP14QOpenGLContext@Qt_6 6.1.2
 _ZN34QOpenGLFunctions_4_0_Compatibility25initializeOpenGLFunctionsEv@Qt_6 6.1.2
 _ZN34QOpenGLFunctions_4_0_CompatibilityC1Ev@Qt_6 6.1.2
 _ZN34QOpenGLFunctions_4_0_CompatibilityC2Ev@Qt_6 6.1.2
 _ZN34QOpenGLFunctions_4_0_CompatibilityD0Ev@Qt_6 6.1.2
 _ZN34QOpenGLFunctions_4_0_CompatibilityD1Ev@Qt_6 6.1.2
 _ZN34QOpenGLFunctions_4_0_CompatibilityD2Ev@Qt_6 6.1.2
 _ZN34QOpenGLFunctions_4_1_Compatibility14versionProfileEv@Qt_6 6.1.2
 _ZN34QOpenGLFunctions_4_1_Compatibility19isContextCompatibleEP14QOpenGLContext@Qt_6 6.1.2
 _ZN34QOpenGLFunctions_4_1_Compatibility25initializeOpenGLFunctionsEv@Qt_6 6.1.2
 _ZN34QOpenGLFunctions_4_1_CompatibilityC1Ev@Qt_6 6.1.2
 _ZN34QOpenGLFunctions_4_1_CompatibilityC2Ev@Qt_6 6.1.2
 _ZN34QOpenGLFunctions_4_1_CompatibilityD0Ev@Qt_6 6.1.2
 _ZN34QOpenGLFunctions_4_1_CompatibilityD1Ev@Qt_6 6.1.2
 _ZN34QOpenGLFunctions_4_1_CompatibilityD2Ev@Qt_6 6.1.2
 _ZN34QOpenGLFunctions_4_2_Compatibility14versionProfileEv@Qt_6 6.1.2
 _ZN34QOpenGLFunctions_4_2_Compatibility19isContextCompatibleEP14QOpenGLContext@Qt_6 6.1.2
 _ZN34QOpenGLFunctions_4_2_Compatibility25initializeOpenGLFunctionsEv@Qt_6 6.1.2
 _ZN34QOpenGLFunctions_4_2_CompatibilityC1Ev@Qt_6 6.1.2
 _ZN34QOpenGLFunctions_4_2_CompatibilityC2Ev@Qt_6 6.1.2
 _ZN34QOpenGLFunctions_4_2_CompatibilityD0Ev@Qt_6 6.1.2
 _ZN34QOpenGLFunctions_4_2_CompatibilityD1Ev@Qt_6 6.1.2
 _ZN34QOpenGLFunctions_4_2_CompatibilityD2Ev@Qt_6 6.1.2
 _ZN34QOpenGLFunctions_4_3_Compatibility14versionProfileEv@Qt_6 6.1.2
 _ZN34QOpenGLFunctions_4_3_Compatibility19isContextCompatibleEP14QOpenGLContext@Qt_6 6.1.2
 _ZN34QOpenGLFunctions_4_3_Compatibility25initializeOpenGLFunctionsEv@Qt_6 6.1.2
 _ZN34QOpenGLFunctions_4_3_CompatibilityC1Ev@Qt_6 6.1.2
 _ZN34QOpenGLFunctions_4_3_CompatibilityC2Ev@Qt_6 6.1.2
 _ZN34QOpenGLFunctions_4_3_CompatibilityD0Ev@Qt_6 6.1.2
 _ZN34QOpenGLFunctions_4_3_CompatibilityD1Ev@Qt_6 6.1.2
 _ZN34QOpenGLFunctions_4_3_CompatibilityD2Ev@Qt_6 6.1.2
 _ZN34QOpenGLFunctions_4_4_Compatibility14versionProfileEv@Qt_6 6.1.2
 _ZN34QOpenGLFunctions_4_4_Compatibility19isContextCompatibleEP14QOpenGLContext@Qt_6 6.1.2
 _ZN34QOpenGLFunctions_4_4_Compatibility25initializeOpenGLFunctionsEv@Qt_6 6.1.2
 _ZN34QOpenGLFunctions_4_4_CompatibilityC1Ev@Qt_6 6.1.2
 _ZN34QOpenGLFunctions_4_4_CompatibilityC2Ev@Qt_6 6.1.2
 _ZN34QOpenGLFunctions_4_4_CompatibilityD0Ev@Qt_6 6.1.2
 _ZN34QOpenGLFunctions_4_4_CompatibilityD1Ev@Qt_6 6.1.2
 _ZN34QOpenGLFunctions_4_4_CompatibilityD2Ev@Qt_6 6.1.2
 _ZN34QOpenGLFunctions_4_5_Compatibility14versionProfileEv@Qt_6 6.1.2
 _ZN34QOpenGLFunctions_4_5_Compatibility19isContextCompatibleEP14QOpenGLContext@Qt_6 6.1.2
 _ZN34QOpenGLFunctions_4_5_Compatibility25initializeOpenGLFunctionsEv@Qt_6 6.1.2
 _ZN34QOpenGLFunctions_4_5_CompatibilityC1Ev@Qt_6 6.1.2
 _ZN34QOpenGLFunctions_4_5_CompatibilityC2Ev@Qt_6 6.1.2
 _ZN34QOpenGLFunctions_4_5_CompatibilityD0Ev@Qt_6 6.1.2
 _ZN34QOpenGLFunctions_4_5_CompatibilityD1Ev@Qt_6 6.1.2
 _ZN34QOpenGLFunctions_4_5_CompatibilityD2Ev@Qt_6 6.1.2
 _ZNK12QPaintDevice7devTypeEv@Qt_6 6.4.2
 _ZNK13QOpenGLBuffer12usagePatternEv@Qt_6 6.1.2
 _ZNK13QOpenGLBuffer4sizeEv@Qt_6 6.1.2
 _ZNK13QOpenGLBuffer4typeEv@Qt_6 6.1.2
 _ZNK13QOpenGLBuffer8bufferIdEv@Qt_6 6.1.2
 _ZNK13QOpenGLBuffer9isCreatedEv@Qt_6 6.1.2
 _ZNK13QOpenGLShader10isCompiledEv@Qt_6 6.1.2
 _ZNK13QOpenGLShader10metaObjectEv@Qt_6 6.1.2
 _ZNK13QOpenGLShader10shaderTypeEv@Qt_6 6.1.2
 _ZNK13QOpenGLShader10sourceCodeEv@Qt_6 6.1.2
 _ZNK13QOpenGLShader3logEv@Qt_6 6.1.2
 _ZNK13QOpenGLShader8shaderIdEv@Qt_6 6.1.2
 _ZNK13QOpenGLWindow10metaObjectEv@Qt_6 6.1.2
 _ZNK13QOpenGLWindow10redirectedEP6QPoint@Qt_6 6.1.2
 _ZNK13QOpenGLWindow12shareContextEv@Qt_6 6.1.2
 _ZNK13QOpenGLWindow14updateBehaviorEv@Qt_6 6.1.2
 _ZNK13QOpenGLWindow24defaultFramebufferObjectEv@Qt_6 6.1.2
 _ZNK13QOpenGLWindow6metricEN12QPaintDevice17PaintDeviceMetricE@Qt_6 6.1.2
 _ZNK13QOpenGLWindow7contextEv@Qt_6 6.1.2
 _ZNK13QOpenGLWindow7isValidEv@Qt_6 6.1.2
 _ZNK14QOpenGLTexture11borderColorEPf@Qt_6 6.1.2
 _ZNK14QOpenGLTexture11borderColorEPi@Qt_6 6.1.2
 _ZNK14QOpenGLTexture11borderColorEPj@Qt_6 6.1.2
 _ZNK14QOpenGLTexture11borderColorEv@Qt_6 6.1.2
 _ZNK14QOpenGLTexture11mipMaxLevelEv@Qt_6 6.1.2
 _ZNK14QOpenGLTexture11swizzleMaskENS_16SwizzleComponentE@Qt_6 6.1.2
 _ZNK14QOpenGLTexture12mipBaseLevelEv@Qt_6 6.1.2
 _ZNK14QOpenGLTexture13isTextureViewEv@Qt_6 6.1.2
 _ZNK14QOpenGLTexture13minMagFiltersEv@Qt_6 6.1.2
 _ZNK14QOpenGLTexture13mipLevelRangeEv@Qt_6 6.1.2
 _ZNK14QOpenGLTexture14comparisonModeEv@Qt_6 6.1.2
 _ZNK14QOpenGLTexture16depthStencilModeEv@Qt_6 6.1.2
 _ZNK14QOpenGLTexture16maximumMipLevelsEv@Qt_6 6.1.2
 _ZNK14QOpenGLTexture17createTextureViewENS_6TargetENS_13TextureFormatEiiii@Qt_6 6.1.2
 _ZNK14QOpenGLTexture17levelofDetailBiasEv@Qt_6 6.1.2
 _ZNK14QOpenGLTexture17maximumAnisotropyEv@Qt_6 6.1.2
 _ZNK14QOpenGLTexture18comparisonFunctionEv@Qt_6 6.1.2
 _ZNK14QOpenGLTexture18isStorageAllocatedEv@Qt_6 6.1.2
 _ZNK14QOpenGLTexture18levelOfDetailRangeEv@Qt_6 6.1.2
 _ZNK14QOpenGLTexture18minificationFilterEv@Qt_6 6.1.2
 _ZNK14QOpenGLTexture19magnificationFilterEv@Qt_6 6.1.2
 _ZNK14QOpenGLTexture20maximumLevelOfDetailEv@Qt_6 6.1.2
 _ZNK14QOpenGLTexture20minimumLevelOfDetailEv@Qt_6 6.1.2
 _ZNK14QOpenGLTexture22isFixedSamplePositionsEv@Qt_6 6.1.2
 _ZNK14QOpenGLTexture29isAutoMipMapGenerationEnabledEv@Qt_6 6.1.2
 _ZNK14QOpenGLTexture5depthEv@Qt_6 6.1.2
 _ZNK14QOpenGLTexture5facesEv@Qt_6 6.1.2
 _ZNK14QOpenGLTexture5widthEv@Qt_6 6.1.2
 _ZNK14QOpenGLTexture6formatEv@Qt_6 6.1.2
 _ZNK14QOpenGLTexture6heightEv@Qt_6 6.1.2
 _ZNK14QOpenGLTexture6layersEv@Qt_6 6.1.2
 _ZNK14QOpenGLTexture6targetEv@Qt_6 6.1.2
 _ZNK14QOpenGLTexture7isBoundEv@Qt_6 6.1.2
 _ZNK14QOpenGLTexture7samplesEv@Qt_6 6.1.2
 _ZNK14QOpenGLTexture8wrapModeENS_19CoordinateDirectionE@Qt_6 6.1.2
 _ZNK14QOpenGLTexture9isCreatedEv@Qt_6 6.1.2
 _ZNK14QOpenGLTexture9mipLevelsEv@Qt_6 6.1.2
 _ZNK14QOpenGLTexture9textureIdEv@Qt_6 6.1.2
 _ZNK17QOpenGLTimerQuery10metaObjectEv@Qt_6 6.1.2
 _ZNK17QOpenGLTimerQuery13waitForResultEv@Qt_6 6.1.2
 _ZNK17QOpenGLTimerQuery16waitForTimestampEv@Qt_6 6.1.2
 _ZNK17QOpenGLTimerQuery17isResultAvailableEv@Qt_6 6.1.2
 _ZNK17QOpenGLTimerQuery8objectIdEv@Qt_6 6.1.2
 _ZNK17QOpenGLTimerQuery9isCreatedEv@Qt_6 6.1.2
 _ZNK18QOpenGLDebugLogger10metaObjectEv@Qt_6 6.1.2
 _ZNK18QOpenGLDebugLogger11loggingModeEv@Qt_6 6.1.2
 _ZNK18QOpenGLDebugLogger14loggedMessagesEv@Qt_6 6.1.2
 _ZNK18QOpenGLDebugLogger20maximumMessageLengthEv@Qt_6 6.1.2
 _ZNK18QOpenGLDebugLogger9isLoggingEv@Qt_6 6.1.2
 _ZNK18QOpenGLPaintDevice11paintEngineEv@Qt_6 6.1.2
 _ZNK18QOpenGLPaintDevice12paintFlippedEv@Qt_6 6.1.2
 _ZNK18QOpenGLPaintDevice13dotsPerMeterXEv@Qt_6 6.1.2
 _ZNK18QOpenGLPaintDevice13dotsPerMeterYEv@Qt_6 6.1.2
 _ZNK18QOpenGLPaintDevice4sizeEv@Qt_6 6.1.2
 _ZNK18QOpenGLPaintDevice6metricEN12QPaintDevice17PaintDeviceMetricE@Qt_6 6.1.2
 _ZNK18QOpenGLPaintDevice7contextEv@Qt_6 6.1.2
 _ZNK18QOpenGLTimeMonitor10metaObjectEv@Qt_6 6.1.2
 _ZNK18QOpenGLTimeMonitor11sampleCountEv@Qt_6 6.1.2
 _ZNK18QOpenGLTimeMonitor14waitForSamplesEv@Qt_6 6.1.2
 _ZNK18QOpenGLTimeMonitor16waitForIntervalsEv@Qt_6 6.1.2
 _ZNK18QOpenGLTimeMonitor17isResultAvailableEv@Qt_6 6.1.2
 _ZNK18QOpenGLTimeMonitor9isCreatedEv@Qt_6 6.1.2
 _ZNK18QOpenGLTimeMonitor9objectIdsEv@Qt_6 6.1.2
 _ZNK19QOpenGLDebugMessage2idEv@Qt_6 6.1.2
 _ZNK19QOpenGLDebugMessage4typeEv@Qt_6 6.1.2
 _ZNK19QOpenGLDebugMessage6sourceEv@Qt_6 6.1.2
 _ZNK19QOpenGLDebugMessage7messageEv@Qt_6 6.1.2
 _ZNK19QOpenGLDebugMessage8severityEv@Qt_6 6.1.2
 _ZNK19QOpenGLDebugMessageeqERKS_@Qt_6 6.1.2
 _ZNK20QOpenGLShaderProgram10metaObjectEv@Qt_6 6.1.2
 _ZNK20QOpenGLShaderProgram15uniformLocationEPKc@Qt_6 6.1.2
 _ZNK20QOpenGLShaderProgram15uniformLocationERK10QByteArray@Qt_6 6.1.2
 _ZNK20QOpenGLShaderProgram15uniformLocationERK7QString@Qt_6 6.1.2
 _ZNK20QOpenGLShaderProgram16patchVertexCountEv@Qt_6 6.1.2
 _ZNK20QOpenGLShaderProgram17attributeLocationEPKc@Qt_6 6.1.2
 _ZNK20QOpenGLShaderProgram17attributeLocationERK10QByteArray@Qt_6 6.1.2
 _ZNK20QOpenGLShaderProgram17attributeLocationERK7QString@Qt_6 6.1.2
 _ZNK20QOpenGLShaderProgram25maxGeometryOutputVerticesEv@Qt_6 6.1.2
 _ZNK20QOpenGLShaderProgram30defaultInnerTessellationLevelsEv@Qt_6 6.1.2
 _ZNK20QOpenGLShaderProgram30defaultOuterTessellationLevelsEv@Qt_6 6.1.2
 _ZNK20QOpenGLShaderProgram3logEv@Qt_6 6.1.2
 _ZNK20QOpenGLShaderProgram7shadersEv@Qt_6 6.1.2
 _ZNK20QOpenGLShaderProgram8isLinkedEv@Qt_6 6.1.2
 _ZNK20QOpenGLShaderProgram9programIdEv@Qt_6 6.1.2
 _ZNK21QOpenGLTextureBlitter23supportsRectangleTargetEv@Qt_6 6.3.0
 _ZNK21QOpenGLTextureBlitter25supportsExternalOESTargetEv@Qt_6 6.1.2
 _ZNK21QOpenGLTextureBlitter9isCreatedEv@Qt_6 6.1.2
 _ZNK21QOpenGLVersionProfile11hasProfilesEv@Qt_6 6.1.2
 _ZNK21QOpenGLVersionProfile15isLegacyVersionEv@Qt_6 6.1.2
 _ZNK21QOpenGLVersionProfile7isValidEv@Qt_6 6.1.2
 _ZNK21QOpenGLVersionProfile7profileEv@Qt_6 6.1.2
 _ZNK21QOpenGLVersionProfile7versionEv@Qt_6 6.1.2
 _ZNK24QAbstractOpenGLFunctions13isInitializedEv@Qt_6 6.1.2
 _ZNK24QAbstractOpenGLFunctions13owningContextEv@Qt_6 6.1.2
 _ZNK24QOpenGLFramebufferObject10attachmentEv@Qt_6 6.1.2
 _ZNK24QOpenGLFramebufferObject4sizeEv@Qt_6 6.1.2
 _ZNK24QOpenGLFramebufferObject5sizesEv@Qt_6 6.1.2
 _ZNK24QOpenGLFramebufferObject6formatEv@Qt_6 6.1.2
 _ZNK24QOpenGLFramebufferObject6handleEv@Qt_6 6.1.2
 _ZNK24QOpenGLFramebufferObject7isBoundEv@Qt_6 6.1.2
 _ZNK24QOpenGLFramebufferObject7isValidEv@Qt_6 6.1.2
 _ZNK24QOpenGLFramebufferObject7textureEv@Qt_6 6.1.2
 _ZNK24QOpenGLFramebufferObject7toImageEb@Qt_6 6.1.2
 _ZNK24QOpenGLFramebufferObject7toImageEbi@Qt_6 6.1.2
 _ZNK24QOpenGLFramebufferObject8texturesEv@Qt_6 6.1.2
 _ZNK24QOpenGLVertexArrayObject10metaObjectEv@Qt_6 6.1.2
 _ZNK24QOpenGLVertexArrayObject8objectIdEv@Qt_6 6.1.2
 _ZNK24QOpenGLVertexArrayObject9isCreatedEv@Qt_6 6.1.2
 _ZNK27QOpenGLPixelTransferOptions10skipImagesEv@Qt_6 6.1.2
 _ZNK27QOpenGLPixelTransferOptions10skipPixelsEv@Qt_6 6.1.2
 _ZNK27QOpenGLPixelTransferOptions11imageHeightEv@Qt_6 6.1.2
 _ZNK27QOpenGLPixelTransferOptions18isSwapBytesEnabledEv@Qt_6 6.1.2
 _ZNK27QOpenGLPixelTransferOptions26isLeastSignificantBitFirstEv@Qt_6 6.1.2
 _ZNK27QOpenGLPixelTransferOptions8skipRowsEv@Qt_6 6.1.2
 _ZNK27QOpenGLPixelTransferOptions9alignmentEv@Qt_6 6.1.2
 _ZNK27QOpenGLPixelTransferOptions9rowLengthEv@Qt_6 6.1.2
 _ZNK30QOpenGLFramebufferObjectFormat10attachmentEv@Qt_6 6.1.2
 _ZNK30QOpenGLFramebufferObjectFormat13textureTargetEv@Qt_6 6.1.2
 _ZNK30QOpenGLFramebufferObjectFormat21internalTextureFormatEv@Qt_6 6.1.2
 _ZNK30QOpenGLFramebufferObjectFormat6mipmapEv@Qt_6 6.1.2
 _ZNK30QOpenGLFramebufferObjectFormat7samplesEv@Qt_6 6.1.2
 _ZNK30QOpenGLFramebufferObjectFormateqERKS_@Qt_6 6.1.2
 _ZNK30QOpenGLFramebufferObjectFormatneERKS_@Qt_6 6.1.2
 _ZTI13QOpenGLShader@Qt_6 6.1.2
 _ZTI13QOpenGLWindow@Qt_6 6.1.2
 _ZTI17QOpenGLTimerQuery@Qt_6 6.1.2
 _ZTI18QOpenGLDebugLogger@Qt_6 6.1.2
 _ZTI18QOpenGLPaintDevice@Qt_6 6.1.2
 _ZTI18QOpenGLTimeMonitor@Qt_6 6.1.2
 _ZTI20QOpenGLFunctions_1_0@Qt_6 6.1.2
 _ZTI20QOpenGLFunctions_1_1@Qt_6 6.1.2
 _ZTI20QOpenGLFunctions_1_2@Qt_6 6.1.2
 _ZTI20QOpenGLFunctions_1_3@Qt_6 6.1.2
 _ZTI20QOpenGLFunctions_1_4@Qt_6 6.1.2
 _ZTI20QOpenGLFunctions_1_5@Qt_6 6.1.2
 _ZTI20QOpenGLFunctions_2_0@Qt_6 6.1.2
 _ZTI20QOpenGLFunctions_2_1@Qt_6 6.1.2
 _ZTI20QOpenGLFunctions_3_0@Qt_6 6.1.2
 _ZTI20QOpenGLFunctions_3_1@Qt_6 6.1.2
 _ZTI20QOpenGLShaderProgram@Qt_6 6.1.2
 _ZTI21QOpenGLSharedResource@Qt_6 6.1.2
 _ZTI24QAbstractOpenGLFunctions@Qt_6 6.1.2
 _ZTI24QOpenGLFramebufferObject@Qt_6 6.1.2
 _ZTI24QOpenGLVertexArrayObject@Qt_6 6.1.2
 _ZTI25QOpenGLFunctions_3_2_Core@Qt_6 6.1.2
 _ZTI25QOpenGLFunctions_3_3_Core@Qt_6 6.1.2
 _ZTI25QOpenGLFunctions_4_0_Core@Qt_6 6.1.2
 _ZTI25QOpenGLFunctions_4_1_Core@Qt_6 6.1.2
 _ZTI25QOpenGLFunctions_4_2_Core@Qt_6 6.1.2
 _ZTI25QOpenGLFunctions_4_3_Core@Qt_6 6.1.2
 _ZTI25QOpenGLFunctions_4_4_Core@Qt_6 6.1.2
 _ZTI25QOpenGLFunctions_4_5_Core@Qt_6 6.1.2
 _ZTI34QOpenGLFunctions_3_2_Compatibility@Qt_6 6.1.2
 _ZTI34QOpenGLFunctions_3_3_Compatibility@Qt_6 6.1.2
 _ZTI34QOpenGLFunctions_4_0_Compatibility@Qt_6 6.1.2
 _ZTI34QOpenGLFunctions_4_1_Compatibility@Qt_6 6.1.2
 _ZTI34QOpenGLFunctions_4_2_Compatibility@Qt_6 6.1.2
 _ZTI34QOpenGLFunctions_4_3_Compatibility@Qt_6 6.1.2
 _ZTI34QOpenGLFunctions_4_4_Compatibility@Qt_6 6.1.2
 _ZTI34QOpenGLFunctions_4_5_Compatibility@Qt_6 6.1.2
 _ZTS13QOpenGLShader@Qt_6 6.1.2
 _ZTS13QOpenGLWindow@Qt_6 6.1.2
 _ZTS17QOpenGLTimerQuery@Qt_6 6.1.2
 _ZTS18QOpenGLDebugLogger@Qt_6 6.1.2
 _ZTS18QOpenGLPaintDevice@Qt_6 6.1.2
 _ZTS18QOpenGLTimeMonitor@Qt_6 6.1.2
 _ZTS20QOpenGLFunctions_1_0@Qt_6 6.1.2
 _ZTS20QOpenGLFunctions_1_1@Qt_6 6.1.2
 _ZTS20QOpenGLFunctions_1_2@Qt_6 6.1.2
 _ZTS20QOpenGLFunctions_1_3@Qt_6 6.1.2
 _ZTS20QOpenGLFunctions_1_4@Qt_6 6.1.2
 _ZTS20QOpenGLFunctions_1_5@Qt_6 6.1.2
 _ZTS20QOpenGLFunctions_2_0@Qt_6 6.1.2
 _ZTS20QOpenGLFunctions_2_1@Qt_6 6.1.2
 _ZTS20QOpenGLFunctions_3_0@Qt_6 6.1.2
 _ZTS20QOpenGLFunctions_3_1@Qt_6 6.1.2
 _ZTS20QOpenGLShaderProgram@Qt_6 6.1.2
 _ZTS21QOpenGLSharedResource@Qt_6 6.1.2
 _ZTS24QAbstractOpenGLFunctions@Qt_6 6.1.2
 _ZTS24QOpenGLFramebufferObject@Qt_6 6.1.2
 _ZTS24QOpenGLVertexArrayObject@Qt_6 6.1.2
 _ZTS25QOpenGLFunctions_3_2_Core@Qt_6 6.1.2
 _ZTS25QOpenGLFunctions_3_3_Core@Qt_6 6.1.2
 _ZTS25QOpenGLFunctions_4_0_Core@Qt_6 6.1.2
 _ZTS25QOpenGLFunctions_4_1_Core@Qt_6 6.1.2
 _ZTS25QOpenGLFunctions_4_2_Core@Qt_6 6.1.2
 _ZTS25QOpenGLFunctions_4_3_Core@Qt_6 6.1.2
 _ZTS25QOpenGLFunctions_4_4_Core@Qt_6 6.1.2
 _ZTS25QOpenGLFunctions_4_5_Core@Qt_6 6.1.2
 _ZTS34QOpenGLFunctions_3_2_Compatibility@Qt_6 6.1.2
 _ZTS34QOpenGLFunctions_3_3_Compatibility@Qt_6 6.1.2
 _ZTS34QOpenGLFunctions_4_0_Compatibility@Qt_6 6.1.2
 _ZTS34QOpenGLFunctions_4_1_Compatibility@Qt_6 6.1.2
 _ZTS34QOpenGLFunctions_4_2_Compatibility@Qt_6 6.1.2
 _ZTS34QOpenGLFunctions_4_3_Compatibility@Qt_6 6.1.2
 _ZTS34QOpenGLFunctions_4_4_Compatibility@Qt_6 6.1.2
 _ZTS34QOpenGLFunctions_4_5_Compatibility@Qt_6 6.1.2
 _ZTV13QOpenGLShader@Qt_6 6.1.2
 _ZTV13QOpenGLWindow@Qt_6 6.1.2
 _ZTV17QOpenGLTimerQuery@Qt_6 6.1.2
 _ZTV18QOpenGLDebugLogger@Qt_6 6.1.2
 _ZTV18QOpenGLPaintDevice@Qt_6 6.1.2
 _ZTV18QOpenGLTimeMonitor@Qt_6 6.1.2
 _ZTV20QOpenGLFunctions_1_0@Qt_6 6.1.2
 _ZTV20QOpenGLFunctions_1_1@Qt_6 6.1.2
 _ZTV20QOpenGLFunctions_1_2@Qt_6 6.1.2
 _ZTV20QOpenGLFunctions_1_3@Qt_6 6.1.2
 _ZTV20QOpenGLFunctions_1_4@Qt_6 6.1.2
 _ZTV20QOpenGLFunctions_1_5@Qt_6 6.1.2
 _ZTV20QOpenGLFunctions_2_0@Qt_6 6.1.2
 _ZTV20QOpenGLFunctions_2_1@Qt_6 6.1.2
 _ZTV20QOpenGLFunctions_3_0@Qt_6 6.1.2
 _ZTV20QOpenGLFunctions_3_1@Qt_6 6.1.2
 _ZTV20QOpenGLShaderProgram@Qt_6 6.1.2
 _ZTV24QAbstractOpenGLFunctions@Qt_6 6.1.2
 _ZTV24QOpenGLFramebufferObject@Qt_6 6.1.2
 _ZTV24QOpenGLVertexArrayObject@Qt_6 6.1.2
 _ZTV25QOpenGLFunctions_3_2_Core@Qt_6 6.1.2
 _ZTV25QOpenGLFunctions_3_3_Core@Qt_6 6.1.2
 _ZTV25QOpenGLFunctions_4_0_Core@Qt_6 6.1.2
 _ZTV25QOpenGLFunctions_4_1_Core@Qt_6 6.1.2
 _ZTV25QOpenGLFunctions_4_2_Core@Qt_6 6.1.2
 _ZTV25QOpenGLFunctions_4_3_Core@Qt_6 6.1.2
 _ZTV25QOpenGLFunctions_4_4_Core@Qt_6 6.1.2
 _ZTV25QOpenGLFunctions_4_5_Core@Qt_6 6.1.2
 _ZTV34QOpenGLFunctions_3_2_Compatibility@Qt_6 6.1.2
 _ZTV34QOpenGLFunctions_3_3_Compatibility@Qt_6 6.1.2
 _ZTV34QOpenGLFunctions_4_0_Compatibility@Qt_6 6.1.2
 _ZTV34QOpenGLFunctions_4_1_Compatibility@Qt_6 6.1.2
 _ZTV34QOpenGLFunctions_4_2_Compatibility@Qt_6 6.1.2
 _ZTV34QOpenGLFunctions_4_3_Compatibility@Qt_6 6.1.2
 _ZTV34QOpenGLFunctions_4_4_Compatibility@Qt_6 6.1.2
 _ZTV34QOpenGLFunctions_4_5_Compatibility@Qt_6 6.1.2
 _Zls6QDebugN19QOpenGLDebugMessage4TypeE@Qt_6 6.1.2
 _Zls6QDebugN19QOpenGLDebugMessage6SourceE@Qt_6 6.1.2
 _Zls6QDebugN19QOpenGLDebugMessage8SeverityE@Qt_6 6.1.2
 _Zls6QDebugPK14QOpenGLTexture@Qt_6 6.1.2
 _Zls6QDebugRK19QOpenGLDebugMessage@Qt_6 6.1.2
 _Zls6QDebugRK21QOpenGLVersionProfile@Qt_6 6.1.2
 (c++)"non-virtual thunk to QOpenGLWindow::metric(QPaintDevice::PaintDeviceMetric) const@Qt_6" 6.1.2
 (c++)"non-virtual thunk to QOpenGLWindow::redirected(QPoint*) const@Qt_6" 6.1.2
 (c++)"non-virtual thunk to QOpenGLWindow::~QOpenGLWindow()@Qt_6" 6.1.2
