# SymbolsHelper-Confirmed: 6.4.1 amd64
libQt6DBus.so.6 libqt6dbus6 #MINVER#
| libqt6dbus6 #MINVER#, qt6-base-abi (= 6.4.2)
* Build-Depends-Package: qt6-base-dev
 Qt_6.0@Qt_6.0 6.1.2
 Qt_6.1@Qt_6.1 6.1.2
 Qt_6.2@Qt_6.2 6.2.0
 Qt_6.3@Qt_6.3 6.3.0
 Qt_6.4@Qt_6.4 6.4.0
 Qt_6@Qt_6 6.1.2
 (symver)Qt_6_PRIVATE_API 0 1
 _Z14qDBusReplyFillRK12QDBusMessageR10QDBusErrorR8QVariant@Qt_6 6.1.2
 _Z15qDBusAddSpyHookPFvRK12QDBusMessageE@Qt_6 6.1.2
 _Z18qDBusCheckAsyncTagPKc@Qt_6 6.1.2
 _Z22qDBusBindToApplicationv@Qt_6 6.1.2
 _Z24qDBusParametersForMethodRK5QListI10QByteArrayERS_I9QMetaTypeER7QString@Qt_6 6.1.2
 _Z26qDBusGenerateMetaObjectXml7QStringPK11QMetaObjectS2_i@Qt_6 6.1.2
 _Z38qRegisterNormalizedMetaType_QDBusErrorRK10QByteArray@Qt_6 6.3.0
 _Z40qRegisterNormalizedMetaType_QDBusMessageRK10QByteArray@Qt_6 6.3.0
 _Z40qRegisterNormalizedMetaType_QDBusVariantRK10QByteArray@Qt_6 6.3.0
 _Z41qRegisterNormalizedMetaType_QDBusArgumentRK10QByteArray@Qt_6 6.4.0
 _Z42qRegisterNormalizedMetaType_QDBusSignatureRK10QByteArray@Qt_6 6.3.0
 _Z42qRegisterNormalizedMetaType_QDBusSlotCacheRK10QByteArray@Qt_6 6.4.0
 _Z43qRegisterNormalizedMetaType_QDBusObjectPathRK10QByteArray@Qt_6 6.3.0
 _Z51qRegisterNormalizedMetaType_QDBusUnixFileDescriptorRK10QByteArray@Qt_6 6.3.0
 _ZGVZN9QMetaType21registerConverterImplI4QMapI7QStringS2_E9QIterableI16QMetaAssociationEEEbSt8functionIFbPKvPvEES_S_E10unregister@Qt_6 6.2.0
 _ZGVZN9QMetaType21registerConverterImplI5QListI14QDBusSignatureE9QIterableI13QMetaSequenceEEEbSt8functionIFbPKvPvEES_S_E10unregister@Qt_6 6.2.0
 _ZGVZN9QMetaType21registerConverterImplI5QListI15QDBusObjectPathE9QIterableI13QMetaSequenceEEEbSt8functionIFbPKvPvEES_S_E10unregister@Qt_6 6.2.0
 _ZGVZN9QMetaType21registerConverterImplI5QListI23QDBusUnixFileDescriptorE9QIterableI13QMetaSequenceEEEbSt8functionIFbPKvPvEES_S_E10unregister@Qt_6 6.2.0
 _ZGVZN9QMetaType21registerConverterImplI5QListIbE9QIterableI13QMetaSequenceEEEbSt8functionIFbPKvPvEES_S_E10unregister@Qt_6 6.2.0
 _ZGVZN9QMetaType21registerConverterImplI5QListIdE9QIterableI13QMetaSequenceEEEbSt8functionIFbPKvPvEES_S_E10unregister@Qt_6 6.2.0
 _ZGVZN9QMetaType21registerConverterImplI5QListIiE9QIterableI13QMetaSequenceEEEbSt8functionIFbPKvPvEES_S_E10unregister@Qt_6 6.2.0
 _ZGVZN9QMetaType21registerConverterImplI5QListIjE9QIterableI13QMetaSequenceEEEbSt8functionIFbPKvPvEES_S_E10unregister@Qt_6 6.2.0
 _ZGVZN9QMetaType21registerConverterImplI5QListIsE9QIterableI13QMetaSequenceEEEbSt8functionIFbPKvPvEES_S_E10unregister@Qt_6 6.2.0
 _ZGVZN9QMetaType21registerConverterImplI5QListItE9QIterableI13QMetaSequenceEEEbSt8functionIFbPKvPvEES_S_E10unregister@Qt_6 6.2.0
 _ZGVZN9QMetaType21registerConverterImplI5QListIxE9QIterableI13QMetaSequenceEEEbSt8functionIFbPKvPvEES_S_E10unregister@Qt_6 6.2.0
 _ZGVZN9QMetaType21registerConverterImplI5QListIyE9QIterableI13QMetaSequenceEEEbSt8functionIFbPKvPvEES_S_E10unregister@Qt_6 6.2.0
 _ZGVZN9QMetaType23registerMutableViewImplI4QMapI7QStringS2_E9QIterableI16QMetaAssociationEEEbSt8functionIFbPvS8_EES_S_E10unregister@Qt_6 6.2.0
 _ZGVZN9QMetaType23registerMutableViewImplI5QListI14QDBusSignatureE9QIterableI13QMetaSequenceEEEbSt8functionIFbPvS8_EES_S_E10unregister@Qt_6 6.2.0
 _ZGVZN9QMetaType23registerMutableViewImplI5QListI15QDBusObjectPathE9QIterableI13QMetaSequenceEEEbSt8functionIFbPvS8_EES_S_E10unregister@Qt_6 6.2.0
 _ZGVZN9QMetaType23registerMutableViewImplI5QListI23QDBusUnixFileDescriptorE9QIterableI13QMetaSequenceEEEbSt8functionIFbPvS8_EES_S_E10unregister@Qt_6 6.2.0
 _ZGVZN9QMetaType23registerMutableViewImplI5QListIbE9QIterableI13QMetaSequenceEEEbSt8functionIFbPvS7_EES_S_E10unregister@Qt_6 6.2.0
 _ZGVZN9QMetaType23registerMutableViewImplI5QListIdE9QIterableI13QMetaSequenceEEEbSt8functionIFbPvS7_EES_S_E10unregister@Qt_6 6.2.0
 _ZGVZN9QMetaType23registerMutableViewImplI5QListIiE9QIterableI13QMetaSequenceEEEbSt8functionIFbPvS7_EES_S_E10unregister@Qt_6 6.2.0
 _ZGVZN9QMetaType23registerMutableViewImplI5QListIjE9QIterableI13QMetaSequenceEEEbSt8functionIFbPvS7_EES_S_E10unregister@Qt_6 6.2.0
 _ZGVZN9QMetaType23registerMutableViewImplI5QListIsE9QIterableI13QMetaSequenceEEEbSt8functionIFbPvS7_EES_S_E10unregister@Qt_6 6.2.0
 _ZGVZN9QMetaType23registerMutableViewImplI5QListItE9QIterableI13QMetaSequenceEEEbSt8functionIFbPvS7_EES_S_E10unregister@Qt_6 6.2.0
 _ZGVZN9QMetaType23registerMutableViewImplI5QListIxE9QIterableI13QMetaSequenceEEEbSt8functionIFbPvS7_EES_S_E10unregister@Qt_6 6.2.0
 _ZGVZN9QMetaType23registerMutableViewImplI5QListIyE9QIterableI13QMetaSequenceEEEbSt8functionIFbPvS7_EES_S_E10unregister@Qt_6 6.2.0
 _ZN10QDBusError11errorStringENS_9ErrorTypeE@Qt_6 6.1.2
 _ZN10QDBusError16staticMetaObjectE@Qt_6 6.1.2
 _ZN10QDBusErrorC1ENS_9ErrorTypeERK7QString@Qt_6 6.1.2
 _ZN10QDBusErrorC1EPK9DBusError@Qt_6 6.1.2
 _ZN10QDBusErrorC1ERK12QDBusMessage@Qt_6 6.1.2
 _ZN10QDBusErrorC1ERKS_@Qt_6 6.1.2
 _ZN10QDBusErrorC1Ev@Qt_6 6.1.2
 _ZN10QDBusErrorC2ENS_9ErrorTypeERK7QString@Qt_6 6.1.2
 _ZN10QDBusErrorC2EPK9DBusError@Qt_6 6.1.2
 _ZN10QDBusErrorC2ERK12QDBusMessage@Qt_6 6.1.2
 _ZN10QDBusErrorC2ERKS_@Qt_6 6.1.2
 _ZN10QDBusErrorC2Ev@Qt_6 6.1.2
 _ZN10QDBusErroraSERK12QDBusMessage@Qt_6 6.1.2
 _ZN10QDBusErroraSERKS_@Qt_6 6.1.2
 _ZN11QDBusServer11qt_metacallEN11QMetaObject4CallEiPPv@Qt_6 6.1.2
 _ZN11QDBusServer11qt_metacastEPKc@Qt_6 6.1.2
 _ZN11QDBusServer13newConnectionERK15QDBusConnection@Qt_6 6.1.2
 _ZN11QDBusServer16staticMetaObjectE@Qt_6 6.1.2
 _ZN11QDBusServer33setAnonymousAuthenticationAllowedEb@Qt_6 6.1.2
 _ZN11QDBusServerC1EP7QObject@Qt_6 6.1.2
 _ZN11QDBusServerC1ERK7QStringP7QObject@Qt_6 6.1.2
 _ZN11QDBusServerC2EP7QObject@Qt_6 6.1.2
 _ZN11QDBusServerC2ERK7QStringP7QObject@Qt_6 6.1.2
 _ZN11QDBusServerD0Ev@Qt_6 6.1.2
 _ZN11QDBusServerD1Ev@Qt_6 6.1.2
 _ZN11QDBusServerD2Ev@Qt_6 6.1.2
 _ZN12QDBusContextC1Ev@Qt_6 6.1.2
 _ZN12QDBusContextC2Ev@Qt_6 6.1.2
 _ZN12QDBusContextD1Ev@Qt_6 6.1.2
 _ZN12QDBusContextD2Ev@Qt_6 6.1.2
 _ZN12QDBusMessage11createErrorERK7QStringS2_@Qt_6 6.1.2
 _ZN12QDBusMessage12createSignalERK7QStringS2_S2_@Qt_6 6.1.2
 _ZN12QDBusMessage12setArgumentsERK5QListI8QVariantE@Qt_6 6.1.2
 _ZN12QDBusMessage16createMethodCallERK7QStringS2_S2_S2_@Qt_6 6.1.2
 _ZN12QDBusMessage19setAutoStartServiceEb@Qt_6 6.1.2
 _ZN12QDBusMessage20createTargetedSignalERK7QStringS2_S2_S2_@Qt_6 6.1.2
 _ZN12QDBusMessage34setInteractiveAuthorizationAllowedEb@Qt_6 6.1.2
 _ZN12QDBusMessageC1ERKS_@Qt_6 6.1.2
 _ZN12QDBusMessageC1Ev@Qt_6 6.1.2
 _ZN12QDBusMessageC2ERKS_@Qt_6 6.1.2
 _ZN12QDBusMessageC2Ev@Qt_6 6.1.2
 _ZN12QDBusMessageD1Ev@Qt_6 6.1.2
 _ZN12QDBusMessageD2Ev@Qt_6 6.1.2
 _ZN12QDBusMessageaSERKS_@Qt_6 6.1.2
 _ZN12QDBusMessagelsERK8QVariant@Qt_6 6.1.2
 _ZN13QDBusArgument10beginArrayE9QMetaType@Qt_6 6.1.2
 _ZN13QDBusArgument11endMapEntryEv@Qt_6 6.1.2
 _ZN13QDBusArgument12endStructureEv@Qt_6 6.1.2
 _ZN13QDBusArgument13appendVariantERK8QVariant@Qt_6 6.1.2
 _ZN13QDBusArgument13beginMapEntryEv@Qt_6 6.1.2
 _ZN13QDBusArgument14beginStructureEv@Qt_6 6.1.2
 _ZN13QDBusArgument6endMapEv@Qt_6 6.1.2
 _ZN13QDBusArgument8beginMapE9QMetaTypeS0_@Qt_6 6.1.2
 _ZN13QDBusArgument8endArrayEv@Qt_6 6.1.2
 _ZN13QDBusArgumentC1EP20QDBusArgumentPrivate@Qt_6 6.1.2
 _ZN13QDBusArgumentC1ERKS_@Qt_6 6.1.2
 _ZN13QDBusArgumentC1Ev@Qt_6 6.1.2
 _ZN13QDBusArgumentC2EP20QDBusArgumentPrivate@Qt_6 6.1.2
 _ZN13QDBusArgumentC2ERKS_@Qt_6 6.1.2
 _ZN13QDBusArgumentC2Ev@Qt_6 6.1.2
 _ZN13QDBusArgumentD1Ev@Qt_6 6.1.2
 _ZN13QDBusArgumentD2Ev@Qt_6 6.1.2
 _ZN13QDBusArgumentaSERKS_@Qt_6 6.1.2
 _ZN13QDBusArgumentlsERK10QByteArray@Qt_6 6.1.2
 _ZN13QDBusArgumentlsERK12QDBusVariant@Qt_6 6.1.2
 _ZN13QDBusArgumentlsERK14QDBusSignature@Qt_6 6.1.2
 _ZN13QDBusArgumentlsERK15QDBusObjectPath@Qt_6 6.1.2
 _ZN13QDBusArgumentlsERK23QDBusUnixFileDescriptor@Qt_6 6.1.2
 _ZN13QDBusArgumentlsERK5QListI7QStringE@Qt_6 6.1.2
 _ZN13QDBusArgumentlsERK7QString@Qt_6 6.1.2
 _ZN13QDBusArgumentlsEb@Qt_6 6.1.2
 _ZN13QDBusArgumentlsEd@Qt_6 6.1.2
 _ZN13QDBusArgumentlsEh@Qt_6 6.1.2
 _ZN13QDBusArgumentlsEi@Qt_6 6.1.2
 _ZN13QDBusArgumentlsEj@Qt_6 6.1.2
 _ZN13QDBusArgumentlsEs@Qt_6 6.1.2
 _ZN13QDBusArgumentlsEt@Qt_6 6.1.2
 _ZN13QDBusArgumentlsEx@Qt_6 6.1.2
 _ZN13QDBusArgumentlsEy@Qt_6 6.1.2
 _ZN13QDBusMetaType10demarshallERK13QDBusArgument9QMetaTypePv@Qt_6 6.1.2
 _ZN13QDBusMetaType15typeToSignatureE9QMetaType@Qt_6 6.1.2
 _ZN13QDBusMetaType18registerCustomTypeE9QMetaTypeRK10QByteArray@Qt_6 6.3.0
 _ZN13QDBusMetaType19signatureToMetaTypeEPKc@Qt_6 6.1.2
 _ZN13QDBusMetaType25registerMarshallOperatorsE9QMetaTypePFvR13QDBusArgumentPKvEPFvRKS1_PvE@Qt_6 6.1.2
 _ZN13QDBusMetaType8marshallER13QDBusArgument9QMetaTypePKv@Qt_6 6.1.2
 _ZN13QMetaSequence12MetaSequenceI5QListI14QDBusSignatureEE5valueE@Qt_6 6.1.2
 _ZN13QMetaSequence12MetaSequenceI5QListI15QDBusObjectPathEE5valueE@Qt_6 6.1.2
 _ZN13QMetaSequence12MetaSequenceI5QListI23QDBusUnixFileDescriptorEE5valueE@Qt_6 6.1.2
 _ZN13QMetaSequence12MetaSequenceI5QListIbEE5valueE@Qt_6 6.1.2
 _ZN13QMetaSequence12MetaSequenceI5QListIdEE5valueE@Qt_6 6.1.2
 _ZN13QMetaSequence12MetaSequenceI5QListIiEE5valueE@Qt_6 6.1.2
 _ZN13QMetaSequence12MetaSequenceI5QListIjEE5valueE@Qt_6 6.1.2
 _ZN13QMetaSequence12MetaSequenceI5QListIsEE5valueE@Qt_6 6.1.2
 _ZN13QMetaSequence12MetaSequenceI5QListItEE5valueE@Qt_6 6.1.2
 _ZN13QMetaSequence12MetaSequenceI5QListIxEE5valueE@Qt_6 6.1.2
 _ZN13QMetaSequence12MetaSequenceI5QListIyEE5valueE@Qt_6 6.1.2
 _ZN14QDBusInterface11qt_metacallEN11QMetaObject4CallEiPPv@Qt_6 6.1.2
 _ZN14QDBusInterface11qt_metacastEPKc@Qt_6 6.1.2
 _ZN14QDBusInterfaceC1ERK7QStringS2_S2_RK15QDBusConnectionP7QObject@Qt_6 6.1.2
 _ZN14QDBusInterfaceC2ERK7QStringS2_S2_RK15QDBusConnectionP7QObject@Qt_6 6.1.2
 _ZN14QDBusInterfaceD0Ev@Qt_6 6.1.2
 _ZN14QDBusInterfaceD1Ev@Qt_6 6.1.2
 _ZN14QDBusInterfaceD2Ev@Qt_6 6.1.2
 _ZN14QDBusSignature7doCheckEv@Qt_6 6.1.2
 _ZN15QDBusConnection10disconnectERK7QStringS2_S2_S2_P7QObjectPKc@Qt_6 6.1.2
 _ZN15QDBusConnection10disconnectERK7QStringS2_S2_S2_RK5QListIS0_ES2_P7QObjectPKc@Qt_6 6.1.2
 _ZN15QDBusConnection10disconnectERK7QStringS2_S2_S2_S2_P7QObjectPKc@Qt_6 6.1.2
 _ZN15QDBusConnection10sessionBusEv@Qt_6 6.1.2
 _ZN15QDBusConnection12connectToBusENS_7BusTypeERK7QString@Qt_6 6.1.2
 _ZN15QDBusConnection12connectToBusERK7QStringS2_@Qt_6 6.1.2
 _ZN15QDBusConnection13connectToPeerERK7QStringS2_@Qt_6 6.1.2
 _ZN15QDBusConnection14localMachineIdEv@Qt_6 6.1.2
 _ZN15QDBusConnection14registerObjectERK7QStringP7QObject6QFlagsINS_14RegisterOptionEE@Qt_6 6.1.2
 _ZN15QDBusConnection14registerObjectERK7QStringS2_P7QObject6QFlagsINS_14RegisterOptionEE@Qt_6 6.1.2
 _ZN15QDBusConnection15registerServiceERK7QString@Qt_6 6.1.2
 _ZN15QDBusConnection16staticMetaObjectE@Qt_6 6.1.2
 _ZN15QDBusConnection16unregisterObjectERK7QStringNS_14UnregisterModeE@Qt_6 6.1.2
 _ZN15QDBusConnection17disconnectFromBusERK7QString@Qt_6 6.1.2
 _ZN15QDBusConnection17unregisterServiceERK7QString@Qt_6 6.1.2
 _ZN15QDBusConnection18disconnectFromPeerERK7QString@Qt_6 6.1.2
 _ZN15QDBusConnection21registerVirtualObjectERK7QStringP18QDBusVirtualObjectNS_27VirtualObjectRegisterOptionE@Qt_6 6.1.2
 _ZN15QDBusConnection7connectERK7QStringS2_S2_S2_P7QObjectPKc@Qt_6 6.1.2
 _ZN15QDBusConnection7connectERK7QStringS2_S2_S2_RK5QListIS0_ES2_P7QObjectPKc@Qt_6 6.1.2
 _ZN15QDBusConnection7connectERK7QStringS2_S2_S2_S2_P7QObjectPKc@Qt_6 6.1.2
 _ZN15QDBusConnection9systemBusEv@Qt_6 6.1.2
 _ZN15QDBusConnectionC1ERK7QString@Qt_6 6.1.2
 _ZN15QDBusConnectionC1ERKS_@Qt_6 6.1.2
 _ZN15QDBusConnectionC2ERK7QString@Qt_6 6.1.2
 _ZN15QDBusConnectionC2ERKS_@Qt_6 6.1.2
 _ZN15QDBusConnectionD1Ev@Qt_6 6.1.2
 _ZN15QDBusConnectionD2Ev@Qt_6 6.1.2
 _ZN15QDBusConnectionaSERKS_@Qt_6 6.1.2
 _ZN15QDBusObjectPath7doCheckEv@Qt_6 6.1.2
 _ZN16QDBusPendingCall15waitForFinishedEv@Qt_6 6.1.2
 _ZN16QDBusPendingCall17fromCompletedCallERK12QDBusMessage@Qt_6 6.1.2
 _ZN16QDBusPendingCall9fromErrorERK10QDBusError@Qt_6 6.1.2
 _ZN16QDBusPendingCallC1EP23QDBusPendingCallPrivate@Qt_6 6.1.2
 _ZN16QDBusPendingCallC1ERKS_@Qt_6 6.1.2
 _ZN16QDBusPendingCallC2EP23QDBusPendingCallPrivate@Qt_6 6.1.2
 _ZN16QDBusPendingCallC2ERKS_@Qt_6 6.1.2
 _ZN16QDBusPendingCallD1Ev@Qt_6 6.1.2
 _ZN16QDBusPendingCallD2Ev@Qt_6 6.1.2
 _ZN16QDBusPendingCallaSERKS_@Qt_6 6.1.2
 _ZN16QMetaAssociation15MetaAssociationI4QMapI7QStringS2_EE5valueE@Qt_6 6.1.2
 _ZN18QDBusVirtualObject11qt_metacallEN11QMetaObject4CallEiPPv@Qt_6 6.1.2
 _ZN18QDBusVirtualObject11qt_metacastEPKc@Qt_6 6.1.2
 _ZN18QDBusVirtualObject16staticMetaObjectE@Qt_6 6.1.2
 _ZN18QDBusVirtualObjectC1EP7QObject@Qt_6 6.1.2
 _ZN18QDBusVirtualObjectC2EP7QObject@Qt_6 6.1.2
 _ZN18QDBusVirtualObjectD0Ev@Qt_6 6.1.2
 _ZN18QDBusVirtualObjectD1Ev@Qt_6 6.1.2
 _ZN18QDBusVirtualObjectD2Ev@Qt_6 6.1.2
 _ZN19QDBusServiceWatcher11qt_metacallEN11QMetaObject4CallEiPPv@Qt_6 6.1.2
 _ZN19QDBusServiceWatcher11qt_metacastEPKc@Qt_6 6.1.2
 _ZN19QDBusServiceWatcher12setWatchModeE6QFlagsINS_13WatchModeFlagEE@Qt_6 6.1.2
 _ZN19QDBusServiceWatcher13setConnectionERK15QDBusConnection@Qt_6 6.1.2
 _ZN19QDBusServiceWatcher16staticMetaObjectE@Qt_6 6.1.2
 _ZN19QDBusServiceWatcher17addWatchedServiceERK7QString@Qt_6 6.1.2
 _ZN19QDBusServiceWatcher17bindableWatchModeEv@Qt_6 6.2.0
 _ZN19QDBusServiceWatcher17serviceRegisteredERK7QString@Qt_6 6.1.2
 _ZN19QDBusServiceWatcher18setWatchedServicesERK5QListI7QStringE@Qt_6 6.1.2
 _ZN19QDBusServiceWatcher19serviceOwnerChangedERK7QStringS2_S2_@Qt_6 6.1.2
 _ZN19QDBusServiceWatcher19serviceUnregisteredERK7QString@Qt_6 6.1.2
 _ZN19QDBusServiceWatcher20removeWatchedServiceERK7QString@Qt_6 6.1.2
 _ZN19QDBusServiceWatcher23bindableWatchedServicesEv@Qt_6 6.2.0
 _ZN19QDBusServiceWatcherC1EP7QObject@Qt_6 6.1.2
 _ZN19QDBusServiceWatcherC1ERK7QStringRK15QDBusConnection6QFlagsINS_13WatchModeFlagEEP7QObject@Qt_6 6.1.2
 _ZN19QDBusServiceWatcherC2EP7QObject@Qt_6 6.1.2
 _ZN19QDBusServiceWatcherC2ERK7QStringRK15QDBusConnection6QFlagsINS_13WatchModeFlagEEP7QObject@Qt_6 6.1.2
 _ZN19QDBusServiceWatcherD0Ev@Qt_6 6.1.2
 _ZN19QDBusServiceWatcherD1Ev@Qt_6 6.1.2
 _ZN19QDBusServiceWatcherD2Ev@Qt_6 6.1.2
 _ZN20QDBusAbstractAdaptor11qt_metacallEN11QMetaObject4CallEiPPv@Qt_6 6.1.2
 _ZN20QDBusAbstractAdaptor11qt_metacastEPKc@Qt_6 6.1.2
 _ZN20QDBusAbstractAdaptor16staticMetaObjectE@Qt_6 6.1.2
 _ZN20QDBusAbstractAdaptor19setAutoRelaySignalsEb@Qt_6 6.1.2
 _ZN20QDBusAbstractAdaptorC1EP7QObject@Qt_6 6.1.2
 _ZN20QDBusAbstractAdaptorC2EP7QObject@Qt_6 6.1.2
 _ZN20QDBusAbstractAdaptorD0Ev@Qt_6 6.1.2
 _ZN20QDBusAbstractAdaptorD1Ev@Qt_6 6.1.2
 _ZN20QDBusAbstractAdaptorD2Ev@Qt_6 6.1.2
 _ZN21QDBusPendingReplyBase12setMetaTypesEiPK9QMetaType@Qt_6 6.1.2
 _ZN21QDBusPendingReplyBase6assignERK12QDBusMessage@Qt_6 6.1.2
 _ZN21QDBusPendingReplyBase6assignERK16QDBusPendingCall@Qt_6 6.1.2
 _ZN21QDBusPendingReplyBaseC1Ev@Qt_6 6.1.2
 _ZN21QDBusPendingReplyBaseC2Ev@Qt_6 6.1.2
 _ZN21QDBusPendingReplyBaseD1Ev@Qt_6 6.1.2
 _ZN21QDBusPendingReplyBaseD2Ev@Qt_6 6.1.2
 _ZN22QDBusAbstractInterface10setTimeoutEi@Qt_6 6.1.2
 (subst)_ZN22QDBusAbstractInterface11doAsyncCallERK7QStringPK8QVariant{size_t}@Qt_6 6.1.2
 _ZN22QDBusAbstractInterface11qt_metacallEN11QMetaObject4CallEiPPv@Qt_6 6.1.2
 _ZN22QDBusAbstractInterface11qt_metacastEPKc@Qt_6 6.1.2
 _ZN22QDBusAbstractInterface13connectNotifyERK11QMetaMethod@Qt_6 6.1.2
 _ZN22QDBusAbstractInterface15internalPropSetEPKcRK8QVariant@Qt_6 6.1.2
 _ZN22QDBusAbstractInterface16callWithCallbackERK7QStringRK5QListI8QVariantEP7QObjectPKc@Qt_6 6.1.2
 _ZN22QDBusAbstractInterface16callWithCallbackERK7QStringRK5QListI8QVariantEP7QObjectPKcSB_@Qt_6 6.1.2
 _ZN22QDBusAbstractInterface16disconnectNotifyERK11QMetaMethod@Qt_6 6.1.2
 _ZN22QDBusAbstractInterface16staticMetaObjectE@Qt_6 6.1.2
 _ZN22QDBusAbstractInterface20callWithArgumentListEN5QDBus8CallModeERK7QStringRK5QListI8QVariantE@Qt_6 6.1.2
 _ZN22QDBusAbstractInterface25asyncCallWithArgumentListERK7QStringRK5QListI8QVariantE@Qt_6 6.1.2
 (subst)_ZN22QDBusAbstractInterface6doCallEN5QDBus8CallModeERK7QStringPK8QVariant{size_t}@Qt_6 6.1.2
 _ZN22QDBusAbstractInterfaceC1ER29QDBusAbstractInterfacePrivateP7QObject@Qt_6 6.1.2
 _ZN22QDBusAbstractInterfaceC1ERK7QStringS2_PKcRK15QDBusConnectionP7QObject@Qt_6 6.1.2
 _ZN22QDBusAbstractInterfaceC2ER29QDBusAbstractInterfacePrivateP7QObject@Qt_6 6.1.2
 _ZN22QDBusAbstractInterfaceC2ERK7QStringS2_PKcRK15QDBusConnectionP7QObject@Qt_6 6.1.2
 _ZN22QDBusAbstractInterfaceD0Ev@Qt_6 6.1.2
 _ZN22QDBusAbstractInterfaceD1Ev@Qt_6 6.1.2
 _ZN22QDBusAbstractInterfaceD2Ev@Qt_6 6.1.2
 _ZN23QDBusPendingCallWatcher11qt_metacallEN11QMetaObject4CallEiPPv@Qt_6 6.1.2
 _ZN23QDBusPendingCallWatcher11qt_metacastEPKc@Qt_6 6.1.2
 _ZN23QDBusPendingCallWatcher15waitForFinishedEv@Qt_6 6.1.2
 _ZN23QDBusPendingCallWatcher16staticMetaObjectE@Qt_6 6.1.2
 _ZN23QDBusPendingCallWatcher8finishedEPS_@Qt_6 6.1.2
 _ZN23QDBusPendingCallWatcherC1ERK16QDBusPendingCallP7QObject@Qt_6 6.1.2
 _ZN23QDBusPendingCallWatcherC2ERK16QDBusPendingCallP7QObject@Qt_6 6.1.2
 _ZN23QDBusPendingCallWatcherD0Ev@Qt_6 6.1.2
 _ZN23QDBusPendingCallWatcherD1Ev@Qt_6 6.1.2
 _ZN23QDBusPendingCallWatcherD2Ev@Qt_6 6.1.2
 _ZN23QDBusUnixFileDescriptor11isSupportedEv@Qt_6 6.1.2
 _ZN23QDBusUnixFileDescriptor17setFileDescriptorEi@Qt_6 6.1.2
 _ZN23QDBusUnixFileDescriptor18giveFileDescriptorEi@Qt_6 6.1.2
 _ZN23QDBusUnixFileDescriptor18takeFileDescriptorEv@Qt_6 6.1.2
 _ZN23QDBusUnixFileDescriptorC1ERKS_@Qt_6 6.1.2
 _ZN23QDBusUnixFileDescriptorC1Ei@Qt_6 6.1.2
 _ZN23QDBusUnixFileDescriptorC1Ev@Qt_6 6.1.2
 _ZN23QDBusUnixFileDescriptorC2ERKS_@Qt_6 6.1.2
 _ZN23QDBusUnixFileDescriptorC2Ei@Qt_6 6.1.2
 _ZN23QDBusUnixFileDescriptorC2Ev@Qt_6 6.1.2
 _ZN23QDBusUnixFileDescriptorD1Ev@Qt_6 6.1.2
 _ZN23QDBusUnixFileDescriptorD2Ev@Qt_6 6.1.2
 _ZN23QDBusUnixFileDescriptoraSERKS_@Qt_6 6.1.2
 _ZN24QDBusConnectionInterface11qt_metacallEN11QMetaObject4CallEiPPv@Qt_6 6.1.2
 _ZN24QDBusConnectionInterface11qt_metacastEPKc@Qt_6 6.1.2
 _ZN24QDBusConnectionInterface12NameAcquiredERK7QString@Qt_6 6.1.2
 _ZN24QDBusConnectionInterface12startServiceERK7QString@Qt_6 6.1.2
 _ZN24QDBusConnectionInterface13connectNotifyERK11QMetaMethod@Qt_6 6.1.2
 _ZN24QDBusConnectionInterface15registerServiceERK7QStringNS_19ServiceQueueOptionsENS_25ServiceReplacementOptionsE@Qt_6 6.1.2
 _ZN24QDBusConnectionInterface16NameOwnerChangedERK7QStringS2_S2_@Qt_6 6.1.2
 _ZN24QDBusConnectionInterface16disconnectNotifyERK11QMetaMethod@Qt_6 6.1.2
 _ZN24QDBusConnectionInterface16staticMetaObjectE@Qt_6 6.1.2
 _ZN24QDBusConnectionInterface17serviceRegisteredERK7QString@Qt_6 6.1.2
 _ZN24QDBusConnectionInterface17unregisterServiceERK7QString@Qt_6 6.1.2
 _ZN24QDBusConnectionInterface19serviceOwnerChangedERK7QStringS2_S2_@Qt_6 6.1.2
 _ZN24QDBusConnectionInterface19serviceUnregisteredERK7QString@Qt_6 6.1.2
 _ZN24QDBusConnectionInterface22callWithCallbackFailedERK10QDBusErrorRK12QDBusMessage@Qt_6 6.1.2
 _ZN24QDBusConnectionInterface8NameLostERK7QString@Qt_6 6.1.2
 _ZN24QDBusConnectionInterfaceC1ERK15QDBusConnectionP7QObject@Qt_6 6.1.2
 _ZN24QDBusConnectionInterfaceC2ERK15QDBusConnectionP7QObject@Qt_6 6.1.2
 _ZN24QDBusConnectionInterfaceD0Ev@Qt_6 6.1.2
 _ZN24QDBusConnectionInterfaceD1Ev@Qt_6 6.1.2
 _ZN24QDBusConnectionInterfaceD2Ev@Qt_6 6.1.2
 _ZN26QDBusAbstractInterfaceBase11qt_metacallEN11QMetaObject4CallEiPPv@Qt_6 6.1.2
 _ZN26QDBusAbstractInterfaceBaseC1ER29QDBusAbstractInterfacePrivateP7QObject@Qt_6 6.1.2
 _ZN26QDBusAbstractInterfaceBaseC2ER29QDBusAbstractInterfacePrivateP7QObject@Qt_6 6.1.2
 _ZNK10QDBusError4nameEv@Qt_6 6.1.2
 _ZNK10QDBusError4typeEv@Qt_6 6.1.2
 _ZNK10QDBusError7isValidEv@Qt_6 6.1.2
 _ZNK10QDBusError7messageEv@Qt_6 6.1.2
 _ZNK11QDBusServer10metaObjectEv@Qt_6 6.1.2
 _ZNK11QDBusServer11isConnectedEv@Qt_6 6.1.2
 _ZNK11QDBusServer32isAnonymousAuthenticationAllowedEv@Qt_6 6.1.2
 _ZNK11QDBusServer7addressEv@Qt_6 6.1.2
 _ZNK11QDBusServer9lastErrorEv@Qt_6 6.1.2
 _ZNK12QDBusContext10connectionEv@Qt_6 6.1.2
 _ZNK12QDBusContext14calledFromDBusEv@Qt_6 6.1.2
 _ZNK12QDBusContext14isDelayedReplyEv@Qt_6 6.1.2
 _ZNK12QDBusContext14sendErrorReplyEN10QDBusError9ErrorTypeERK7QString@Qt_6 6.1.2
 _ZNK12QDBusContext14sendErrorReplyERK7QStringS2_@Qt_6 6.1.2
 _ZNK12QDBusContext15setDelayedReplyEb@Qt_6 6.1.2
 _ZNK12QDBusContext7messageEv@Qt_6 6.1.2
 _ZNK12QDBusMessage11createReplyERK5QListI8QVariantE@Qt_6 6.1.2
 _ZNK12QDBusMessage11createReplyERK8QVariant@Qt_6 6.3.0
 _ZNK12QDBusMessage12errorMessageEv@Qt_6 6.1.2
 _ZNK12QDBusMessage14isDelayedReplyEv@Qt_6 6.1.2
 _ZNK12QDBusMessage15isReplyRequiredEv@Qt_6 6.1.2
 _ZNK12QDBusMessage15setDelayedReplyEb@Qt_6 6.1.2
 _ZNK12QDBusMessage16autoStartServiceEv@Qt_6 6.1.2
 _ZNK12QDBusMessage16createErrorReplyEN10QDBusError9ErrorTypeERK7QString@Qt_6 6.1.2
 _ZNK12QDBusMessage16createErrorReplyERK7QStringS2_@Qt_6 6.1.2
 _ZNK12QDBusMessage33isInteractiveAuthorizationAllowedEv@Qt_6 6.1.2
 _ZNK12QDBusMessage4pathEv@Qt_6 6.1.2
 _ZNK12QDBusMessage4typeEv@Qt_6 6.1.2
 _ZNK12QDBusMessage6memberEv@Qt_6 6.1.2
 _ZNK12QDBusMessage7serviceEv@Qt_6 6.1.2
 _ZNK12QDBusMessage9argumentsEv@Qt_6 6.1.2
 _ZNK12QDBusMessage9errorNameEv@Qt_6 6.1.2
 _ZNK12QDBusMessage9interfaceEv@Qt_6 6.1.2
 _ZNK12QDBusMessage9signatureEv@Qt_6 6.1.2
 _ZNK13QDBusArgument10beginArrayEv@Qt_6 6.1.2
 _ZNK13QDBusArgument11currentTypeEv@Qt_6 6.1.2
 _ZNK13QDBusArgument11endMapEntryEv@Qt_6 6.1.2
 _ZNK13QDBusArgument12endStructureEv@Qt_6 6.1.2
 _ZNK13QDBusArgument13beginMapEntryEv@Qt_6 6.1.2
 _ZNK13QDBusArgument14beginStructureEv@Qt_6 6.1.2
 _ZNK13QDBusArgument16currentSignatureEv@Qt_6 6.1.2
 _ZNK13QDBusArgument5atEndEv@Qt_6 6.1.2
 _ZNK13QDBusArgument6endMapEv@Qt_6 6.1.2
 _ZNK13QDBusArgument8beginMapEv@Qt_6 6.1.2
 _ZNK13QDBusArgument8endArrayEv@Qt_6 6.1.2
 _ZNK13QDBusArgument9asVariantEv@Qt_6 6.1.2
 _ZNK13QDBusArgumentrsER10QByteArray@Qt_6 6.1.2
 _ZNK13QDBusArgumentrsER12QDBusVariant@Qt_6 6.1.2
 _ZNK13QDBusArgumentrsER14QDBusSignature@Qt_6 6.1.2
 _ZNK13QDBusArgumentrsER15QDBusObjectPath@Qt_6 6.1.2
 _ZNK13QDBusArgumentrsER23QDBusUnixFileDescriptor@Qt_6 6.1.2
 _ZNK13QDBusArgumentrsER5QListI7QStringE@Qt_6 6.1.2
 _ZNK13QDBusArgumentrsER7QString@Qt_6 6.1.2
 _ZNK13QDBusArgumentrsERb@Qt_6 6.1.2
 _ZNK13QDBusArgumentrsERd@Qt_6 6.1.2
 _ZNK13QDBusArgumentrsERh@Qt_6 6.1.2
 _ZNK13QDBusArgumentrsERi@Qt_6 6.1.2
 _ZNK13QDBusArgumentrsERj@Qt_6 6.1.2
 _ZNK13QDBusArgumentrsERs@Qt_6 6.1.2
 _ZNK13QDBusArgumentrsERt@Qt_6 6.1.2
 _ZNK13QDBusArgumentrsERx@Qt_6 6.1.2
 _ZNK13QDBusArgumentrsERy@Qt_6 6.1.2
 _ZNK14QDBusInterface10metaObjectEv@Qt_6 6.1.2
 _ZNK15QDBusConnection11baseServiceEv@Qt_6 6.1.2
 _ZNK15QDBusConnection11isConnectedEv@Qt_6 6.1.2
 _ZNK15QDBusConnection15internalPointerEv@Qt_6 6.1.2
 _ZNK15QDBusConnection16callWithCallbackERK12QDBusMessageP7QObjectPKcS6_i@Qt_6 6.1.2
 _ZNK15QDBusConnection16callWithCallbackERK12QDBusMessageP7QObjectPKci@Qt_6 6.1.2
 _ZNK15QDBusConnection18objectRegisteredAtERK7QString@Qt_6 6.1.2
 _ZNK15QDBusConnection22connectionCapabilitiesEv@Qt_6 6.1.2
 _ZNK15QDBusConnection4callERK12QDBusMessageN5QDBus8CallModeEi@Qt_6 6.1.2
 _ZNK15QDBusConnection4nameEv@Qt_6 6.1.2
 _ZNK15QDBusConnection4sendERK12QDBusMessage@Qt_6 6.1.2
 _ZNK15QDBusConnection9asyncCallERK12QDBusMessagei@Qt_6 6.1.2
 _ZNK15QDBusConnection9interfaceEv@Qt_6 6.1.2
 _ZNK15QDBusConnection9lastErrorEv@Qt_6 6.1.2
 _ZNK15QDBusObjectPathcv8QVariantEv@Qt_6 6.1.2
 _ZNK16QDBusPendingCall10isFinishedEv@Qt_6 6.1.2
 _ZNK16QDBusPendingCall5errorEv@Qt_6 6.1.2
 _ZNK16QDBusPendingCall5replyEv@Qt_6 6.1.2
 _ZNK16QDBusPendingCall7isErrorEv@Qt_6 6.1.2
 _ZNK16QDBusPendingCall7isValidEv@Qt_6 6.1.2
 _ZNK18QDBusVirtualObject10metaObjectEv@Qt_6 6.1.2
 _ZNK19QDBusServiceWatcher10connectionEv@Qt_6 6.1.2
 _ZNK19QDBusServiceWatcher10metaObjectEv@Qt_6 6.1.2
 _ZNK19QDBusServiceWatcher15watchedServicesEv@Qt_6 6.1.2
 _ZNK19QDBusServiceWatcher9watchModeEv@Qt_6 6.1.2
 _ZNK20QDBusAbstractAdaptor10metaObjectEv@Qt_6 6.1.2
 _ZNK20QDBusAbstractAdaptor16autoRelaySignalsEv@Qt_6 6.1.2
 _ZNK21QDBusPendingReplyBase10argumentAtEi@Qt_6 6.1.2
 _ZNK22QDBusAbstractInterface10connectionEv@Qt_6 6.1.2
 _ZNK22QDBusAbstractInterface10metaObjectEv@Qt_6 6.1.2
 _ZNK22QDBusAbstractInterface15internalPropGetEPKc@Qt_6 6.1.2
 _ZNK22QDBusAbstractInterface17internalConstCallEN5QDBus8CallModeERK7QStringRK5QListI8QVariantE@Qt_6 6.1.2
 _ZNK22QDBusAbstractInterface4pathEv@Qt_6 6.1.2
 _ZNK22QDBusAbstractInterface7isValidEv@Qt_6 6.1.2
 _ZNK22QDBusAbstractInterface7serviceEv@Qt_6 6.1.2
 _ZNK22QDBusAbstractInterface7timeoutEv@Qt_6 6.1.2
 _ZNK22QDBusAbstractInterface9interfaceEv@Qt_6 6.1.2
 _ZNK22QDBusAbstractInterface9lastErrorEv@Qt_6 6.1.2
 _ZNK23QDBusPendingCallWatcher10metaObjectEv@Qt_6 6.1.2
 _ZNK23QDBusUnixFileDescriptor14fileDescriptorEv@Qt_6 6.1.2
 _ZNK23QDBusUnixFileDescriptor7isValidEv@Qt_6 6.1.2
 _ZNK24QDBusConnectionInterface10metaObjectEv@Qt_6 6.1.2
 _ZNK24QDBusConnectionInterface10servicePidERK7QString@Qt_6 6.1.2
 _ZNK24QDBusConnectionInterface10serviceUidERK7QString@Qt_6 6.1.2
 _ZNK24QDBusConnectionInterface12serviceOwnerERK7QString@Qt_6 6.1.2
 _ZNK24QDBusConnectionInterface19isServiceRegisteredERK7QString@Qt_6 6.1.2
 _ZNK24QDBusConnectionInterface22registeredServiceNamesEv@Qt_6 6.1.2
 _ZNK24QDBusConnectionInterface23activatableServiceNamesEv@Qt_6 6.1.2
 _ZSt19piecewise_construct@Qt_6 6.4.1
 _ZTI11QDBusServer@Qt_6 6.1.2
 _ZTI14QDBusInterface@Qt_6 6.1.2
 _ZTI16QDBusPendingCall@Qt_6 6.1.2
 _ZTI18QDBusVirtualObject@Qt_6 6.1.2
 _ZTI19QDBusServiceWatcher@Qt_6 6.1.2
 _ZTI20QDBusAbstractAdaptor@Qt_6 6.1.2
 _ZTI22QDBusAbstractInterface@Qt_6 6.1.2
 _ZTI23QDBusPendingCallWatcher@Qt_6 6.1.2
 _ZTI24QDBusConnectionInterface@Qt_6 6.1.2
 _ZTI26QDBusAbstractInterfaceBase@Qt_6 6.1.2
 _ZTIZN9QMetaType17registerConverterI4QMapI7QStringS2_E9QIterableI16QMetaAssociationEN9QtPrivate34QAssociativeIterableConvertFunctorIS3_EEEEbT1_EUlPKvPvE_@Qt_6 6.1.2
 _ZTIZN9QMetaType17registerConverterI5QListI14QDBusSignatureE9QIterableI13QMetaSequenceEN9QtPrivate33QSequentialIterableConvertFunctorIS3_EEEEbT1_EUlPKvPvE_@Qt_6 6.1.2
 _ZTIZN9QMetaType17registerConverterI5QListI15QDBusObjectPathE9QIterableI13QMetaSequenceEN9QtPrivate33QSequentialIterableConvertFunctorIS3_EEEEbT1_EUlPKvPvE_@Qt_6 6.1.2
 _ZTIZN9QMetaType17registerConverterI5QListI23QDBusUnixFileDescriptorE9QIterableI13QMetaSequenceEN9QtPrivate33QSequentialIterableConvertFunctorIS3_EEEEbT1_EUlPKvPvE_@Qt_6 6.1.2
 _ZTIZN9QMetaType17registerConverterI5QListIbE9QIterableI13QMetaSequenceEN9QtPrivate33QSequentialIterableConvertFunctorIS2_EEEEbT1_EUlPKvPvE_@Qt_6 6.1.2
 _ZTIZN9QMetaType17registerConverterI5QListIdE9QIterableI13QMetaSequenceEN9QtPrivate33QSequentialIterableConvertFunctorIS2_EEEEbT1_EUlPKvPvE_@Qt_6 6.1.2
 _ZTIZN9QMetaType17registerConverterI5QListIiE9QIterableI13QMetaSequenceEN9QtPrivate33QSequentialIterableConvertFunctorIS2_EEEEbT1_EUlPKvPvE_@Qt_6 6.1.2
 _ZTIZN9QMetaType17registerConverterI5QListIjE9QIterableI13QMetaSequenceEN9QtPrivate33QSequentialIterableConvertFunctorIS2_EEEEbT1_EUlPKvPvE_@Qt_6 6.1.2
 _ZTIZN9QMetaType17registerConverterI5QListIsE9QIterableI13QMetaSequenceEN9QtPrivate33QSequentialIterableConvertFunctorIS2_EEEEbT1_EUlPKvPvE_@Qt_6 6.1.2
 _ZTIZN9QMetaType17registerConverterI5QListItE9QIterableI13QMetaSequenceEN9QtPrivate33QSequentialIterableConvertFunctorIS2_EEEEbT1_EUlPKvPvE_@Qt_6 6.1.2
 _ZTIZN9QMetaType17registerConverterI5QListIxE9QIterableI13QMetaSequenceEN9QtPrivate33QSequentialIterableConvertFunctorIS2_EEEEbT1_EUlPKvPvE_@Qt_6 6.1.2
 _ZTIZN9QMetaType17registerConverterI5QListIyE9QIterableI13QMetaSequenceEN9QtPrivate33QSequentialIterableConvertFunctorIS2_EEEEbT1_EUlPKvPvE_@Qt_6 6.1.2
 _ZTIZN9QMetaType19registerMutableViewI4QMapI7QStringS2_E9QIterableI16QMetaAssociationEN9QtPrivate38QAssociativeIterableMutableViewFunctorIS3_EEEEbT1_EUlPvSB_E_@Qt_6 6.1.2
 _ZTIZN9QMetaType19registerMutableViewI5QListI14QDBusSignatureE9QIterableI13QMetaSequenceEN9QtPrivate37QSequentialIterableMutableViewFunctorIS3_EEEEbT1_EUlPvSB_E_@Qt_6 6.1.2
 _ZTIZN9QMetaType19registerMutableViewI5QListI15QDBusObjectPathE9QIterableI13QMetaSequenceEN9QtPrivate37QSequentialIterableMutableViewFunctorIS3_EEEEbT1_EUlPvSB_E_@Qt_6 6.1.2
 _ZTIZN9QMetaType19registerMutableViewI5QListI23QDBusUnixFileDescriptorE9QIterableI13QMetaSequenceEN9QtPrivate37QSequentialIterableMutableViewFunctorIS3_EEEEbT1_EUlPvSB_E_@Qt_6 6.1.2
 _ZTIZN9QMetaType19registerMutableViewI5QListIbE9QIterableI13QMetaSequenceEN9QtPrivate37QSequentialIterableMutableViewFunctorIS2_EEEEbT1_EUlPvSA_E_@Qt_6 6.1.2
 _ZTIZN9QMetaType19registerMutableViewI5QListIdE9QIterableI13QMetaSequenceEN9QtPrivate37QSequentialIterableMutableViewFunctorIS2_EEEEbT1_EUlPvSA_E_@Qt_6 6.1.2
 _ZTIZN9QMetaType19registerMutableViewI5QListIiE9QIterableI13QMetaSequenceEN9QtPrivate37QSequentialIterableMutableViewFunctorIS2_EEEEbT1_EUlPvSA_E_@Qt_6 6.1.2
 _ZTIZN9QMetaType19registerMutableViewI5QListIjE9QIterableI13QMetaSequenceEN9QtPrivate37QSequentialIterableMutableViewFunctorIS2_EEEEbT1_EUlPvSA_E_@Qt_6 6.1.2
 _ZTIZN9QMetaType19registerMutableViewI5QListIsE9QIterableI13QMetaSequenceEN9QtPrivate37QSequentialIterableMutableViewFunctorIS2_EEEEbT1_EUlPvSA_E_@Qt_6 6.1.2
 _ZTIZN9QMetaType19registerMutableViewI5QListItE9QIterableI13QMetaSequenceEN9QtPrivate37QSequentialIterableMutableViewFunctorIS2_EEEEbT1_EUlPvSA_E_@Qt_6 6.1.2
 _ZTIZN9QMetaType19registerMutableViewI5QListIxE9QIterableI13QMetaSequenceEN9QtPrivate37QSequentialIterableMutableViewFunctorIS2_EEEEbT1_EUlPvSA_E_@Qt_6 6.1.2
 _ZTIZN9QMetaType19registerMutableViewI5QListIyE9QIterableI13QMetaSequenceEN9QtPrivate37QSequentialIterableMutableViewFunctorIS2_EEEEbT1_EUlPvSA_E_@Qt_6 6.1.2
 _ZTS11QDBusServer@Qt_6 6.1.2
 _ZTS14QDBusInterface@Qt_6 6.1.2
 _ZTS16QDBusPendingCall@Qt_6 6.1.2
 _ZTS18QDBusVirtualObject@Qt_6 6.1.2
 _ZTS19QDBusServiceWatcher@Qt_6 6.1.2
 _ZTS20QDBusAbstractAdaptor@Qt_6 6.1.2
 _ZTS22QDBusAbstractInterface@Qt_6 6.1.2
 _ZTS23QDBusPendingCallWatcher@Qt_6 6.1.2
 _ZTS24QDBusConnectionInterface@Qt_6 6.1.2
 _ZTS26QDBusAbstractInterfaceBase@Qt_6 6.1.2
 _ZTSZN9QMetaType17registerConverterI4QMapI7QStringS2_E9QIterableI16QMetaAssociationEN9QtPrivate34QAssociativeIterableConvertFunctorIS3_EEEEbT1_EUlPKvPvE_@Qt_6 6.1.2
 _ZTSZN9QMetaType17registerConverterI5QListI14QDBusSignatureE9QIterableI13QMetaSequenceEN9QtPrivate33QSequentialIterableConvertFunctorIS3_EEEEbT1_EUlPKvPvE_@Qt_6 6.1.2
 _ZTSZN9QMetaType17registerConverterI5QListI15QDBusObjectPathE9QIterableI13QMetaSequenceEN9QtPrivate33QSequentialIterableConvertFunctorIS3_EEEEbT1_EUlPKvPvE_@Qt_6 6.1.2
 _ZTSZN9QMetaType17registerConverterI5QListI23QDBusUnixFileDescriptorE9QIterableI13QMetaSequenceEN9QtPrivate33QSequentialIterableConvertFunctorIS3_EEEEbT1_EUlPKvPvE_@Qt_6 6.1.2
 _ZTSZN9QMetaType17registerConverterI5QListIbE9QIterableI13QMetaSequenceEN9QtPrivate33QSequentialIterableConvertFunctorIS2_EEEEbT1_EUlPKvPvE_@Qt_6 6.1.2
 _ZTSZN9QMetaType17registerConverterI5QListIdE9QIterableI13QMetaSequenceEN9QtPrivate33QSequentialIterableConvertFunctorIS2_EEEEbT1_EUlPKvPvE_@Qt_6 6.1.2
 _ZTSZN9QMetaType17registerConverterI5QListIiE9QIterableI13QMetaSequenceEN9QtPrivate33QSequentialIterableConvertFunctorIS2_EEEEbT1_EUlPKvPvE_@Qt_6 6.1.2
 _ZTSZN9QMetaType17registerConverterI5QListIjE9QIterableI13QMetaSequenceEN9QtPrivate33QSequentialIterableConvertFunctorIS2_EEEEbT1_EUlPKvPvE_@Qt_6 6.1.2
 _ZTSZN9QMetaType17registerConverterI5QListIsE9QIterableI13QMetaSequenceEN9QtPrivate33QSequentialIterableConvertFunctorIS2_EEEEbT1_EUlPKvPvE_@Qt_6 6.1.2
 _ZTSZN9QMetaType17registerConverterI5QListItE9QIterableI13QMetaSequenceEN9QtPrivate33QSequentialIterableConvertFunctorIS2_EEEEbT1_EUlPKvPvE_@Qt_6 6.1.2
 _ZTSZN9QMetaType17registerConverterI5QListIxE9QIterableI13QMetaSequenceEN9QtPrivate33QSequentialIterableConvertFunctorIS2_EEEEbT1_EUlPKvPvE_@Qt_6 6.1.2
 _ZTSZN9QMetaType17registerConverterI5QListIyE9QIterableI13QMetaSequenceEN9QtPrivate33QSequentialIterableConvertFunctorIS2_EEEEbT1_EUlPKvPvE_@Qt_6 6.1.2
 _ZTSZN9QMetaType19registerMutableViewI4QMapI7QStringS2_E9QIterableI16QMetaAssociationEN9QtPrivate38QAssociativeIterableMutableViewFunctorIS3_EEEEbT1_EUlPvSB_E_@Qt_6 6.1.2
 _ZTSZN9QMetaType19registerMutableViewI5QListI14QDBusSignatureE9QIterableI13QMetaSequenceEN9QtPrivate37QSequentialIterableMutableViewFunctorIS3_EEEEbT1_EUlPvSB_E_@Qt_6 6.1.2
 _ZTSZN9QMetaType19registerMutableViewI5QListI15QDBusObjectPathE9QIterableI13QMetaSequenceEN9QtPrivate37QSequentialIterableMutableViewFunctorIS3_EEEEbT1_EUlPvSB_E_@Qt_6 6.1.2
 _ZTSZN9QMetaType19registerMutableViewI5QListI23QDBusUnixFileDescriptorE9QIterableI13QMetaSequenceEN9QtPrivate37QSequentialIterableMutableViewFunctorIS3_EEEEbT1_EUlPvSB_E_@Qt_6 6.1.2
 _ZTSZN9QMetaType19registerMutableViewI5QListIbE9QIterableI13QMetaSequenceEN9QtPrivate37QSequentialIterableMutableViewFunctorIS2_EEEEbT1_EUlPvSA_E_@Qt_6 6.1.2
 _ZTSZN9QMetaType19registerMutableViewI5QListIdE9QIterableI13QMetaSequenceEN9QtPrivate37QSequentialIterableMutableViewFunctorIS2_EEEEbT1_EUlPvSA_E_@Qt_6 6.1.2
 _ZTSZN9QMetaType19registerMutableViewI5QListIiE9QIterableI13QMetaSequenceEN9QtPrivate37QSequentialIterableMutableViewFunctorIS2_EEEEbT1_EUlPvSA_E_@Qt_6 6.1.2
 _ZTSZN9QMetaType19registerMutableViewI5QListIjE9QIterableI13QMetaSequenceEN9QtPrivate37QSequentialIterableMutableViewFunctorIS2_EEEEbT1_EUlPvSA_E_@Qt_6 6.1.2
 _ZTSZN9QMetaType19registerMutableViewI5QListIsE9QIterableI13QMetaSequenceEN9QtPrivate37QSequentialIterableMutableViewFunctorIS2_EEEEbT1_EUlPvSA_E_@Qt_6 6.1.2
 _ZTSZN9QMetaType19registerMutableViewI5QListItE9QIterableI13QMetaSequenceEN9QtPrivate37QSequentialIterableMutableViewFunctorIS2_EEEEbT1_EUlPvSA_E_@Qt_6 6.1.2
 _ZTSZN9QMetaType19registerMutableViewI5QListIxE9QIterableI13QMetaSequenceEN9QtPrivate37QSequentialIterableMutableViewFunctorIS2_EEEEbT1_EUlPvSA_E_@Qt_6 6.1.2
 _ZTSZN9QMetaType19registerMutableViewI5QListIyE9QIterableI13QMetaSequenceEN9QtPrivate37QSequentialIterableMutableViewFunctorIS2_EEEEbT1_EUlPvSA_E_@Qt_6 6.1.2
 _ZTV11QDBusServer@Qt_6 6.1.2
 _ZTV14QDBusInterface@Qt_6 6.1.2
 _ZTV18QDBusVirtualObject@Qt_6 6.1.2
 _ZTV19QDBusServiceWatcher@Qt_6 6.1.2
 _ZTV20QDBusAbstractAdaptor@Qt_6 6.1.2
 _ZTV22QDBusAbstractInterface@Qt_6 6.1.2
 _ZTV23QDBusPendingCallWatcher@Qt_6 6.1.2
 _ZTV24QDBusConnectionInterface@Qt_6 6.1.2
 _ZTV26QDBusAbstractInterfaceBase@Qt_6 6.1.2
 (optional=templinst)_ZZN9QMetaType21registerConverterImplI4QMapI7QStringS2_E9QIterableI16QMetaAssociationEEEbSt8functionIFbPKvPvEES_S_E10unregister@Qt_6 6.2.0
 (optional=templinst)_ZZN9QMetaType21registerConverterImplI5QListI14QDBusSignatureE9QIterableI13QMetaSequenceEEEbSt8functionIFbPKvPvEES_S_E10unregister@Qt_6 6.2.0
 (optional=templinst)_ZZN9QMetaType21registerConverterImplI5QListI15QDBusObjectPathE9QIterableI13QMetaSequenceEEEbSt8functionIFbPKvPvEES_S_E10unregister@Qt_6 6.2.0
 (optional=templinst)_ZZN9QMetaType21registerConverterImplI5QListI23QDBusUnixFileDescriptorE9QIterableI13QMetaSequenceEEEbSt8functionIFbPKvPvEES_S_E10unregister@Qt_6 6.2.0
 (optional=templinst)_ZZN9QMetaType21registerConverterImplI5QListIbE9QIterableI13QMetaSequenceEEEbSt8functionIFbPKvPvEES_S_E10unregister@Qt_6 6.2.0
 (optional=templinst)_ZZN9QMetaType21registerConverterImplI5QListIdE9QIterableI13QMetaSequenceEEEbSt8functionIFbPKvPvEES_S_E10unregister@Qt_6 6.2.0
 (optional=templinst)_ZZN9QMetaType21registerConverterImplI5QListIiE9QIterableI13QMetaSequenceEEEbSt8functionIFbPKvPvEES_S_E10unregister@Qt_6 6.2.0
 (optional=templinst)_ZZN9QMetaType21registerConverterImplI5QListIjE9QIterableI13QMetaSequenceEEEbSt8functionIFbPKvPvEES_S_E10unregister@Qt_6 6.2.0
 (optional=templinst)_ZZN9QMetaType21registerConverterImplI5QListIsE9QIterableI13QMetaSequenceEEEbSt8functionIFbPKvPvEES_S_E10unregister@Qt_6 6.2.0
 (optional=templinst)_ZZN9QMetaType21registerConverterImplI5QListItE9QIterableI13QMetaSequenceEEEbSt8functionIFbPKvPvEES_S_E10unregister@Qt_6 6.2.0
 (optional=templinst)_ZZN9QMetaType21registerConverterImplI5QListIxE9QIterableI13QMetaSequenceEEEbSt8functionIFbPKvPvEES_S_E10unregister@Qt_6 6.2.0
 (optional=templinst)_ZZN9QMetaType21registerConverterImplI5QListIyE9QIterableI13QMetaSequenceEEEbSt8functionIFbPKvPvEES_S_E10unregister@Qt_6 6.2.0
 (optional=templinst)_ZZN9QMetaType23registerMutableViewImplI4QMapI7QStringS2_E9QIterableI16QMetaAssociationEEEbSt8functionIFbPvS8_EES_S_E10unregister@Qt_6 6.2.0
 (optional=templinst)_ZZN9QMetaType23registerMutableViewImplI5QListI14QDBusSignatureE9QIterableI13QMetaSequenceEEEbSt8functionIFbPvS8_EES_S_E10unregister@Qt_6 6.2.0
 (optional=templinst)_ZZN9QMetaType23registerMutableViewImplI5QListI15QDBusObjectPathE9QIterableI13QMetaSequenceEEEbSt8functionIFbPvS8_EES_S_E10unregister@Qt_6 6.2.0
 (optional=templinst)_ZZN9QMetaType23registerMutableViewImplI5QListI23QDBusUnixFileDescriptorE9QIterableI13QMetaSequenceEEEbSt8functionIFbPvS8_EES_S_E10unregister@Qt_6 6.2.0
 (optional=templinst)_ZZN9QMetaType23registerMutableViewImplI5QListIbE9QIterableI13QMetaSequenceEEEbSt8functionIFbPvS7_EES_S_E10unregister@Qt_6 6.2.0
 (optional=templinst)_ZZN9QMetaType23registerMutableViewImplI5QListIdE9QIterableI13QMetaSequenceEEEbSt8functionIFbPvS7_EES_S_E10unregister@Qt_6 6.2.0
 (optional=templinst)_ZZN9QMetaType23registerMutableViewImplI5QListIiE9QIterableI13QMetaSequenceEEEbSt8functionIFbPvS7_EES_S_E10unregister@Qt_6 6.2.0
 (optional=templinst)_ZZN9QMetaType23registerMutableViewImplI5QListIjE9QIterableI13QMetaSequenceEEEbSt8functionIFbPvS7_EES_S_E10unregister@Qt_6 6.2.0
 (optional=templinst)_ZZN9QMetaType23registerMutableViewImplI5QListIsE9QIterableI13QMetaSequenceEEEbSt8functionIFbPvS7_EES_S_E10unregister@Qt_6 6.2.0
 (optional=templinst)_ZZN9QMetaType23registerMutableViewImplI5QListItE9QIterableI13QMetaSequenceEEEbSt8functionIFbPvS7_EES_S_E10unregister@Qt_6 6.2.0
 (optional=templinst)_ZZN9QMetaType23registerMutableViewImplI5QListIxE9QIterableI13QMetaSequenceEEEbSt8functionIFbPvS7_EES_S_E10unregister@Qt_6 6.2.0
 (optional=templinst)_ZZN9QMetaType23registerMutableViewImplI5QListIyE9QIterableI13QMetaSequenceEEEbSt8functionIFbPvS7_EES_S_E10unregister@Qt_6 6.2.0
 _Zls6QDebugRK10QDBusError@Qt_6 6.1.2
 _Zls6QDebugRK12QDBusMessage@Qt_6 6.1.2
 _ZlsR13QDBusArgumentRK5QDate@Qt_6 6.1.2
 _ZlsR13QDBusArgumentRK5QLine@Qt_6 6.1.2
 _ZlsR13QDBusArgumentRK5QRect@Qt_6 6.1.2
 _ZlsR13QDBusArgumentRK5QSize@Qt_6 6.1.2
 _ZlsR13QDBusArgumentRK5QTime@Qt_6 6.1.2
 _ZlsR13QDBusArgumentRK6QLineF@Qt_6 6.1.2
 _ZlsR13QDBusArgumentRK6QPoint@Qt_6 6.1.2
 _ZlsR13QDBusArgumentRK6QRectF@Qt_6 6.1.2
 _ZlsR13QDBusArgumentRK6QSizeF@Qt_6 6.1.2
 _ZlsR13QDBusArgumentRK7QPointF@Qt_6 6.1.2
 _ZlsR13QDBusArgumentRK9QDateTime@Qt_6 6.1.2
 _ZrsRK13QDBusArgumentR5QDate@Qt_6 6.1.2
 _ZrsRK13QDBusArgumentR5QLine@Qt_6 6.1.2
 _ZrsRK13QDBusArgumentR5QRect@Qt_6 6.1.2
 _ZrsRK13QDBusArgumentR5QSize@Qt_6 6.1.2
 _ZrsRK13QDBusArgumentR5QTime@Qt_6 6.1.2
 _ZrsRK13QDBusArgumentR6QLineF@Qt_6 6.1.2
 _ZrsRK13QDBusArgumentR6QPoint@Qt_6 6.1.2
 _ZrsRK13QDBusArgumentR6QRectF@Qt_6 6.1.2
 _ZrsRK13QDBusArgumentR6QSizeF@Qt_6 6.1.2
 _ZrsRK13QDBusArgumentR7QPointF@Qt_6 6.1.2
 _ZrsRK13QDBusArgumentR8QVariant@Qt_6 6.1.2
 _ZrsRK13QDBusArgumentR9QDateTime@Qt_6 6.1.2
 qt_dbus_metaobject_skip_annotations@Qt_6 6.1.2
