# SymbolsHelper-Confirmed: 6.4.2 amd64 arm64 armel armhf hurd-i386 i386 mips64el mipsel powerpc ppc64 ppc64el riscv64 s390x sparc64
libQt6Core.so.6 libqt6core6 #MINVER#
| libqt6core6 #MINVER#, qt6-base-abi (= 6.4.2)
* Build-Depends-Package: qt6-base-dev
 Qt_6.0@Qt_6.0 6.1.2
 Qt_6.1@Qt_6.1 6.1.2
 Qt_6.2@Qt_6.2 6.2.0
 Qt_6.3@Qt_6.3 6.3.0
 Qt_6.4@Qt_6.4 6.4.0
 Qt_6@Qt_6 6.1.2
 (symver)Qt_6_PRIVATE_API 0 1
 (subst|arch=any-amd64 any-i386)_Z10qRandomCpuPv{qptrdiff}@Qt_6 6.1.2
 _Z10qTerminatev@Qt_6 6.1.2
 (arch=sh4)_Z10qvsnprintfPcjPKc13__va_list_tag@Qt_6 6.1.2
 (arch=alpha)_Z10qvsnprintfPcmPKc13__va_list_tag@Qt_6 6.1.2
 (arch=amd64 powerpc s390x|subst)_Z10qvsnprintfPc{size_t}PKcP13__va_list_tag@Qt_6 6.1.2
 (arch=hppa ia64 m68k mips64el mipsel riscv64 sparc64|subst)_Z10qvsnprintfPc{size_t}PKcPv@Qt_6 6.1.2
 (arch=hurd-i386 i386 ppc64 ppc64el|subst)_Z10qvsnprintfPc{size_t}PKcS_@Qt_6 6.1.2
 (arch=arm64 armel armhf|subst)_Z10qvsnprintfPc{size_t}PKcSt9__va_list@Qt_6 6.1.2
 _Z11qFpClassifyd@Qt_6 6.1.2
 _Z11qFpClassifyf@Qt_6 6.1.2
 (subst)_Z11qUncompressPKh{qptrdiff}@Qt_6 6.1.2
 _Z11qt_assert_xPKcS0_S0_i@Qt_6 6.1.2
 _Z11qt_int_sqrtj@Qt_6 6.1.2
 _Z12qFreeAlignedPv@Qt_6 6.1.2
 _Z12qSharedBuildv@Qt_6 6.1.2
 _Z12qt_safe_pollP6pollfdmPK8timespec@Qt_6 6.1.2
 _Z13qErrnoWarningPKcz@Qt_6 6.1.2
 _Z13qErrnoWarningiPKcz@Qt_6 6.1.2
 _Z13qFlagLocationPKc@Qt_6 6.1.2
 _Z14qAddPreRoutinePFvvE@Qt_6 6.1.2
 _Z14qDecodeDataUrlRK4QUrlR7QStringR10QByteArray@Qt_6 6.1.2
 _Z14qFloatDistancedd@Qt_6 6.1.2
 _Z14qFloatDistanceff@Qt_6 6.1.2
 (subst)_Z14qMallocAligned{size_t}{size_t}@Qt_6 6.1.2
 _Z14qt_cbor_tag_id8QCborTag@Qt_6 6.1.2
 (subst)_Z14qt_from_latin1PDsPKc{size_t}@Qt_6 6.1.2
 _Z15qAddPostRoutinePFvvE@Qt_6 6.1.2
 (subst)_Z15qFloatToFloat16P8qfloat16PKf{qptrdiff}@Qt_6 6.1.2
 (subst)_Z15qReallocAlignedPv{size_t}{size_t}{size_t}@Qt_6 6.1.2
 _Z15qt_error_stringi@Qt_6 6.1.2
 _Z16qGlobalQHashSeedv@Qt_6 6.1.2
 _Z16qt_check_pointerPKci@Qt_6 6.1.2
 (subst)_Z17qFloatFromFloat16PfPK8qfloat16{qptrdiff}@Qt_6 6.1.2
 _Z17qFormatLogMessage9QtMsgTypeRK18QMessageLogContextRK7QString@Qt_6 6.1.2
 _Z17qt_message_output9QtMsgTypeRK18QMessageLogContextRK7QString@Qt_6 6.1.2
 _Z18qRemovePostRoutinePFvvE@Qt_6 6.1.2
 _Z18qSetMessagePatternRK7QString@Qt_6 6.1.2
 (subst)_Z19qCalculateBlockSize{qptrdiff}{qptrdiff}{qptrdiff}@Qt_6 6.1.2
 _Z19qSetGlobalQHashSeedi@Qt_6 6.1.2
 _Z20processOpenModeFlags6QFlagsIN13QIODeviceBase12OpenModeFlagEE@Qt_6 6.1.2
 _Z20qEnvironmentVariablePKc@Qt_6 6.1.2
 _Z20qEnvironmentVariablePKcRK7QString@Qt_6 6.1.2
 _Z20qt_qFindChild_helperPK7QObjectRK7QStringRK11QMetaObject6QFlagsIN2Qt15FindChildOptionEE@Qt_6 6.1.2
 _Z21qDeleteInEventHandlerP7QObject@Qt_6 6.1.2
 _Z21qMetaTypeTypeInternalPKc@Qt_6 6.1.2
 _Z21qRegisterResourceDataiPKhS0_S0_@Qt_6 6.1.2
 _Z21qt_call_post_routinesv@Qt_6 6.1.2
 _Z21qt_cbor_simpletype_id15QCborSimpleType@Qt_6 6.1.2
 _Z22qInstallMessageHandlerPFv9QtMsgTypeRK18QMessageLogContextRK7QStringE@Qt_6 6.1.2
 _Z23qUnregisterResourceDataiPKhS0_S0_@Qt_6 6.1.2
 _Z23qt_qFindChildren_helperPK7QObjectRK11QMetaObjectP5QListIPvE6QFlagsIN2Qt15FindChildOptionEE@Qt_6 6.3.0
 _Z23qt_qFindChildren_helperPK7QObjectRK18QRegularExpressionRK11QMetaObjectP5QListIPvE6QFlagsIN2Qt15FindChildOptionEE@Qt_6 6.1.2
 _Z23qt_qFindChildren_helperPK7QObjectRK7QStringRK11QMetaObjectP5QListIPvE6QFlagsIN2Qt15FindChildOptionEE@Qt_6 6.1.2
 (arch=linux-any)_Z24qt_linux_find_symbol_sysPKc@Qt_6 6.1.2
 _Z24qt_subtract_from_timeoutii@Qt_6 6.1.2
 _Z25qEnvironmentVariableIsSetPKc@Qt_6 6.1.2
 (subst)_Z26qCalculateGrowingBlockSize{qptrdiff}{qptrdiff}{qptrdiff}@Qt_6 6.1.2
 _Z26qt_QMetaEnum_debugOperatorR6QDebugxPK11QMetaObjectPKc@Qt_6 6.1.2
 _Z27qEnvironmentVariableIsEmptyPKc@Qt_6 6.1.2
 _Z28qEnvironmentVariableIntValuePKcPb@Qt_6 6.1.2
 _Z29qRegisterStaticPluginFunction13QStaticPlugin@Qt_6 6.1.2
 _Z30qt_QMetaEnum_flagDebugOperatorR6QDebugyPK11QMetaObjectPKc@Qt_6 6.1.2
 (subst)_Z30qt_QMetaEnum_flagDebugOperatorR6QDebug{size_t}i@Qt_6 6.1.2
 _Z32qt_register_signal_spy_callbacksP21QSignalSpyCallbackSet@Qt_6 6.1.2
 _Z36qRegisterNormalizedMetaType_QCborTagRK10QByteArray@Qt_6 6.3.0
 _Z36qRegisterNormalizedMetaType_qfloat16RK10QByteArray@Qt_6 6.3.0
 _Z37qRegisterNormalizedMetaType_QFileInfoRK10QByteArray@Qt_6 6.3.0
 _Z40qRegisterNormalizedMetaType_QStorageInfoRK10QByteArray@Qt_6 6.3.0
 _Z41qRegisterNormalizedMetaType_QTypeRevisionRK10QByteArray@Qt_6 6.3.0
 _Z42qRegisterNormalizedMetaType_QDeadlineTimerRK10QByteArray@Qt_6 6.3.0
 _Z42qRegisterNormalizedMetaType_QItemSelectionRK10QByteArray@Qt_6 6.3.0
 _Z42qRegisterNormalizedMetaType_QVersionNumberRK10QByteArray@Qt_6 6.3.0
 _Z43qRegisterNormalizedMetaType_QModelIndexListRK10QByteArray@Qt_6 6.3.0
 _Z45qRegisterNormalizedMetaType_QSocketDescriptorRK10QByteArray@Qt_6 6.3.0
 _Z47qRegisterNormalizedMetaType_QItemSelectionRangeRK10QByteArray@Qt_6 6.3.0
 _Z47qRegisterNormalizedMetaType_QList_Qt__DayOfWeekRK10QByteArray@Qt_6 6.4.0
 _Z48qRegisterNormalizedMetaType_QSocketNotifier_TypeRK10QByteArray@Qt_6 6.3.0
 _Z4qInfv@Qt_6 6.1.2
 _Z53qRegisterNormalizedMetaType_QPairVariantInterfaceImplRK10QByteArray@Qt_6 6.3.0
 _Z5beginRK31QRegularExpressionMatchIterator@Qt_6 6.1.2
 (subst)_Z5qHash11QStringView{size_t}@Qt_6 6.1.2
 (subst)_Z5qHash13QLatin1String{size_t}@Qt_6 6.1.2
 (subst)_Z5qHash14QByteArrayView{size_t}@Qt_6 6.4.0
 (subst)_Z5qHash5QDate{size_t}@Qt_6 6.1.2
 (subst)_Z5qHash5QTime{size_t}@Qt_6 6.1.2
 (subst)_Z5qHash6QPoint{size_t}@Qt_6 6.1.2
 (subst)_Z5qHashRK10QByteArray{size_t}@Qt_6 6.1.2
 (subst)_Z5qHashRK10QCborArray{size_t}@Qt_6 6.1.2
 (subst)_Z5qHashRK10QCborValue{size_t}@Qt_6 6.1.2
 (subst)_Z5qHashRK10QJsonArray{size_t}@Qt_6 6.1.2
 (subst)_Z5qHashRK10QJsonValue{size_t}@Qt_6 6.1.2
 (subst)_Z5qHashRK11QJsonObject{size_t}@Qt_6 6.1.2
 (subst)_Z5qHashRK13QTypeRevision{size_t}@Qt_6 6.1.2
 (subst)_Z5qHashRK14QByteArrayView{size_t}@Qt_6 6.1.2
 (subst)_Z5qHashRK14QVersionNumber{size_t}@Qt_6 6.1.2
 (subst)_Z5qHashRK18QRegularExpression{size_t}@Qt_6 6.1.2
 (subst)_Z5qHashRK4QUrl{size_t}@Qt_6 6.1.2
 (subst)_Z5qHashRK5QUuid{size_t}@Qt_6 6.1.2
 (subst)_Z5qHashRK7QLocale{size_t}@Qt_6 6.1.2
 (subst)_Z5qHashRK8QCborMap{size_t}@Qt_6 6.1.2
 (subst)_Z5qHashRK9QBitArray{size_t}@Qt_6 6.1.2
 (subst)_Z5qHashRK9QDateTime{size_t}@Qt_6 6.1.2
 (subst)_Z5qHashRK9QMimeType{size_t}@Qt_6 6.1.2
 (subst)_Z5qHashRK9QUrlQuery{size_t}@Qt_6 6.1.2
 (subst)_Z5qHashRKN10QByteArray16FromBase64ResultE{size_t}@Qt_6 6.1.2
 (subst)_Z5qHashd{size_t}@Qt_6 6.1.2
 (subst)_Z5qHash{long_double}{size_t}@Qt_6 6.1.2
 _Z5qQNaNv@Qt_6 6.1.2
 _Z5qSNaNv@Qt_6 6.1.2
 _Z5qdtoadPiS_@Qt_6 6.1.2
 _Z67qRegisterNormalizedMetaType_QSystemLocale__CurrencyToStringArgumentRK10QByteArray@Qt_6 6.4.0
 _Z6qAbortv@Qt_6 6.3.0
 _Z6qIsInfd@Qt_6 6.1.2
 _Z6qIsInff@Qt_6 6.1.2
 _Z6qIsNaNd@Qt_6 6.1.2
 _Z6qIsNaNf@Qt_6 6.1.2
 _Z6qTzSetv@Qt_6 6.1.2
 (optional=templinst|subst)_Z6qbswapILi2EEPvPKv{qptrdiff}S0_@Qt_6 6.1.2
 (optional=templinst|subst)_Z6qbswapILi4EEPvPKv{qptrdiff}S0_@Qt_6 6.1.2
 (optional=templinst|subst)_Z6qbswapILi8EEPvPKv{qptrdiff}S0_@Qt_6 6.1.2
 _Z6qtTrIdPKci@Qt_6 6.1.2
 _Z7qMkTimeP2tm@Qt_6 6.1.2
 _Z7qgetenvPKc@Qt_6 6.1.2
 _Z7qputenvPKcRK10QByteArray@Qt_6 6.1.2
 _Z7qstrcmpPKcS0_@Qt_6 6.1.2
 _Z7qstrcpyPcPKc@Qt_6 6.1.2
 _Z7qstrdupPKc@Qt_6 6.1.2
 _Z7qt_hash11QStringViewj@Qt_6 6.1.2
 _Z8qAppNamev@Qt_6 6.1.2
 _Z8qstricmpPKcS0_@Qt_6 6.1.2
 (subst)_Z8qstrncpyPcPKc{size_t}@Qt_6 6.1.2
 (subst)_Z8qstrntodPKc{qptrdiff}PS0_Pb@Qt_6 6.1.2
 _Z9qBadAllocv@Qt_6 6.1.2
 _Z9qChecksum14QByteArrayViewN2Qt12ChecksumTypeE@Qt_6 6.1.2
 (subst)_Z9qCompressPKh{qptrdiff}i@Qt_6 6.1.2
 (subst)_Z9qHashBitsPKv{size_t}{size_t}@Qt_6 6.1.2
 _Z9qIsFinited@Qt_6 6.1.2
 _Z9qIsFinitef@Qt_6 6.1.2
 (subst)_Z9qsnprintfPc{size_t}PKcz@Qt_6 6.1.2
 (subst)_Z9qstrnicmpPKcS0_{size_t}@Qt_6 6.1.2
 (subst)_Z9qstrnicmpPKc{qptrdiff}S0_{qptrdiff}@Qt_6 6.1.2
 _Z9qt_assertPKcS0_i@Qt_6 6.1.2
 _Z9qunsetenvPKc@Qt_6 6.1.2
 _ZGVZN9QMetaType21registerConverterImplI5QListI11QModelIndexE9QIterableI13QMetaSequenceEEEbSt8functionIFbPKvPvEES_S_E10unregister@Qt_6 6.2.0
 _ZGVZN9QMetaType21registerConverterImplI5QListI21QPersistentModelIndexE9QIterableI13QMetaSequenceEEEbSt8functionIFbPKvPvEES_S_E10unregister@Qt_6 6.2.0
 _ZGVZN9QMetaType21registerConverterImplI5QListIN2Qt9DayOfWeekEE9QIterableI13QMetaSequenceEEEbSt8functionIFbPKvPvEES_S_E10unregister@Qt_6 6.2.0
 _ZGVZN9QMetaType21registerConverterImplI5QListIiE9QIterableI13QMetaSequenceEEEbSt8functionIFbPKvPvEES_S_E10unregister@Qt_6 6.2.0
 _ZGVZN9QMetaType23registerMutableViewImplI5QListI11QModelIndexE9QIterableI13QMetaSequenceEEEbSt8functionIFbPvS8_EES_S_E10unregister@Qt_6 6.2.0
 _ZGVZN9QMetaType23registerMutableViewImplI5QListI21QPersistentModelIndexE9QIterableI13QMetaSequenceEEEbSt8functionIFbPvS8_EES_S_E10unregister@Qt_6 6.2.0
 _ZGVZN9QMetaType23registerMutableViewImplI5QListIN2Qt9DayOfWeekEE9QIterableI13QMetaSequenceEEEbSt8functionIFbPvS9_EES_S_E10unregister@Qt_6 6.2.0
 _ZGVZN9QMetaType23registerMutableViewImplI5QListIiE9QIterableI13QMetaSequenceEEEbSt8functionIFbPvS7_EES_S_E10unregister@Qt_6 6.2.0
 (subst)_ZN10QArrayData10deallocateEPS_{qptrdiff}{qptrdiff}@Qt_6 6.1.2
 (subst)_ZN10QArrayData19reallocateUnalignedEPS_Pv{qptrdiff}{qptrdiff}NS_16AllocationOptionE@Qt_6 6.1.2
 (subst)_ZN10QArrayData8allocateEPPS_{qptrdiff}{qptrdiff}{qptrdiff}NS_16AllocationOptionE@Qt_6 6.1.2
 _ZN10QByteArray10fromBase64ERKS_6QFlagsINS_12Base64OptionEE@Qt_6 6.1.2
 (subst)_ZN10QByteArray10setRawDataEPKc{qptrdiff}@Qt_6 6.1.2
 (subst)_ZN10QByteArray11reallocDataE{qptrdiff}N10QArrayData16AllocationOptionE@Qt_6 6.1.2
 _ZN10QByteArray13fromStdStringERKNSt7__cxx1112basic_stringIcSt11char_traitsIcESaIcEEE@Qt_6 6.4.0
 _ZN10QByteArray14toLower_helperERKS_@Qt_6 6.1.2
 _ZN10QByteArray14toLower_helperERS_@Qt_6 6.1.2
 _ZN10QByteArray14toUpper_helperERKS_@Qt_6 6.1.2
 _ZN10QByteArray14toUpper_helperERS_@Qt_6 6.1.2
 _ZN10QByteArray14trimmed_helperERKS_@Qt_6 6.1.2
 _ZN10QByteArray14trimmed_helperERS_@Qt_6 6.1.2
 (subst)_ZN10QByteArray15reallocGrowDataE{qptrdiff}@Qt_6 6.1.2
 _ZN10QByteArray17simplified_helperERKS_@Qt_6 6.1.2
 _ZN10QByteArray17simplified_helperERS_@Qt_6 6.1.2
 _ZN10QByteArray18fromBase64EncodingEOS_6QFlagsINS_12Base64OptionEE@Qt_6 6.1.2
 _ZN10QByteArray18fromBase64EncodingERKS_6QFlagsINS_12Base64OptionEE@Qt_6 6.1.2
 _ZN10QByteArray19fromPercentEncodingERKS_c@Qt_6 6.1.2
 (subst)_ZN10QByteArray4chopE{qptrdiff}@Qt_6 6.1.2
 (subst)_ZN10QByteArray4fillEc{qptrdiff}@Qt_6 6.1.2
 _ZN10QByteArray5clearEv@Qt_6 6.1.2
 _ZN10QByteArray5eraseEPKcS1_@Qt_6 6.1.2
 _ZN10QByteArray6_emptyE@Qt_6 6.1.2
 _ZN10QByteArray6appendERKS_@Qt_6 6.1.2
 _ZN10QByteArray6appendEc@Qt_6 6.1.2
 (subst)_ZN10QByteArray6expandE{qptrdiff}@Qt_6 6.1.2
 (subst)_ZN10QByteArray6insertE{qptrdiff}14QByteArrayView@Qt_6 6.1.2
 (subst)_ZN10QByteArray6insertE{qptrdiff}{qptrdiff}c@Qt_6 6.1.2
 _ZN10QByteArray6numberEdci@Qt_6 6.1.2
 _ZN10QByteArray6numberEii@Qt_6 6.1.2
 _ZN10QByteArray6numberEji@Qt_6 6.1.2
 _ZN10QByteArray6numberEli@Qt_6 6.1.2
 _ZN10QByteArray6numberEmi@Qt_6 6.1.2
 _ZN10QByteArray6numberExi@Qt_6 6.1.2
 _ZN10QByteArray6numberEyi@Qt_6 6.1.2
 (subst)_ZN10QByteArray6removeE{qptrdiff}{qptrdiff}@Qt_6 6.1.2
 (subst)_ZN10QByteArray6resizeE{qptrdiff}@Qt_6 6.1.2
 (subst)_ZN10QByteArray6resizeE{qptrdiff}c@Qt_6 6.4.0
 _ZN10QByteArray6setNumEdci@Qt_6 6.1.2
 _ZN10QByteArray6setNumExi@Qt_6 6.1.2
 _ZN10QByteArray6setNumEyi@Qt_6 6.1.2
 _ZN10QByteArray7fromHexERKS_@Qt_6 6.1.2
 _ZN10QByteArray7prependERKS_@Qt_6 6.1.2
 _ZN10QByteArray7replaceE14QByteArrayViewS0_@Qt_6 6.1.2
 _ZN10QByteArray7replaceEcc@Qt_6 6.1.2
 (subst)_ZN10QByteArray7replaceE{qptrdiff}{qptrdiff}14QByteArrayView@Qt_6 6.1.2
 (subst)_ZN10QByteArray8truncateE{qptrdiff}@Qt_6 6.1.2
 (subst)_ZN10QByteArrayC1EPKc{qptrdiff}@Qt_6 6.1.2
 (subst)_ZN10QByteArrayC1E{qptrdiff}N2Qt14InitializationE@Qt_6 6.1.2
 (subst)_ZN10QByteArrayC1E{qptrdiff}c@Qt_6 6.1.2
 (subst)_ZN10QByteArrayC2EPKc{qptrdiff}@Qt_6 6.1.2
 (subst)_ZN10QByteArrayC2E{qptrdiff}N2Qt14InitializationE@Qt_6 6.1.2
 (subst)_ZN10QByteArrayC2E{qptrdiff}c@Qt_6 6.1.2
 _ZN10QByteArrayaSEPKc@Qt_6 6.1.2
 _ZN10QByteArrayaSERKS_@Qt_6 6.1.2
 _ZN10QCborArray13fromJsonArrayEO10QJsonArray@Qt_6 6.3.0
 _ZN10QCborArray13fromJsonArrayERK10QJsonArray@Qt_6 6.1.2
 _ZN10QCborArray14fromStringListERK5QListI7QStringE@Qt_6 6.1.2
 _ZN10QCborArray15fromVariantListERK5QListI8QVariantE@Qt_6 6.1.2
 _ZN10QCborArray5clearEv@Qt_6 6.1.2
 (subst)_ZN10QCborArray6detachE{qptrdiff}@Qt_6 6.1.2
 (subst)_ZN10QCborArray6insertE{qptrdiff}O10QCborValue@Qt_6 6.1.2
 (subst)_ZN10QCborArray6insertE{qptrdiff}RK10QCborValue@Qt_6 6.1.2
 _ZN10QCborArray7extractENS_8IteratorE@Qt_6 6.1.2
 (subst)_ZN10QCborArray8removeAtE{qptrdiff}@Qt_6 6.1.2
 _ZN10QCborArrayC1ERKS_@Qt_6 6.1.2
 _ZN10QCborArrayC1Ev@Qt_6 6.1.2
 _ZN10QCborArrayC2ERKS_@Qt_6 6.1.2
 _ZN10QCborArrayC2Ev@Qt_6 6.1.2
 _ZN10QCborArrayD1Ev@Qt_6 6.1.2
 _ZN10QCborArrayD2Ev@Qt_6 6.1.2
 _ZN10QCborArrayaSERKS_@Qt_6 6.1.2
 _ZN10QCborError16staticMetaObjectE@Qt_6 6.1.2
 _ZN10QCborValue11fromVariantERK8QVariant@Qt_6 6.1.2
 _ZN10QCborValue13fromJsonValueERK10QJsonValue@Qt_6 6.1.2
 _ZN10QCborValue16staticMetaObjectE@Qt_6 6.1.2
 _ZN10QCborValue7disposeEv@Qt_6 6.1.2
 _ZN10QCborValue8fromCborER17QCborStreamReader@Qt_6 6.1.2
 _ZN10QCborValue8fromCborERK10QByteArrayP16QCborParserError@Qt_6 6.1.2
 _ZN10QCborValueC1E11QStringView@Qt_6 6.1.2
 _ZN10QCborValueC1E13QLatin1String@Qt_6 6.1.2
 _ZN10QCborValueC1E8QCborTagRKS_@Qt_6 6.1.2
 _ZN10QCborValueC1ERK10QByteArray@Qt_6 6.1.2
 _ZN10QCborValueC1ERK10QCborArray@Qt_6 6.1.2
 _ZN10QCborValueC1ERK18QRegularExpression@Qt_6 6.1.2
 _ZN10QCborValueC1ERK4QUrl@Qt_6 6.1.2
 _ZN10QCborValueC1ERK5QUuid@Qt_6 6.1.2
 _ZN10QCborValueC1ERK7QString@Qt_6 6.1.2
 _ZN10QCborValueC1ERK8QCborMap@Qt_6 6.1.2
 _ZN10QCborValueC1ERK9QDateTime@Qt_6 6.1.2
 _ZN10QCborValueC1ERKS_@Qt_6 6.1.2
 _ZN10QCborValueC2E11QStringView@Qt_6 6.1.2
 _ZN10QCborValueC2E13QLatin1String@Qt_6 6.1.2
 _ZN10QCborValueC2E8QCborTagRKS_@Qt_6 6.1.2
 _ZN10QCborValueC2ERK10QByteArray@Qt_6 6.1.2
 _ZN10QCborValueC2ERK10QCborArray@Qt_6 6.1.2
 _ZN10QCborValueC2ERK18QRegularExpression@Qt_6 6.1.2
 _ZN10QCborValueC2ERK4QUrl@Qt_6 6.1.2
 _ZN10QCborValueC2ERK5QUuid@Qt_6 6.1.2
 _ZN10QCborValueC2ERK7QString@Qt_6 6.1.2
 _ZN10QCborValueC2ERK8QCborMap@Qt_6 6.1.2
 _ZN10QCborValueC2ERK9QDateTime@Qt_6 6.1.2
 _ZN10QCborValueC2ERKS_@Qt_6 6.1.2
 _ZN10QCborValueaSERKS_@Qt_6 6.1.2
 _ZN10QCborValueixE13QLatin1String@Qt_6 6.1.2
 _ZN10QCborValueixERK7QString@Qt_6 6.1.2
 _ZN10QCborValueixEx@Qt_6 6.1.2
 _ZN10QEventLoop11qt_metacallEN11QMetaObject4CallEiPPv@Qt_6 6.1.2
 _ZN10QEventLoop11qt_metacastEPKc@Qt_6 6.1.2
 _ZN10QEventLoop13processEventsE6QFlagsINS_17ProcessEventsFlagEE@Qt_6 6.1.2
 _ZN10QEventLoop13processEventsE6QFlagsINS_17ProcessEventsFlagEEi@Qt_6 6.1.2
 _ZN10QEventLoop16staticMetaObjectE@Qt_6 6.1.2
 _ZN10QEventLoop4execE6QFlagsINS_17ProcessEventsFlagEE@Qt_6 6.1.2
 _ZN10QEventLoop4exitEi@Qt_6 6.1.2
 _ZN10QEventLoop4quitEv@Qt_6 6.1.2
 _ZN10QEventLoop5eventEP6QEvent@Qt_6 6.1.2
 _ZN10QEventLoop6wakeUpEv@Qt_6 6.1.2
 _ZN10QEventLoopC1EP7QObject@Qt_6 6.1.2
 _ZN10QEventLoopC2EP7QObject@Qt_6 6.1.2
 _ZN10QEventLoopD0Ev@Qt_6 6.1.2
 _ZN10QEventLoopD1Ev@Qt_6 6.1.2
 _ZN10QEventLoopD2Ev@Qt_6 6.1.2
 _ZN10QExceptionD0Ev@Qt_6 6.1.2
 _ZN10QExceptionD1Ev@Qt_6 6.1.2
 _ZN10QExceptionD2Ev@Qt_6 6.1.2
 _ZN10QJsonArray14fromStringListERK5QListI7QStringE@Qt_6 6.1.2
 _ZN10QJsonArray15fromVariantListERK5QListI8QVariantE@Qt_6 6.1.2
 _ZN10QJsonArray6appendERK10QJsonValue@Qt_6 6.1.2
 (subst)_ZN10QJsonArray6detachE{qptrdiff}@Qt_6 6.1.2
 (subst)_ZN10QJsonArray6insertE{qptrdiff}RK10QJsonValue@Qt_6 6.1.2
 (subst)_ZN10QJsonArray6takeAtE{qptrdiff}@Qt_6 6.1.2
 _ZN10QJsonArray7prependERK10QJsonValue@Qt_6 6.1.2
 (subst)_ZN10QJsonArray7replaceE{qptrdiff}RK10QJsonValue@Qt_6 6.1.2
 (subst)_ZN10QJsonArray8removeAtE{qptrdiff}@Qt_6 6.1.2
 _ZN10QJsonArrayC1EOS_@Qt_6 6.1.2
 _ZN10QJsonArrayC1EP21QCborContainerPrivate@Qt_6 6.1.2
 _ZN10QJsonArrayC1ERKS_@Qt_6 6.1.2
 _ZN10QJsonArrayC1ESt16initializer_listI10QJsonValueE@Qt_6 6.1.2
 _ZN10QJsonArrayC1Ev@Qt_6 6.1.2
 _ZN10QJsonArrayC2EOS_@Qt_6 6.1.2
 _ZN10QJsonArrayC2EP21QCborContainerPrivate@Qt_6 6.1.2
 _ZN10QJsonArrayC2ERKS_@Qt_6 6.1.2
 _ZN10QJsonArrayC2ESt16initializer_listI10QJsonValueE@Qt_6 6.1.2
 _ZN10QJsonArrayC2Ev@Qt_6 6.1.2
 _ZN10QJsonArrayD1Ev@Qt_6 6.1.2
 _ZN10QJsonArrayD2Ev@Qt_6 6.1.2
 _ZN10QJsonArrayaSERKS_@Qt_6 6.1.2
 (subst)_ZN10QJsonArrayixE{qptrdiff}@Qt_6 6.1.2
 _ZN10QJsonValue11fromVariantERK8QVariant@Qt_6 6.1.2
 _ZN10QJsonValue4swapERS_@Qt_6 6.1.2
 _ZN10QJsonValueC1E13QLatin1String@Qt_6 6.1.2
 _ZN10QJsonValueC1ENS_4TypeE@Qt_6 6.1.2
 _ZN10QJsonValueC1EO10QJsonArray@Qt_6 6.3.0
 _ZN10QJsonValueC1EO11QJsonObject@Qt_6 6.3.0
 _ZN10QJsonValueC1EOS_@Qt_6 6.1.2
 _ZN10QJsonValueC1ERK10QJsonArray@Qt_6 6.1.2
 _ZN10QJsonValueC1ERK11QJsonObject@Qt_6 6.1.2
 _ZN10QJsonValueC1ERK7QString@Qt_6 6.1.2
 _ZN10QJsonValueC1ERKS_@Qt_6 6.1.2
 _ZN10QJsonValueC1Eb@Qt_6 6.1.2
 _ZN10QJsonValueC1Ed@Qt_6 6.1.2
 _ZN10QJsonValueC1Ei@Qt_6 6.1.2
 _ZN10QJsonValueC1Ex@Qt_6 6.1.2
 _ZN10QJsonValueC2E13QLatin1String@Qt_6 6.1.2
 _ZN10QJsonValueC2ENS_4TypeE@Qt_6 6.1.2
 _ZN10QJsonValueC2EO10QJsonArray@Qt_6 6.3.0
 _ZN10QJsonValueC2EO11QJsonObject@Qt_6 6.3.0
 _ZN10QJsonValueC2EOS_@Qt_6 6.1.2
 _ZN10QJsonValueC2ERK10QJsonArray@Qt_6 6.1.2
 _ZN10QJsonValueC2ERK11QJsonObject@Qt_6 6.1.2
 _ZN10QJsonValueC2ERK7QString@Qt_6 6.1.2
 _ZN10QJsonValueC2ERKS_@Qt_6 6.1.2
 _ZN10QJsonValueC2Eb@Qt_6 6.1.2
 _ZN10QJsonValueC2Ed@Qt_6 6.1.2
 _ZN10QJsonValueC2Ei@Qt_6 6.1.2
 _ZN10QJsonValueC2Ex@Qt_6 6.1.2
 _ZN10QJsonValueD1Ev@Qt_6 6.1.2
 _ZN10QJsonValueD2Ev@Qt_6 6.1.2
 _ZN10QJsonValueaSERKS_@Qt_6 6.1.2
 _ZN10QLocalTime12getUtcOffsetEx@Qt_6 6.4.0
 _ZN10QLocalTime27getCurrentStandardUtcOffsetEv@Qt_6 6.4.0
 _ZN10QRingChunk6detachEv@Qt_6 6.1.2
 _ZN10QSemaphore10tryAcquireEi@Qt_6 6.1.2
 _ZN10QSemaphore10tryAcquireEii@Qt_6 6.1.2
 _ZN10QSemaphore7acquireEi@Qt_6 6.1.2
 _ZN10QSemaphore7releaseEi@Qt_6 6.1.2
 _ZN10QSemaphoreC1Ei@Qt_6 6.1.2
 _ZN10QSemaphoreC2Ei@Qt_6 6.1.2
 _ZN10QSemaphoreD1Ev@Qt_6 6.1.2
 _ZN10QSemaphoreD2Ev@Qt_6 6.1.2
 _ZN11QBasicMutex12lockInternalEi@Qt_6 6.1.2
 _ZN11QBasicMutex12lockInternalEv@Qt_6 6.1.2
 _ZN11QBasicMutex14unlockInternalEv@Qt_6 6.1.2
 _ZN11QBasicMutex15destroyInternalEP13QMutexPrivate@Qt_6 6.1.2
 _ZN11QBasicTimer4stopEv@Qt_6 6.1.2
 _ZN11QBasicTimer5startEiN2Qt9TimerTypeEP7QObject@Qt_6 6.1.2
 _ZN11QBasicTimer5startEiP7QObject@Qt_6 6.1.2
 _ZN11QChildEventC1EN6QEvent4TypeEP7QObject@Qt_6 6.1.2
 _ZN11QChildEventC1ERKS_@Qt_6 6.4.0
 _ZN11QChildEventC2EN6QEvent4TypeEP7QObject@Qt_6 6.1.2
 _ZN11QChildEventC2ERKS_@Qt_6 6.4.0
 _ZN11QChildEventD0Ev@Qt_6 6.1.2
 _ZN11QChildEventD1Ev@Qt_6 6.1.2
 _ZN11QChildEventD2Ev@Qt_6 6.1.2
 _ZN11QDataStream10writeBytesEPKcj@Qt_6 6.1.2
 _ZN11QDataStream11readRawDataEPci@Qt_6 6.1.2
 _ZN11QDataStream11resetStatusEv@Qt_6 6.1.2
 _ZN11QDataStream11skipRawDataEi@Qt_6 6.1.2
 _ZN11QDataStream12setByteOrderENS_9ByteOrderE@Qt_6 6.1.2
 _ZN11QDataStream12writeRawDataEPKci@Qt_6 6.1.2
 _ZN11QDataStream16abortTransactionEv@Qt_6 6.1.2
 _ZN11QDataStream16startTransactionEv@Qt_6 6.1.2
 _ZN11QDataStream17commitTransactionEv@Qt_6 6.1.2
 _ZN11QDataStream19rollbackTransactionEv@Qt_6 6.1.2
 _ZN11QDataStream25setFloatingPointPrecisionENS_22FloatingPointPrecisionE@Qt_6 6.1.2
 _ZN11QDataStream9readBlockEPci@Qt_6 6.1.2
 _ZN11QDataStream9readBytesERPcRj@Qt_6 6.1.2
 _ZN11QDataStream9setDeviceEP9QIODevice@Qt_6 6.1.2
 _ZN11QDataStream9setStatusENS_6StatusE@Qt_6 6.1.2
 _ZN11QDataStreamC1EP10QByteArray6QFlagsIN13QIODeviceBase12OpenModeFlagEE@Qt_6 6.1.2
 _ZN11QDataStreamC1EP9QIODevice@Qt_6 6.1.2
 _ZN11QDataStreamC1ERK10QByteArray@Qt_6 6.1.2
 _ZN11QDataStreamC1Ev@Qt_6 6.1.2
 _ZN11QDataStreamC2EP10QByteArray6QFlagsIN13QIODeviceBase12OpenModeFlagEE@Qt_6 6.1.2
 _ZN11QDataStreamC2EP9QIODevice@Qt_6 6.1.2
 _ZN11QDataStreamC2ERK10QByteArray@Qt_6 6.1.2
 _ZN11QDataStreamC2Ev@Qt_6 6.1.2
 _ZN11QDataStreamD1Ev@Qt_6 6.1.2
 _ZN11QDataStreamD2Ev@Qt_6 6.1.2
 _ZN11QDataStreamlsE8qfloat16@Qt_6 6.1.2
 _ZN11QDataStreamlsEDi@Qt_6 6.1.2
 _ZN11QDataStreamlsEDs@Qt_6 6.1.2
 _ZN11QDataStreamlsEPKc@Qt_6 6.1.2
 _ZN11QDataStreamlsEa@Qt_6 6.1.2
 _ZN11QDataStreamlsEb@Qt_6 6.1.2
 _ZN11QDataStreamlsEd@Qt_6 6.1.2
 _ZN11QDataStreamlsEf@Qt_6 6.1.2
 _ZN11QDataStreamlsEi@Qt_6 6.1.2
 _ZN11QDataStreamlsEs@Qt_6 6.1.2
 _ZN11QDataStreamlsEx@Qt_6 6.1.2
 _ZN11QDataStreamrsER8qfloat16@Qt_6 6.1.2
 _ZN11QDataStreamrsERDi@Qt_6 6.1.2
 _ZN11QDataStreamrsERDs@Qt_6 6.1.2
 _ZN11QDataStreamrsERPc@Qt_6 6.1.2
 _ZN11QDataStreamrsERa@Qt_6 6.1.2
 _ZN11QDataStreamrsERb@Qt_6 6.1.2
 _ZN11QDataStreamrsERd@Qt_6 6.1.2
 _ZN11QDataStreamrsERf@Qt_6 6.1.2
 _ZN11QDataStreamrsERi@Qt_6 6.1.2
 _ZN11QDataStreamrsERs@Qt_6 6.1.2
 _ZN11QDataStreamrsERx@Qt_6 6.1.2
 _ZN11QFileDevice10unsetErrorEv@Qt_6 6.1.2
 _ZN11QFileDevice11qt_metacallEN11QMetaObject4CallEiPPv@Qt_6 6.1.2
 _ZN11QFileDevice11qt_metacastEPKc@Qt_6 6.1.2
 _ZN11QFileDevice11setFileTimeERK9QDateTimeNS_8FileTimeE@Qt_6 6.1.2
 _ZN11QFileDevice12readLineDataEPcx@Qt_6 6.1.2
 _ZN11QFileDevice14setPermissionsE6QFlagsINS_10PermissionEE@Qt_6 6.1.2
 _ZN11QFileDevice16staticMetaObjectE@Qt_6 6.1.2
 _ZN11QFileDevice3mapExx6QFlagsINS_13MemoryMapFlagEE@Qt_6 6.1.2
 _ZN11QFileDevice4seekEx@Qt_6 6.1.2
 _ZN11QFileDevice5closeEv@Qt_6 6.1.2
 _ZN11QFileDevice5flushEv@Qt_6 6.1.2
 _ZN11QFileDevice5unmapEPh@Qt_6 6.1.2
 _ZN11QFileDevice6resizeEx@Qt_6 6.1.2
 _ZN11QFileDevice8readDataEPcx@Qt_6 6.1.2
 _ZN11QFileDevice9writeDataEPKcx@Qt_6 6.1.2
 _ZN11QFileDeviceC1EP7QObject@Qt_6 6.1.2
 _ZN11QFileDeviceC1ER18QFileDevicePrivateP7QObject@Qt_6 6.1.2
 _ZN11QFileDeviceC1Ev@Qt_6 6.1.2
 _ZN11QFileDeviceC2EP7QObject@Qt_6 6.1.2
 _ZN11QFileDeviceC2ER18QFileDevicePrivateP7QObject@Qt_6 6.1.2
 _ZN11QFileDeviceC2Ev@Qt_6 6.1.2
 _ZN11QFileDeviceD0Ev@Qt_6 6.1.2
 _ZN11QFileDeviceD1Ev@Qt_6 6.1.2
 _ZN11QFileDeviceD2Ev@Qt_6 6.1.2
 (subst)_ZN11QJsonObject10setValueAtE{qptrdiff}RK10QJsonValue@Qt_6 6.1.2
 _ZN11QJsonObject14fromVariantMapERK4QMapI7QString8QVariantE@Qt_6 6.1.2
 _ZN11QJsonObject15fromVariantHashERK5QHashI7QString8QVariantE@Qt_6 6.1.2
 _ZN11QJsonObject4findE11QStringView@Qt_6 6.1.2
 _ZN11QJsonObject4findE13QLatin1String@Qt_6 6.1.2
 _ZN11QJsonObject4findERK7QString@Qt_6 6.1.2
 _ZN11QJsonObject4takeE11QStringView@Qt_6 6.1.2
 _ZN11QJsonObject4takeE13QLatin1String@Qt_6 6.1.2
 _ZN11QJsonObject4takeERK7QString@Qt_6 6.1.2
 _ZN11QJsonObject5eraseENS_8iteratorE@Qt_6 6.1.2
 (subst)_ZN11QJsonObject6detachE{qptrdiff}@Qt_6 6.1.2
 _ZN11QJsonObject6insertE11QStringViewRK10QJsonValue@Qt_6 6.1.2
 _ZN11QJsonObject6insertE13QLatin1StringRK10QJsonValue@Qt_6 6.1.2
 _ZN11QJsonObject6insertERK7QStringRK10QJsonValue@Qt_6 6.1.2
 _ZN11QJsonObject6removeE11QStringView@Qt_6 6.1.2
 _ZN11QJsonObject6removeE13QLatin1String@Qt_6 6.1.2
 _ZN11QJsonObject6removeERK7QString@Qt_6 6.1.2
 (subst)_ZN11QJsonObject8removeAtE{qptrdiff}@Qt_6 6.1.2
 _ZN11QJsonObjectC1EOS_@Qt_6 6.1.2
 _ZN11QJsonObjectC1EP21QCborContainerPrivate@Qt_6 6.1.2
 _ZN11QJsonObjectC1ERKS_@Qt_6 6.1.2
 _ZN11QJsonObjectC1ESt16initializer_listISt4pairI7QString10QJsonValueEE@Qt_6 6.1.2
 _ZN11QJsonObjectC1Ev@Qt_6 6.1.2
 _ZN11QJsonObjectC2EOS_@Qt_6 6.1.2
 _ZN11QJsonObjectC2EP21QCborContainerPrivate@Qt_6 6.1.2
 _ZN11QJsonObjectC2ERKS_@Qt_6 6.1.2
 _ZN11QJsonObjectC2ESt16initializer_listISt4pairI7QString10QJsonValueEE@Qt_6 6.1.2
 _ZN11QJsonObjectC2Ev@Qt_6 6.1.2
 _ZN11QJsonObjectD1Ev@Qt_6 6.1.2
 _ZN11QJsonObjectD2Ev@Qt_6 6.1.2
 _ZN11QJsonObjectaSERKS_@Qt_6 6.1.2
 _ZN11QJsonObjectixE11QStringView@Qt_6 6.1.2
 _ZN11QJsonObjectixE13QLatin1String@Qt_6 6.1.2
 _ZN11QJsonObjectixERK7QString@Qt_6 6.1.2
 _ZN11QLocaleData19bytearrayToLongLongE14QByteArrayViewiPb@Qt_6 6.3.0
 _ZN11QMetaMethod14fromSignalImplEPK11QMetaObjectPPv@Qt_6 6.1.2
 _ZN11QMetaMethod23fromRelativeMethodIndexEPK11QMetaObjecti@Qt_6 6.1.2
 _ZN11QMetaMethod28fromRelativeConstructorIndexEPK11QMetaObjecti@Qt_6 6.1.2
 _ZN11QMetaObject10ConnectionC1ERKS0_@Qt_6 6.1.2
 _ZN11QMetaObject10ConnectionC1Ev@Qt_6 6.1.2
 _ZN11QMetaObject10ConnectionC2ERKS0_@Qt_6 6.1.2
 _ZN11QMetaObject10ConnectionC2Ev@Qt_6 6.1.2
 _ZN11QMetaObject10ConnectionD1Ev@Qt_6 6.1.2
 _ZN11QMetaObject10ConnectionD2Ev@Qt_6 6.1.2
 _ZN11QMetaObject10ConnectionaSERKS0_@Qt_6 6.1.2
 _ZN11QMetaObject10disconnectEPK7QObjectiS2_i@Qt_6 6.1.2
 _ZN11QMetaObject12invokeMethodEP7QObjectPKcN2Qt14ConnectionTypeE22QGenericReturnArgument16QGenericArgumentS7_S7_S7_S7_S7_S7_S7_S7_S7_@Qt_6 6.1.2
 _ZN11QMetaObject13disconnectOneEPK7QObjectiS2_i@Qt_6 6.1.2
 _ZN11QMetaObject14normalizedTypeEPKc@Qt_6 6.1.2
 _ZN11QMetaObject16checkConnectArgsEPKcS1_@Qt_6 6.1.2
 _ZN11QMetaObject16checkConnectArgsERK11QMetaMethodS2_@Qt_6 6.1.2
 _ZN11QMetaObject16invokeMethodImplEP7QObjectPN9QtPrivate15QSlotObjectBaseEN2Qt14ConnectionTypeEPv@Qt_6 6.1.2
 _ZN11QMetaObject18connectSlotsByNameEP7QObject@Qt_6 6.1.2
 _ZN11QMetaObject19normalizedSignatureEPKc@Qt_6 6.1.2
 _ZN11QMetaObject7connectEPK7QObjectiS2_iiPi@Qt_6 6.1.2
 _ZN11QMetaObject8activateEP7QObjectPKS_iPPv@Qt_6 6.1.2
 _ZN11QMetaObject8activateEP7QObjectiPPv@Qt_6 6.1.2
 _ZN11QMetaObject8activateEP7QObjectiiPPv@Qt_6 6.1.2
 _ZN11QMetaObject8metacallEP7QObjectNS_4CallEiPPv@Qt_6 6.1.2
 _ZN11QObjectDataD0Ev@Qt_6 6.1.2
 _ZN11QObjectDataD1Ev@Qt_6 6.1.2
 _ZN11QObjectDataD2Ev@Qt_6 6.1.2
 _ZN11QRingBuffer12reserveFrontEx@Qt_6 6.1.2
 _ZN11QRingBuffer4chopEx@Qt_6 6.1.2
 _ZN11QRingBuffer4freeEx@Qt_6 6.1.2
 _ZN11QRingBuffer4readEPcx@Qt_6 6.1.2
 _ZN11QRingBuffer4readEv@Qt_6 6.1.2
 _ZN11QRingBuffer5clearEv@Qt_6 6.1.2
 _ZN11QRingBuffer6appendEO10QByteArray@Qt_6 6.3.0
 _ZN11QRingBuffer6appendEPKcx@Qt_6 6.1.2
 _ZN11QRingBuffer6appendERK10QByteArray@Qt_6 6.1.2
 _ZN11QRingBuffer7reserveEx@Qt_6 6.1.2
 _ZN11QRingBuffer8readLineEPcx@Qt_6 6.1.2
 _ZN11QTextStream10setPadCharE5QChar@Qt_6 6.1.2
 _ZN11QTextStream11resetStatusEv@Qt_6 6.1.2
 _ZN11QTextStream11setEncodingEN16QStringConverter8EncodingE@Qt_6 6.1.2
 _ZN11QTextStream12readLineIntoEP7QStringx@Qt_6 6.1.2
 _ZN11QTextStream13setFieldWidthEi@Qt_6 6.1.2
 _ZN11QTextStream14setIntegerBaseEi@Qt_6 6.1.2
 _ZN11QTextStream14setNumberFlagsE6QFlagsINS_10NumberFlagEE@Qt_6 6.1.2
 _ZN11QTextStream14skipWhiteSpaceEv@Qt_6 6.1.2
 _ZN11QTextStream17setFieldAlignmentENS_14FieldAlignmentE@Qt_6 6.1.2
 _ZN11QTextStream20setAutoDetectUnicodeEb@Qt_6 6.1.2
 _ZN11QTextStream21setRealNumberNotationENS_18RealNumberNotationE@Qt_6 6.1.2
 _ZN11QTextStream22setRealNumberPrecisionEi@Qt_6 6.1.2
 _ZN11QTextStream24setGenerateByteOrderMarkEb@Qt_6 6.1.2
 _ZN11QTextStream4readEx@Qt_6 6.1.2
 _ZN11QTextStream4seekEx@Qt_6 6.1.2
 _ZN11QTextStream5flushEv@Qt_6 6.1.2
 _ZN11QTextStream5resetEv@Qt_6 6.1.2
 _ZN11QTextStream7readAllEv@Qt_6 6.1.2
 _ZN11QTextStream8readLineEx@Qt_6 6.1.2
 _ZN11QTextStream9setDeviceEP9QIODevice@Qt_6 6.1.2
 _ZN11QTextStream9setLocaleERK7QLocale@Qt_6 6.1.2
 _ZN11QTextStream9setStatusENS_6StatusE@Qt_6 6.1.2
 _ZN11QTextStream9setStringEP7QString6QFlagsIN13QIODeviceBase12OpenModeFlagEE@Qt_6 6.1.2
 _ZN11QTextStreamC1EP10QByteArray6QFlagsIN13QIODeviceBase12OpenModeFlagEE@Qt_6 6.1.2
 _ZN11QTextStreamC1EP7QString6QFlagsIN13QIODeviceBase12OpenModeFlagEE@Qt_6 6.1.2
 _ZN11QTextStreamC1EP8_IO_FILE6QFlagsIN13QIODeviceBase12OpenModeFlagEE@Qt_6 6.1.2
 _ZN11QTextStreamC1EP9QIODevice@Qt_6 6.1.2
 _ZN11QTextStreamC1ERK10QByteArray6QFlagsIN13QIODeviceBase12OpenModeFlagEE@Qt_6 6.1.2
 _ZN11QTextStreamC1Ev@Qt_6 6.1.2
 _ZN11QTextStreamC2EP10QByteArray6QFlagsIN13QIODeviceBase12OpenModeFlagEE@Qt_6 6.1.2
 _ZN11QTextStreamC2EP7QString6QFlagsIN13QIODeviceBase12OpenModeFlagEE@Qt_6 6.1.2
 _ZN11QTextStreamC2EP8_IO_FILE6QFlagsIN13QIODeviceBase12OpenModeFlagEE@Qt_6 6.1.2
 _ZN11QTextStreamC2EP9QIODevice@Qt_6 6.1.2
 _ZN11QTextStreamC2ERK10QByteArray6QFlagsIN13QIODeviceBase12OpenModeFlagEE@Qt_6 6.1.2
 _ZN11QTextStreamC2Ev@Qt_6 6.1.2
 _ZN11QTextStreamD0Ev@Qt_6 6.1.2
 _ZN11QTextStreamD1Ev@Qt_6 6.1.2
 _ZN11QTextStreamD2Ev@Qt_6 6.1.2
 _ZN11QTextStreamlsE11QStringView@Qt_6 6.1.2
 _ZN11QTextStreamlsE13QLatin1String@Qt_6 6.1.2
 _ZN11QTextStreamlsE5QChar@Qt_6 6.1.2
 _ZN11QTextStreamlsEPKc@Qt_6 6.1.2
 _ZN11QTextStreamlsEPKv@Qt_6 6.1.2
 _ZN11QTextStreamlsERK10QByteArray@Qt_6 6.1.2
 _ZN11QTextStreamlsERK7QString@Qt_6 6.1.2
 _ZN11QTextStreamlsEc@Qt_6 6.1.2
 _ZN11QTextStreamlsEd@Qt_6 6.1.2
 _ZN11QTextStreamlsEf@Qt_6 6.1.2
 _ZN11QTextStreamlsEi@Qt_6 6.1.2
 _ZN11QTextStreamlsEj@Qt_6 6.1.2
 _ZN11QTextStreamlsEl@Qt_6 6.1.2
 _ZN11QTextStreamlsEm@Qt_6 6.1.2
 _ZN11QTextStreamlsEs@Qt_6 6.1.2
 _ZN11QTextStreamlsEt@Qt_6 6.1.2
 _ZN11QTextStreamlsEx@Qt_6 6.1.2
 _ZN11QTextStreamlsEy@Qt_6 6.1.2
 _ZN11QTextStreamrsEPc@Qt_6 6.1.2
 _ZN11QTextStreamrsER10QByteArray@Qt_6 6.1.2
 _ZN11QTextStreamrsER5QChar@Qt_6 6.1.2
 _ZN11QTextStreamrsER7QString@Qt_6 6.1.2
 _ZN11QTextStreamrsERc@Qt_6 6.1.2
 _ZN11QTextStreamrsERd@Qt_6 6.1.2
 _ZN11QTextStreamrsERf@Qt_6 6.1.2
 _ZN11QTextStreamrsERi@Qt_6 6.1.2
 _ZN11QTextStreamrsERj@Qt_6 6.1.2
 _ZN11QTextStreamrsERl@Qt_6 6.1.2
 _ZN11QTextStreamrsERm@Qt_6 6.1.2
 _ZN11QTextStreamrsERs@Qt_6 6.1.2
 _ZN11QTextStreamrsERt@Qt_6 6.1.2
 _ZN11QTextStreamrsERx@Qt_6 6.1.2
 _ZN11QTextStreamrsERy@Qt_6 6.1.2
 _ZN11QThreadPool11qt_metacallEN11QMetaObject4CallEiPPv@Qt_6 6.1.2
 _ZN11QThreadPool11qt_metacastEPKc@Qt_6 6.1.2
 _ZN11QThreadPool11waitForDoneEi@Qt_6 6.1.2
 _ZN11QThreadPool12setStackSizeEj@Qt_6 6.1.2
 _ZN11QThreadPool13releaseThreadEv@Qt_6 6.1.2
 _ZN11QThreadPool13reserveThreadEv@Qt_6 6.1.2
 _ZN11QThreadPool14globalInstanceEv@Qt_6 6.1.2
 _ZN11QThreadPool16setExpiryTimeoutEi@Qt_6 6.1.2
 _ZN11QThreadPool16staticMetaObjectE@Qt_6 6.1.2
 _ZN11QThreadPool17setMaxThreadCountEi@Qt_6 6.1.2
 _ZN11QThreadPool17setThreadPriorityEN7QThread8PriorityE@Qt_6 6.2.0
 _ZN11QThreadPool21startOnReservedThreadEP9QRunnable@Qt_6 6.3.0
 _ZN11QThreadPool21startOnReservedThreadESt8functionIFvvEE@Qt_6 6.3.0
 _ZN11QThreadPool5clearEv@Qt_6 6.1.2
 _ZN11QThreadPool5startEP9QRunnablei@Qt_6 6.1.2
 _ZN11QThreadPool5startESt8functionIFvvEEi@Qt_6 6.1.2
 _ZN11QThreadPool7tryTakeEP9QRunnable@Qt_6 6.1.2
 _ZN11QThreadPool8tryStartEP9QRunnable@Qt_6 6.1.2
 _ZN11QThreadPool8tryStartESt8functionIFvvEE@Qt_6 6.1.2
 _ZN11QThreadPoolC1EP7QObject@Qt_6 6.1.2
 _ZN11QThreadPoolC2EP7QObject@Qt_6 6.1.2
 _ZN11QThreadPoolD0Ev@Qt_6 6.1.2
 _ZN11QThreadPoolD1Ev@Qt_6 6.1.2
 _ZN11QThreadPoolD2Ev@Qt_6 6.1.2
 _ZN11QTimerEventC1ERKS_@Qt_6 6.4.0
 _ZN11QTimerEventC1Ei@Qt_6 6.1.2
 _ZN11QTimerEventC2ERKS_@Qt_6 6.4.0
 _ZN11QTimerEventC2Ei@Qt_6 6.1.2
 _ZN11QTimerEventD0Ev@Qt_6 6.1.2
 _ZN11QTimerEventD1Ev@Qt_6 6.1.2
 _ZN11QTimerEventD2Ev@Qt_6 6.1.2
 _ZN11QTranslator11qt_metacallEN11QMetaObject4CallEiPPv@Qt_6 6.1.2
 _ZN11QTranslator11qt_metacastEPKc@Qt_6 6.1.2
 _ZN11QTranslator16staticMetaObjectE@Qt_6 6.1.2
 _ZN11QTranslator4loadEPKhiRK7QString@Qt_6 6.1.2
 _ZN11QTranslator4loadERK7QLocaleRK7QStringS5_S5_S5_@Qt_6 6.1.2
 _ZN11QTranslator4loadERK7QStringS2_S2_S2_@Qt_6 6.1.2
 _ZN11QTranslatorC1EP7QObject@Qt_6 6.1.2
 _ZN11QTranslatorC2EP7QObject@Qt_6 6.1.2
 _ZN11QTranslatorD0Ev@Qt_6 6.1.2
 _ZN11QTranslatorD1Ev@Qt_6 6.1.2
 _ZN11QTranslatorD2Ev@Qt_6 6.1.2
 _ZN12QDirIterator12nextFileInfoEv@Qt_6 6.3.0
 _ZN12QDirIterator4nextEv@Qt_6 6.1.2
 _ZN12QDirIteratorC1ERK4QDir6QFlagsINS_12IteratorFlagEE@Qt_6 6.1.2
 _ZN12QDirIteratorC1ERK7QString6QFlagsIN4QDir6FilterEES3_INS_12IteratorFlagEE@Qt_6 6.1.2
 _ZN12QDirIteratorC1ERK7QString6QFlagsINS_12IteratorFlagEE@Qt_6 6.1.2
 _ZN12QDirIteratorC1ERK7QStringRK5QListIS0_E6QFlagsIN4QDir6FilterEES7_INS_12IteratorFlagEE@Qt_6 6.1.2
 _ZN12QDirIteratorC2ERK4QDir6QFlagsINS_12IteratorFlagEE@Qt_6 6.1.2
 _ZN12QDirIteratorC2ERK7QString6QFlagsIN4QDir6FilterEES3_INS_12IteratorFlagEE@Qt_6 6.1.2
 _ZN12QDirIteratorC2ERK7QString6QFlagsINS_12IteratorFlagEE@Qt_6 6.1.2
 _ZN12QDirIteratorC2ERK7QStringRK5QListIS0_E6QFlagsIN4QDir6FilterEES7_INS_12IteratorFlagEE@Qt_6 6.1.2
 _ZN12QDirIteratorD1Ev@Qt_6 6.1.2
 _ZN12QDirIteratorD2Ev@Qt_6 6.1.2
 _ZN12QEasingCurve12setAmplitudeEd@Qt_6 6.1.2
 _ZN12QEasingCurve12setOvershootEd@Qt_6 6.1.2
 _ZN12QEasingCurve13addTCBSegmentERK7QPointFddd@Qt_6 6.1.2
 _ZN12QEasingCurve13setCustomTypeEPFddE@Qt_6 6.1.2
 _ZN12QEasingCurve16staticMetaObjectE@Qt_6 6.1.2
 _ZN12QEasingCurve21addCubicBezierSegmentERK7QPointFS2_S2_@Qt_6 6.1.2
 _ZN12QEasingCurve7setTypeENS_4TypeE@Qt_6 6.1.2
 _ZN12QEasingCurve9setPeriodEd@Qt_6 6.1.2
 _ZN12QEasingCurveC1ENS_4TypeE@Qt_6 6.1.2
 _ZN12QEasingCurveC1ERKS_@Qt_6 6.1.2
 _ZN12QEasingCurveC2ENS_4TypeE@Qt_6 6.1.2
 _ZN12QEasingCurveC2ERKS_@Qt_6 6.1.2
 _ZN12QEasingCurveD1Ev@Qt_6 6.1.2
 _ZN12QEasingCurveD2Ev@Qt_6 6.1.2
 _ZN12QLibraryInfo12isDebugBuildEv@Qt_6 6.1.2
 _ZN12QLibraryInfo23platformPluginArgumentsERK7QString@Qt_6 6.1.2
 _ZN12QLibraryInfo4pathENS_11LibraryPathE@Qt_6 6.1.2
 _ZN12QLibraryInfo5buildEv@Qt_6 6.1.2
 _ZN12QLibraryInfo7versionEv@Qt_6 6.1.2
 _ZN12QLibraryInfoC1Ev@Qt_6 6.1.2
 _ZN12QLibraryInfoC2Ev@Qt_6 6.1.2
 _ZN12QStorageInfo14mountedVolumesEv@Qt_6 6.1.2
 _ZN12QStorageInfo4rootEv@Qt_6 6.1.2
 _ZN12QStorageInfo7refreshEv@Qt_6 6.1.2
 _ZN12QStorageInfo7setPathERK7QString@Qt_6 6.1.2
 _ZN12QStorageInfoC1ERK4QDir@Qt_6 6.1.2
 _ZN12QStorageInfoC1ERK7QString@Qt_6 6.1.2
 _ZN12QStorageInfoC1ERKS_@Qt_6 6.1.2
 _ZN12QStorageInfoC1Ev@Qt_6 6.1.2
 _ZN12QStorageInfoC2ERK4QDir@Qt_6 6.1.2
 _ZN12QStorageInfoC2ERK7QString@Qt_6 6.1.2
 _ZN12QStorageInfoC2ERKS_@Qt_6 6.1.2
 _ZN12QStorageInfoC2Ev@Qt_6 6.1.2
 _ZN12QStorageInfoD1Ev@Qt_6 6.1.2
 _ZN12QStorageInfoD2Ev@Qt_6 6.1.2
 _ZN12QStorageInfoaSERKS_@Qt_6 6.1.2
 _ZN12QSystemError6stringENS_10ErrorScopeEi@Qt_6 6.1.2
 _ZN12QSystemError9stdStringEi@Qt_6 6.1.2
 (subst)_ZN12QtDebugUtils11toPrintableEPKcx{qptrdiff}@Qt_6 6.4.0
 _ZN13QCborValueRef12concreteTypeES_@Qt_6 6.1.2
 _ZN13QCborValueRef6assignES_O10QCborValue@Qt_6 6.1.2
 _ZN13QCborValueRef6assignES_RK10QCborValue@Qt_6 6.1.2
 _ZN13QCborValueRef6assignES_S_@Qt_6 6.1.2
 _ZN13QCborValueRef6toCborER17QCborStreamWriter6QFlagsIN10QCborValue14EncodingOptionEE@Qt_6 6.1.2
 _ZN13QCborValueRef8concreteES_@Qt_6 6.1.2
 _ZN13QCborValueRefixE13QLatin1String@Qt_6 6.1.2
 _ZN13QCborValueRefixERK7QString@Qt_6 6.1.2
 _ZN13QCborValueRefixEx@Qt_6 6.1.2
 _ZN13QElapsedTimer10invalidateEv@Qt_6 6.1.2
 _ZN13QElapsedTimer11isMonotonicEv@Qt_6 6.1.2
 _ZN13QElapsedTimer5startEv@Qt_6 6.1.2
 _ZN13QElapsedTimer7restartEv@Qt_6 6.1.2
 _ZN13QElapsedTimer9clockTypeEv@Qt_6 6.1.2
 _ZN13QFileSelector11qt_metacallEN11QMetaObject4CallEiPPv@Qt_6 6.1.2
 _ZN13QFileSelector11qt_metacastEPKc@Qt_6 6.1.2
 _ZN13QFileSelector16staticMetaObjectE@Qt_6 6.1.2
 _ZN13QFileSelector17setExtraSelectorsERK5QListI7QStringE@Qt_6 6.1.2
 _ZN13QFileSelectorC1EP7QObject@Qt_6 6.1.2
 _ZN13QFileSelectorC2EP7QObject@Qt_6 6.1.2
 _ZN13QFileSelectorD0Ev@Qt_6 6.1.2
 _ZN13QFileSelectorD1Ev@Qt_6 6.1.2
 _ZN13QFileSelectorD2Ev@Qt_6 6.1.2
 _ZN13QJsonDocument11fromVariantERK8QVariant@Qt_6 6.1.2
 _ZN13QJsonDocument4swapERS_@Qt_6 6.1.2
 _ZN13QJsonDocument8fromJsonERK10QByteArrayP15QJsonParseError@Qt_6 6.1.2
 _ZN13QJsonDocument8setArrayERK10QJsonArray@Qt_6 6.1.2
 _ZN13QJsonDocument9setObjectERK11QJsonObject@Qt_6 6.1.2
 _ZN13QJsonDocumentC1EOS_@Qt_6 6.1.2
 _ZN13QJsonDocumentC1ERK10QCborValue@Qt_6 6.1.2
 _ZN13QJsonDocumentC1ERK10QJsonArray@Qt_6 6.1.2
 _ZN13QJsonDocumentC1ERK11QJsonObject@Qt_6 6.1.2
 _ZN13QJsonDocumentC1ERKS_@Qt_6 6.1.2
 _ZN13QJsonDocumentC1Ev@Qt_6 6.1.2
 _ZN13QJsonDocumentC2EOS_@Qt_6 6.1.2
 _ZN13QJsonDocumentC2ERK10QCborValue@Qt_6 6.1.2
 _ZN13QJsonDocumentC2ERK10QJsonArray@Qt_6 6.1.2
 _ZN13QJsonDocumentC2ERK11QJsonObject@Qt_6 6.1.2
 _ZN13QJsonDocumentC2ERKS_@Qt_6 6.1.2
 _ZN13QJsonDocumentC2Ev@Qt_6 6.1.2
 _ZN13QJsonDocumentD1Ev@Qt_6 6.1.2
 _ZN13QJsonDocumentD2Ev@Qt_6 6.1.2
 _ZN13QJsonDocumentaSERKS_@Qt_6 6.1.2
 _ZN13QJsonValueRef6detachEv@Qt_6 6.4.0
 _ZN13QJsonValueRefaSERK10QJsonValue@Qt_6 6.1.2
 _ZN13QJsonValueRefaSERKS_@Qt_6 6.1.2
 (subst)_ZN13QLatin1String14compare_helperEPK5QChar{qptrdiff}S_N2Qt15CaseSensitivityE@Qt_6 6.1.2
 _ZN13QMetaProperty19getMetaPropertyDataEPK11QMetaObjecti@Qt_6 6.1.2
 _ZN13QMetaPropertyC1EPK11QMetaObjecti@Qt_6 6.1.2
 _ZN13QMetaPropertyC2EPK11QMetaObjecti@Qt_6 6.1.2
 _ZN13QMetaSequence12MetaSequenceI10QByteArrayE5valueE@Qt_6 6.1.2
 _ZN13QMetaSequence12MetaSequenceI5QListI10QByteArrayEE5valueE@Qt_6 6.1.2
 _ZN13QMetaSequence12MetaSequenceI5QListI11QModelIndexEE5valueE@Qt_6 6.1.2
 _ZN13QMetaSequence12MetaSequenceI5QListI21QPersistentModelIndexEE5valueE@Qt_6 6.1.2
 _ZN13QMetaSequence12MetaSequenceI5QListI7QStringEE5valueE@Qt_6 6.1.2
 _ZN13QMetaSequence12MetaSequenceI5QListI8QVariantEE5valueE@Qt_6 6.1.2
 _ZN13QMetaSequence12MetaSequenceI5QListIN2Qt9DayOfWeekEEE5valueE@Qt_6 6.1.2
 _ZN13QMetaSequence12MetaSequenceI5QListIiEE5valueE@Qt_6 6.1.2
 _ZN13QMetaSequence12MetaSequenceI7QStringE5valueE@Qt_6 6.1.2
 _ZN13QMimeDatabaseC1Ev@Qt_6 6.1.2
 _ZN13QMimeDatabaseC2Ev@Qt_6 6.1.2
 _ZN13QMimeDatabaseD1Ev@Qt_6 6.1.2
 _ZN13QMimeDatabaseD2Ev@Qt_6 6.1.2
 _ZN13QPluginLoader11qt_metacallEN11QMetaObject4CallEiPPv@Qt_6 6.1.2
 _ZN13QPluginLoader11qt_metacastEPKc@Qt_6 6.1.2
 _ZN13QPluginLoader11setFileNameERK7QString@Qt_6 6.1.2
 _ZN13QPluginLoader12setLoadHintsE6QFlagsIN8QLibrary8LoadHintEE@Qt_6 6.1.2
 _ZN13QPluginLoader13staticPluginsEv@Qt_6 6.1.2
 _ZN13QPluginLoader15staticInstancesEv@Qt_6 6.1.2
 _ZN13QPluginLoader16staticMetaObjectE@Qt_6 6.1.2
 _ZN13QPluginLoader4loadEv@Qt_6 6.1.2
 _ZN13QPluginLoader6unloadEv@Qt_6 6.1.2
 _ZN13QPluginLoader8instanceEv@Qt_6 6.1.2
 _ZN13QPluginLoaderC1EP7QObject@Qt_6 6.1.2
 _ZN13QPluginLoaderC1ERK7QStringP7QObject@Qt_6 6.1.2
 _ZN13QPluginLoaderC2EP7QObject@Qt_6 6.1.2
 _ZN13QPluginLoaderC2ERK7QStringP7QObject@Qt_6 6.1.2
 _ZN13QPluginLoaderD0Ev@Qt_6 6.1.2
 _ZN13QPluginLoaderD1Ev@Qt_6 6.1.2
 _ZN13QPluginLoaderD2Ev@Qt_6 6.1.2
 _ZN13QSharedMemory11qt_metacallEN11QMetaObject4CallEiPPv@Qt_6 6.1.2
 _ZN13QSharedMemory11qt_metacastEPKc@Qt_6 6.1.2
 _ZN13QSharedMemory12setNativeKeyERK7QString@Qt_6 6.1.2
 _ZN13QSharedMemory16staticMetaObjectE@Qt_6 6.1.2
 _ZN13QSharedMemory4dataEv@Qt_6 6.1.2
 _ZN13QSharedMemory4lockEv@Qt_6 6.1.2
 _ZN13QSharedMemory6attachENS_10AccessModeE@Qt_6 6.1.2
 (subst)_ZN13QSharedMemory6createE{qptrdiff}NS_10AccessModeE@Qt_6 6.1.2
 _ZN13QSharedMemory6detachEv@Qt_6 6.1.2
 _ZN13QSharedMemory6setKeyERK7QString@Qt_6 6.1.2
 _ZN13QSharedMemory6unlockEv@Qt_6 6.1.2
 _ZN13QSharedMemoryC1EP7QObject@Qt_6 6.1.2
 _ZN13QSharedMemoryC1ERK7QStringP7QObject@Qt_6 6.1.2
 _ZN13QSharedMemoryC2EP7QObject@Qt_6 6.1.2
 _ZN13QSharedMemoryC2ERK7QStringP7QObject@Qt_6 6.1.2
 _ZN13QSharedMemoryD0Ev@Qt_6 6.1.2
 _ZN13QSharedMemoryD1Ev@Qt_6 6.1.2
 _ZN13QSharedMemoryD2Ev@Qt_6 6.1.2
 _ZN13QSignalMapper10setMappingEP7QObjectRK7QString@Qt_6 6.1.2
 _ZN13QSignalMapper10setMappingEP7QObjectS1_@Qt_6 6.1.2
 _ZN13QSignalMapper10setMappingEP7QObjecti@Qt_6 6.1.2
 _ZN13QSignalMapper11qt_metacallEN11QMetaObject4CallEiPPv@Qt_6 6.1.2
 _ZN13QSignalMapper11qt_metacastEPKc@Qt_6 6.1.2
 _ZN13QSignalMapper12mappedObjectEP7QObject@Qt_6 6.1.2
 _ZN13QSignalMapper12mappedStringERK7QString@Qt_6 6.1.2
 _ZN13QSignalMapper14removeMappingsEP7QObject@Qt_6 6.1.2
 _ZN13QSignalMapper16staticMetaObjectE@Qt_6 6.1.2
 _ZN13QSignalMapper3mapEP7QObject@Qt_6 6.1.2
 _ZN13QSignalMapper3mapEv@Qt_6 6.1.2
 _ZN13QSignalMapper9mappedIntEi@Qt_6 6.1.2
 _ZN13QSignalMapperC1EP7QObject@Qt_6 6.1.2
 _ZN13QSignalMapperC2EP7QObject@Qt_6 6.1.2
 _ZN13QSignalMapperD0Ev@Qt_6 6.1.2
 _ZN13QSignalMapperD1Ev@Qt_6 6.1.2
 _ZN13QSignalMapperD2Ev@Qt_6 6.1.2
 _ZN13QTemporaryDir13setAutoRemoveEb@Qt_6 6.1.2
 _ZN13QTemporaryDir6removeEv@Qt_6 6.1.2
 _ZN13QTemporaryDirC1ERK7QString@Qt_6 6.1.2
 _ZN13QTemporaryDirC1Ev@Qt_6 6.1.2
 _ZN13QTemporaryDirC2ERK7QString@Qt_6 6.1.2
 _ZN13QTemporaryDirC2Ev@Qt_6 6.1.2
 _ZN13QTemporaryDirD1Ev@Qt_6 6.1.2
 _ZN13QTemporaryDirD2Ev@Qt_6 6.1.2
 (subst)_ZN13QUnicodeTools11initScriptsE11QStringViewP15QVarLengthArrayINS_10ScriptItemEL{qptrdiff}64EE@Qt_6 6.1.2
 (subst)_ZN13QUnicodeTools18initCharAttributesE11QStringViewPKNS_10ScriptItemE{qptrdiff}P15QCharAttributes6QFlagsINS_19CharAttributeOptionEE@Qt_6 6.1.2
 _ZN14QAnyStringView5equalES_S_@Qt_6 6.1.2
 _ZN14QAnyStringView7compareES_S_N2Qt15CaseSensitivityE@Qt_6 6.1.2
 _ZN14QDeadlineTimer11setDeadlineExN2Qt9TimerTypeE@Qt_6 6.1.2
 _ZN14QDeadlineTimer12setTimerTypeEN2Qt9TimerTypeE@Qt_6 6.1.2
 _ZN14QDeadlineTimer16setRemainingTimeExN2Qt9TimerTypeE@Qt_6 6.1.2
 _ZN14QDeadlineTimer18setPreciseDeadlineExxN2Qt9TimerTypeE@Qt_6 6.1.2
 _ZN14QDeadlineTimer23setPreciseRemainingTimeExxN2Qt9TimerTypeE@Qt_6 6.1.2
 _ZN14QDeadlineTimer7currentEN2Qt9TimerTypeE@Qt_6 6.1.2
 _ZN14QDeadlineTimer8addNSecsES_x@Qt_6 6.1.2
 _ZN14QDeadlineTimerC1ExN2Qt9TimerTypeE@Qt_6 6.1.2
 _ZN14QDeadlineTimerC2ExN2Qt9TimerTypeE@Qt_6 6.1.2
 _ZN14QItemSelection5mergeERKS_6QFlagsIN19QItemSelectionModel13SelectionFlagEE@Qt_6 6.1.2
 _ZN14QItemSelection5splitERK19QItemSelectionRangeS2_PS_@Qt_6 6.1.2
 _ZN14QItemSelection6selectERK11QModelIndexS2_@Qt_6 6.1.2
 _ZN14QItemSelectionC1ERK11QModelIndexS2_@Qt_6 6.1.2
 _ZN14QItemSelectionC2ERK11QModelIndexS2_@Qt_6 6.1.2
 _ZN14QReadWriteLock11lockForReadEv@Qt_6 6.1.2
 _ZN14QReadWriteLock12lockForWriteEv@Qt_6 6.1.2
 _ZN14QReadWriteLock14tryLockForReadEi@Qt_6 6.1.2
 _ZN14QReadWriteLock14tryLockForReadEv@Qt_6 6.1.2
 _ZN14QReadWriteLock15tryLockForWriteEi@Qt_6 6.1.2
 _ZN14QReadWriteLock15tryLockForWriteEv@Qt_6 6.1.2
 _ZN14QReadWriteLock6unlockEv@Qt_6 6.1.2
 _ZN14QReadWriteLockC1ENS_13RecursionModeE@Qt_6 6.1.2
 _ZN14QReadWriteLockC2ENS_13RecursionModeE@Qt_6 6.1.2
 _ZN14QReadWriteLockD1Ev@Qt_6 6.1.2
 _ZN14QReadWriteLockD2Ev@Qt_6 6.1.2
 _ZN14QStandardPaths11displayNameENS_16StandardLocationE@Qt_6 6.1.2
 _ZN14QStandardPaths14findExecutableERK7QStringRK5QListIS0_E@Qt_6 6.1.2
 _ZN14QStandardPaths16staticMetaObjectE@Qt_6 6.1.2
 _ZN14QStandardPaths16writableLocationENS_16StandardLocationE@Qt_6 6.1.2
 _ZN14QStandardPaths17isTestModeEnabledEv@Qt_6 6.1.2
 _ZN14QStandardPaths17standardLocationsENS_16StandardLocationE@Qt_6 6.1.2
 _ZN14QStandardPaths18setTestModeEnabledEb@Qt_6 6.1.2
 _ZN14QStandardPaths6locateENS_16StandardLocationERK7QString6QFlagsINS_12LocateOptionEE@Qt_6 6.1.2
 _ZN14QStandardPaths9locateAllENS_16StandardLocationERK7QString6QFlagsINS_12LocateOptionEE@Qt_6 6.1.2
 _ZN14QStringDecoder14decoderForHtmlE14QByteArrayView@Qt_6 6.4.0
 _ZN14QStringMatcher10setPatternERK7QString@Qt_6 6.1.2
 _ZN14QStringMatcher15updateSkipTableEv@Qt_6 6.1.2
 _ZN14QStringMatcher18setCaseSensitivityEN2Qt15CaseSensitivityE@Qt_6 6.1.2
 _ZN14QStringMatcherC1E11QStringViewN2Qt15CaseSensitivityE@Qt_6 6.1.2
 _ZN14QStringMatcherC1ERK7QStringN2Qt15CaseSensitivityE@Qt_6 6.1.2
 _ZN14QStringMatcherC1ERKS_@Qt_6 6.1.2
 _ZN14QStringMatcherC2E11QStringViewN2Qt15CaseSensitivityE@Qt_6 6.1.2
 _ZN14QStringMatcherC2ERK7QStringN2Qt15CaseSensitivityE@Qt_6 6.1.2
 _ZN14QStringMatcherC2ERKS_@Qt_6 6.1.2
 _ZN14QStringMatcherD1Ev@Qt_6 6.1.2
 _ZN14QStringMatcherD2Ev@Qt_6 6.1.2
 _ZN14QStringMatcheraSERKS_@Qt_6 6.1.2
 _ZN14QTemporaryFile11qt_metacallEN11QMetaObject4CallEiPPv@Qt_6 6.1.2
 _ZN14QTemporaryFile11qt_metacastEPKc@Qt_6 6.1.2
 _ZN14QTemporaryFile13setAutoRemoveEb@Qt_6 6.1.2
 _ZN14QTemporaryFile15setFileTemplateERK7QString@Qt_6 6.1.2
 _ZN14QTemporaryFile16createNativeFileER5QFile@Qt_6 6.1.2
 _ZN14QTemporaryFile16staticMetaObjectE@Qt_6 6.1.2
 _ZN14QTemporaryFile4openE6QFlagsIN13QIODeviceBase12OpenModeFlagEE@Qt_6 6.1.2
 _ZN14QTemporaryFile6renameERK7QString@Qt_6 6.1.2
 _ZN14QTemporaryFileC1EP7QObject@Qt_6 6.1.2
 _ZN14QTemporaryFileC1ERK7QString@Qt_6 6.1.2
 _ZN14QTemporaryFileC1ERK7QStringP7QObject@Qt_6 6.1.2
 _ZN14QTemporaryFileC1Ev@Qt_6 6.1.2
 _ZN14QTemporaryFileC2EP7QObject@Qt_6 6.1.2
 _ZN14QTemporaryFileC2ERK7QString@Qt_6 6.1.2
 _ZN14QTemporaryFileC2ERK7QStringP7QObject@Qt_6 6.1.2
 _ZN14QTemporaryFileC2Ev@Qt_6 6.1.2
 _ZN14QTemporaryFileD0Ev@Qt_6 6.1.2
 _ZN14QTemporaryFileD1Ev@Qt_6 6.1.2
 _ZN14QTemporaryFileD2Ev@Qt_6 6.1.2
 _ZN14QUnicodeTables10idnaStatusEDi@Qt_6 6.3.0
 _ZN14QUnicodeTables10propertiesEDi@Qt_6 6.1.2
 _ZN14QUnicodeTables10propertiesEDs@Qt_6 6.1.2
 _ZN14QUnicodeTables11idnaMappingEDi@Qt_6 6.3.0
 _ZN14QUnicodeTables14eastAsianWidthEDi@Qt_6 6.3.1
 _ZN14QUnicodeTables14lineBreakClassEDi@Qt_6 6.1.2
 _ZN14QUnicodeTables14wordBreakClassEDi@Qt_6 6.1.2
 _ZN14QUnicodeTables18graphemeBreakClassEDi@Qt_6 6.1.2
 _ZN14QUnicodeTables18sentenceBreakClassEDi@Qt_6 6.1.2
 _ZN14QVersionNumber10fromStringE11QStringViewPi@Qt_6 6.1.2
 _ZN14QVersionNumber10fromStringE13QLatin1StringPi@Qt_6 6.1.2
 (subst)_ZN14QVersionNumber10fromStringE14QAnyStringViewP{qptrdiff}@Qt_6 6.4.0
 _ZN14QVersionNumber10fromStringERK7QStringPi@Qt_6 6.1.2
 _ZN14QVersionNumber12commonPrefixERKS_S1_@Qt_6 6.1.2
 _ZN14QVersionNumber14SegmentStorage11setListDataEO5QListIiE@Qt_6 6.4.0
 _ZN14QVersionNumber14SegmentStorage11setListDataEPKiS2_@Qt_6 6.4.0
 _ZN14QVersionNumber14SegmentStorage11setListDataERK5QListIiE@Qt_6 6.4.0
 (subst)_ZN14QVersionNumber14SegmentStorage6resizeE{qptrdiff}@Qt_6 6.4.0
 _ZN14QVersionNumber14SegmentStorage9setVectorEiiii@Qt_6 6.1.2
 _ZN14QVersionNumber7compareERKS_S1_@Qt_6 6.1.2
 _ZN14QWaitCondition4waitEP14QReadWriteLock14QDeadlineTimer@Qt_6 6.1.2
 _ZN14QWaitCondition4waitEP14QReadWriteLockm@Qt_6 6.1.2
 _ZN14QWaitCondition4waitEP6QMutex14QDeadlineTimer@Qt_6 6.1.2
 _ZN14QWaitCondition4waitEP6QMutexm@Qt_6 6.1.2
 _ZN14QWaitCondition7wakeAllEv@Qt_6 6.1.2
 _ZN14QWaitCondition7wakeOneEv@Qt_6 6.1.2
 _ZN14QWaitConditionC1Ev@Qt_6 6.1.2
 _ZN14QWaitConditionC2Ev@Qt_6 6.1.2
 _ZN14QWaitConditionD1Ev@Qt_6 6.1.2
 _ZN14QWaitConditionD2Ev@Qt_6 6.1.2
 _ZN15QAnimationGroup11qt_metacallEN11QMetaObject4CallEiPPv@Qt_6 6.1.2
 _ZN15QAnimationGroup11qt_metacastEPKc@Qt_6 6.1.2
 _ZN15QAnimationGroup12addAnimationEP18QAbstractAnimation@Qt_6 6.1.2
 _ZN15QAnimationGroup13takeAnimationEi@Qt_6 6.1.2
 _ZN15QAnimationGroup15insertAnimationEiP18QAbstractAnimation@Qt_6 6.1.2
 _ZN15QAnimationGroup15removeAnimationEP18QAbstractAnimation@Qt_6 6.1.2
 _ZN15QAnimationGroup16staticMetaObjectE@Qt_6 6.1.2
 _ZN15QAnimationGroup5clearEv@Qt_6 6.1.2
 _ZN15QAnimationGroup5eventEP6QEvent@Qt_6 6.1.2
 _ZN15QAnimationGroupC1EP7QObject@Qt_6 6.1.2
 _ZN15QAnimationGroupC1ER22QAnimationGroupPrivateP7QObject@Qt_6 6.1.2
 _ZN15QAnimationGroupC2EP7QObject@Qt_6 6.1.2
 _ZN15QAnimationGroupC2ER22QAnimationGroupPrivateP7QObject@Qt_6 6.1.2
 _ZN15QAnimationGroupD0Ev@Qt_6 6.1.2
 _ZN15QAnimationGroupD1Ev@Qt_6 6.1.2
 _ZN15QAnimationGroupD2Ev@Qt_6 6.1.2
 _ZN15QBindingStorage18bindingData_helperEP20QUntypedPropertyDatab@Qt_6 6.1.2
 _ZN15QBindingStorage21reinitAfterThreadMoveEv@Qt_6 6.4.0
 _ZN15QBindingStorage5clearEv@Qt_6 6.2.0
 _ZN15QBindingStorageC1Ev@Qt_6 6.1.2
 _ZN15QBindingStorageC2Ev@Qt_6 6.1.2
 _ZN15QBindingStorageD1Ev@Qt_6 6.1.2
 _ZN15QBindingStorageD2Ev@Qt_6 6.1.2
 _ZN15QIPAddressUtils8parseIp4ERjPK5QCharS3_@Qt_6 6.1.2
 _ZN15QIPAddressUtils8parseIp6ERA16_hPK5QCharS4_@Qt_6 6.1.2
 _ZN15QIPAddressUtils8toStringER7QStringPKh@Qt_6 6.1.2
 _ZN15QIPAddressUtils8toStringER7QStringj@Qt_6 6.1.2
 _ZN15QPauseAnimation11qt_metacallEN11QMetaObject4CallEiPPv@Qt_6 6.1.2
 _ZN15QPauseAnimation11qt_metacastEPKc@Qt_6 6.1.2
 _ZN15QPauseAnimation11setDurationEi@Qt_6 6.1.2
 _ZN15QPauseAnimation16bindableDurationEv@Qt_6 6.1.2
 _ZN15QPauseAnimation16staticMetaObjectE@Qt_6 6.1.2
 _ZN15QPauseAnimation17updateCurrentTimeEi@Qt_6 6.1.2
 _ZN15QPauseAnimation5eventEP6QEvent@Qt_6 6.1.2
 _ZN15QPauseAnimationC1EP7QObject@Qt_6 6.1.2
 _ZN15QPauseAnimationC1EiP7QObject@Qt_6 6.1.2
 _ZN15QPauseAnimationC2EP7QObject@Qt_6 6.1.2
 _ZN15QPauseAnimationC2EiP7QObject@Qt_6 6.1.2
 _ZN15QPauseAnimationD0Ev@Qt_6 6.1.2
 _ZN15QPauseAnimationD1Ev@Qt_6 6.1.2
 _ZN15QPauseAnimationD2Ev@Qt_6 6.1.2
 _ZN15QRecursiveMutex6unlockEv@Qt_6 6.1.2
 _ZN15QRecursiveMutex7tryLockEi@Qt_6 6.1.2
 _ZN15QRecursiveMutexD1Ev@Qt_6 6.1.2
 _ZN15QRecursiveMutexD2Ev@Qt_6 6.1.2
 _ZN15QSocketNotifier10setEnabledEb@Qt_6 6.1.2
 _ZN15QSocketNotifier11qt_metacallEN11QMetaObject4CallEiPPv@Qt_6 6.1.2
 _ZN15QSocketNotifier11qt_metacastEPKc@Qt_6 6.1.2
 _ZN15QSocketNotifier16staticMetaObjectE@Qt_6 6.1.2
 _ZN15QSocketNotifier5eventEP6QEvent@Qt_6 6.1.2
 _ZN15QSocketNotifier9activatedE17QSocketDescriptorNS_4TypeENS_14QPrivateSignalE@Qt_6 6.1.2
 _ZN15QSocketNotifier9activatedEiNS_14QPrivateSignalE@Qt_6 6.1.2
 (subst)_ZN15QSocketNotifier9setSocketE{qptrdiff}@Qt_6 6.1.2
 _ZN15QSocketNotifierC1ENS_4TypeEP7QObject@Qt_6 6.1.2
 (subst)_ZN15QSocketNotifierC1E{qptrdiff}NS_4TypeEP7QObject@Qt_6 6.1.2
 _ZN15QSocketNotifierC2ENS_4TypeEP7QObject@Qt_6 6.1.2
 (subst)_ZN15QSocketNotifierC2E{qptrdiff}NS_4TypeEP7QObject@Qt_6 6.1.2
 _ZN15QSocketNotifierD0Ev@Qt_6 6.1.2
 _ZN15QSocketNotifierD1Ev@Qt_6 6.1.2
 _ZN15QSocketNotifierD2Ev@Qt_6 6.1.2
 _ZN15QtSharedPointer20ExternalRefCountData16setQObjectSharedEPK7QObjectb@Qt_6 6.1.2
 _ZN15QtSharedPointer20ExternalRefCountData18checkQObjectSharedEPK7QObject@Qt_6 6.1.2
 _ZN15QtSharedPointer20ExternalRefCountData9getAndRefEPK7QObject@Qt_6 6.1.2
 _ZN15QtSharedPointer22internalSafetyCheckAddEPKvPVKv@Qt_6 6.1.2
 _ZN15QtSharedPointer25internalSafetyCheckRemoveEPKv@Qt_6 6.1.2
 _ZN15QtSharedPointer31weakPointerFromVariant_internalERK8QVariant@Qt_6 6.1.2
 _ZN15QtSharedPointer33sharedPointerFromVariant_internalERK8QVariant@Qt_6 6.1.2
 _ZN16QAnimationDriver11qt_metacallEN11QMetaObject4CallEiPPv@Qt_6 6.1.2
 _ZN16QAnimationDriver11qt_metacastEPKc@Qt_6 6.1.2
 _ZN16QAnimationDriver16advanceAnimationEv@Qt_6 6.1.2
 _ZN16QAnimationDriver16staticMetaObjectE@Qt_6 6.1.2
 _ZN16QAnimationDriver4stopEv@Qt_6 6.1.2
 _ZN16QAnimationDriver5startEv@Qt_6 6.1.2
 _ZN16QAnimationDriver7advanceEv@Qt_6 6.1.2
 _ZN16QAnimationDriver7installEv@Qt_6 6.1.2
 _ZN16QAnimationDriver7startedEv@Qt_6 6.1.2
 _ZN16QAnimationDriver7stoppedEv@Qt_6 6.1.2
 _ZN16QAnimationDriver9uninstallEv@Qt_6 6.1.2
 _ZN16QAnimationDriverC1EP7QObject@Qt_6 6.1.2
 _ZN16QAnimationDriverC2EP7QObject@Qt_6 6.1.2
 _ZN16QAnimationDriverD0Ev@Qt_6 6.1.2
 _ZN16QAnimationDriverD1Ev@Qt_6 6.1.2
 _ZN16QAnimationDriverD2Ev@Qt_6 6.1.2
 _ZN16QCollatorSortKeyC1EP23QCollatorSortKeyPrivate@Qt_6 6.1.2
 _ZN16QCollatorSortKeyC1ERKS_@Qt_6 6.1.2
 _ZN16QCollatorSortKeyC2EP23QCollatorSortKeyPrivate@Qt_6 6.1.2
 _ZN16QCollatorSortKeyC2ERKS_@Qt_6 6.1.2
 _ZN16QCollatorSortKeyD1Ev@Qt_6 6.1.2
 _ZN16QCollatorSortKeyD2Ev@Qt_6 6.1.2
 _ZN16QCollatorSortKeyaSERKS_@Qt_6 6.1.2
 _ZN16QCoreApplication10startingUpEv@Qt_6 6.1.2
 _ZN16QCoreApplication11aboutToQuitENS_14QPrivateSignalE@Qt_6 6.1.2
 _ZN16QCoreApplication11closingDownEv@Qt_6 6.1.2
 _ZN16QCoreApplication11qt_metacallEN11QMetaObject4CallEiPPv@Qt_6 6.1.2
 _ZN16QCoreApplication11qt_metacastEPKc@Qt_6 6.1.2
 _ZN16QCoreApplication12forwardEventEP7QObjectP6QEventS3_@Qt_6 6.1.2
 _ZN16QCoreApplication12libraryPathsEv@Qt_6 6.1.2
 _ZN16QCoreApplication12setAttributeEN2Qt20ApplicationAttributeEb@Qt_6 6.1.2
 _ZN16QCoreApplication13compressEventEP6QEventP7QObjectP14QPostEventList@Qt_6 6.1.2
 _ZN16QCoreApplication13processEventsE6QFlagsIN10QEventLoop17ProcessEventsFlagEE@Qt_6 6.1.2
 _ZN16QCoreApplication13processEventsE6QFlagsIN10QEventLoop17ProcessEventsFlagEEi@Qt_6 6.1.2
 _ZN16QCoreApplication13testAttributeEN2Qt20ApplicationAttributeE@Qt_6 6.1.2
 _ZN16QCoreApplication14addLibraryPathERK7QString@Qt_6 6.1.2
 _ZN16QCoreApplication14applicationPidEv@Qt_6 6.1.2
 _ZN16QCoreApplication15applicationNameEv@Qt_6 6.1.2
 _ZN16QCoreApplication15eventDispatcherEv@Qt_6 6.1.2
 _ZN16QCoreApplication15isSetuidAllowedEv@Qt_6 6.1.2
 _ZN16QCoreApplication15notifyInternal2EP7QObjectP6QEvent@Qt_6 6.1.2
 _ZN16QCoreApplication15setLibraryPathsERK5QListI7QStringE@Qt_6 6.1.2
 _ZN16QCoreApplication16organizationNameEv@Qt_6 6.1.2
 _ZN16QCoreApplication16removeTranslatorEP11QTranslator@Qt_6 6.1.2
 _ZN16QCoreApplication16sendPostedEventsEP7QObjecti@Qt_6 6.1.2
 _ZN16QCoreApplication16setSetuidAllowedEb@Qt_6 6.1.2
 _ZN16QCoreApplication16staticMetaObjectE@Qt_6 6.1.2
 _ZN16QCoreApplication17installTranslatorEP11QTranslator@Qt_6 6.1.2
 _ZN16QCoreApplication17isQuitLockEnabledEv@Qt_6 6.1.2
 _ZN16QCoreApplication17removeLibraryPathERK7QString@Qt_6 6.1.2
 _ZN16QCoreApplication18applicationDirPathEv@Qt_6 6.1.2
 _ZN16QCoreApplication18applicationVersionEv@Qt_6 6.1.2
 _ZN16QCoreApplication18libraryPathsLockedEv@Qt_6 6.1.2
 _ZN16QCoreApplication18organizationDomainEv@Qt_6 6.1.2
 _ZN16QCoreApplication18removePostedEventsEP7QObjecti@Qt_6 6.1.2
 _ZN16QCoreApplication18setApplicationNameERK7QString@Qt_6 6.1.2
 _ZN16QCoreApplication18setEventDispatcherEP24QAbstractEventDispatcher@Qt_6 6.1.2
 _ZN16QCoreApplication18setQuitLockEnabledEb@Qt_6 6.1.2
 _ZN16QCoreApplication19applicationFilePathEv@Qt_6 6.1.2
 _ZN16QCoreApplication19setOrganizationNameERK7QString@Qt_6 6.1.2
 _ZN16QCoreApplication20sendSpontaneousEventEP7QObjectP6QEvent@Qt_6 6.1.2
 _ZN16QCoreApplication21setApplicationVersionERK7QString@Qt_6 6.1.2
 _ZN16QCoreApplication21setOrganizationDomainERK7QString@Qt_6 6.1.2
 _ZN16QCoreApplication22applicationNameChangedEv@Qt_6 6.1.2
 _ZN16QCoreApplication23organizationNameChangedEv@Qt_6 6.1.2
 _ZN16QCoreApplication23removeNativeEventFilterEP26QAbstractNativeEventFilter@Qt_6 6.1.2
 _ZN16QCoreApplication24installNativeEventFilterEP26QAbstractNativeEventFilter@Qt_6 6.1.2
 _ZN16QCoreApplication25applicationVersionChangedEv@Qt_6 6.1.2
 _ZN16QCoreApplication25organizationDomainChangedEv@Qt_6 6.1.2
 _ZN16QCoreApplication4execEv@Qt_6 6.1.2
 _ZN16QCoreApplication4exitEi@Qt_6 6.1.2
 _ZN16QCoreApplication4quitEv@Qt_6 6.1.2
 _ZN16QCoreApplication4selfE@Qt_6 6.1.2
 _ZN16QCoreApplication5eventEP6QEvent@Qt_6 6.1.2
 _ZN16QCoreApplication6notifyEP7QObjectP6QEvent@Qt_6 6.1.2
 _ZN16QCoreApplication9argumentsEv@Qt_6 6.1.2
 _ZN16QCoreApplication9postEventEP7QObjectP6QEventi@Qt_6 6.1.2
 _ZN16QCoreApplication9sendEventEP7QObjectP6QEvent@Qt_6 6.1.2
 _ZN16QCoreApplication9translateEPKcS1_S1_i@Qt_6 6.1.2
 _ZN16QCoreApplicationC1ERiPPci@Qt_6 6.1.2
 _ZN16QCoreApplicationC2ERiPPci@Qt_6 6.1.2
 _ZN16QCoreApplicationD0Ev@Qt_6 6.1.2
 _ZN16QCoreApplicationD1Ev@Qt_6 6.1.2
 _ZN16QCoreApplicationD2Ev@Qt_6 6.1.2
 _ZN16QDebugStateSaverC1ER6QDebug@Qt_6 6.1.2
 _ZN16QDebugStateSaverC2ER6QDebug@Qt_6 6.1.2
 _ZN16QDebugStateSaverD1Ev@Qt_6 6.1.2
 _ZN16QDebugStateSaverD2Ev@Qt_6 6.1.2
 _ZN16QEventLoopLockerC1EP10QEventLoop@Qt_6 6.1.2
 _ZN16QEventLoopLockerC1EP7QThread@Qt_6 6.1.2
 _ZN16QEventLoopLockerC1Ev@Qt_6 6.1.2
 _ZN16QEventLoopLockerC2EP10QEventLoop@Qt_6 6.1.2
 _ZN16QEventLoopLockerC2EP7QThread@Qt_6 6.1.2
 _ZN16QEventLoopLockerC2Ev@Qt_6 6.1.2
 _ZN16QEventLoopLockerD1Ev@Qt_6 6.1.2
 _ZN16QEventLoopLockerD2Ev@Qt_6 6.1.2
 _ZN16QFileSystemEntry10isRootPathERK7QString@Qt_6 6.1.2
 _ZN16QLockFilePrivate16processNameByPidEx@Qt_6 6.1.2
 _ZN16QLoggingCategory10setEnabledE9QtMsgTypeb@Qt_6 6.1.2
 _ZN16QLoggingCategory13installFilterEPFvPS_E@Qt_6 6.1.2
 _ZN16QLoggingCategory14setFilterRulesERK7QString@Qt_6 6.1.2
 _ZN16QLoggingCategory15defaultCategoryEv@Qt_6 6.1.2
 _ZN16QLoggingCategory4initEPKc9QtMsgType@Qt_6 6.1.2
 _ZN16QLoggingCategoryC1EPKc9QtMsgType@Qt_6 6.1.2
 _ZN16QLoggingCategoryC2EPKc9QtMsgType@Qt_6 6.1.2
 _ZN16QLoggingCategoryD1Ev@Qt_6 6.1.2
 _ZN16QLoggingCategoryD2Ev@Qt_6 6.1.2
 _ZN16QMetaAssociation15MetaAssociationI4QMapI7QString8QVariantEE5valueE@Qt_6 6.1.2
 _ZN16QMetaAssociation15MetaAssociationI5QHashI7QString8QVariantEE5valueE@Qt_6 6.1.2
 (subst)_ZN16QRandomGenerator10_fillRangeEPv{qptrdiff}@Qt_6 6.1.2
 _ZN16QRandomGenerator7discardEy@Qt_6 6.1.2
 _ZN16QRandomGeneratorC1EPKjS1_@Qt_6 6.1.2
 _ZN16QRandomGeneratorC1ERKS_@Qt_6 6.1.2
 _ZN16QRandomGeneratorC1ERSt8seed_seq@Qt_6 6.1.2
 _ZN16QRandomGeneratorC2EPKjS1_@Qt_6 6.1.2
 _ZN16QRandomGeneratorC2ERKS_@Qt_6 6.1.2
 _ZN16QRandomGeneratorC2ERSt8seed_seq@Qt_6 6.1.2
 _ZN16QRandomGeneratoraSERKS_@Qt_6 6.1.2
 _ZN16QStringConverter15encodingForDataE14QByteArrayViewDs@Qt_6 6.1.2
 _ZN16QStringConverter15encodingForHtmlE14QByteArrayView@Qt_6 6.1.2
 _ZN16QStringConverter15encodingForNameEPKc@Qt_6 6.1.2
 _ZN16QStringConverter15nameForEncodingENS_8EncodingE@Qt_6 6.1.2
 _ZN16QStringConverter18encodingInterfacesE@Qt_6 6.1.2
 _ZN16QStringConverterC1EPKc6QFlagsIN20QStringConverterBase4FlagEE@Qt_6 6.1.2
 _ZN16QStringConverterC2EPKc6QFlagsIN20QStringConverterBase4FlagEE@Qt_6 6.1.2
 _ZN16QStringListModel10insertRowsEiiRK11QModelIndex@Qt_6 6.1.2
 _ZN16QStringListModel10removeRowsEiiRK11QModelIndex@Qt_6 6.1.2
 _ZN16QStringListModel11qt_metacallEN11QMetaObject4CallEiPPv@Qt_6 6.1.2
 _ZN16QStringListModel11qt_metacastEPKc@Qt_6 6.1.2
 _ZN16QStringListModel11setItemDataERK11QModelIndexRK4QMapIi8QVariantE@Qt_6 6.1.2
 _ZN16QStringListModel13clearItemDataERK11QModelIndex@Qt_6 6.1.2
 _ZN16QStringListModel13setStringListERK5QListI7QStringE@Qt_6 6.1.2
 _ZN16QStringListModel16staticMetaObjectE@Qt_6 6.1.2
 _ZN16QStringListModel4sortEiN2Qt9SortOrderE@Qt_6 6.1.2
 _ZN16QStringListModel7setDataERK11QModelIndexRK8QVarianti@Qt_6 6.1.2
 _ZN16QStringListModel8moveRowsERK11QModelIndexiiS2_i@Qt_6 6.1.2
 _ZN16QStringListModelC1EP7QObject@Qt_6 6.1.2
 _ZN16QStringListModelC1ERK5QListI7QStringEP7QObject@Qt_6 6.1.2
 _ZN16QStringListModelC2EP7QObject@Qt_6 6.1.2
 _ZN16QStringListModelC2ERK5QListI7QStringEP7QObject@Qt_6 6.1.2
 _ZN16QSystemSemaphore6setKeyERK7QStringiNS_10AccessModeE@Qt_6 6.1.2
 _ZN16QSystemSemaphore7acquireEv@Qt_6 6.1.2
 _ZN16QSystemSemaphore7releaseEi@Qt_6 6.1.2
 _ZN16QSystemSemaphoreC1ERK7QStringiNS_10AccessModeE@Qt_6 6.1.2
 _ZN16QSystemSemaphoreC2ERK7QStringiNS_10AccessModeE@Qt_6 6.1.2
 _ZN16QSystemSemaphoreD1Ev@Qt_6 6.1.2
 _ZN16QSystemSemaphoreD2Ev@Qt_6 6.1.2
 _ZN16QXmlStreamReader10raiseErrorERK7QString@Qt_6 6.1.2
 _ZN16QXmlStreamReader15readElementTextENS_24ReadElementTextBehaviourE@Qt_6 6.1.2
 _ZN16QXmlStreamReader17setEntityResolverEP24QXmlStreamEntityResolver@Qt_6 6.1.2
 _ZN16QXmlStreamReader18skipCurrentElementEv@Qt_6 6.1.2
 _ZN16QXmlStreamReader20readNextStartElementEv@Qt_6 6.1.2
 _ZN16QXmlStreamReader22setNamespaceProcessingEb@Qt_6 6.1.2
 _ZN16QXmlStreamReader23setEntityExpansionLimitEi@Qt_6 6.1.2
 _ZN16QXmlStreamReader28addExtraNamespaceDeclarationERK30QXmlStreamNamespaceDeclaration@Qt_6 6.1.2
 _ZN16QXmlStreamReader29addExtraNamespaceDeclarationsERK5QListI30QXmlStreamNamespaceDeclarationE@Qt_6 6.1.2
 _ZN16QXmlStreamReader5clearEv@Qt_6 6.1.2
 _ZN16QXmlStreamReader7addDataEPKc@Qt_6 6.1.2
 _ZN16QXmlStreamReader7addDataERK10QByteArray@Qt_6 6.1.2
 _ZN16QXmlStreamReader7addDataERK7QString@Qt_6 6.1.2
 _ZN16QXmlStreamReader8readNextEv@Qt_6 6.1.2
 _ZN16QXmlStreamReader9setDeviceEP9QIODevice@Qt_6 6.1.2
 _ZN16QXmlStreamReaderC1EP9QIODevice@Qt_6 6.1.2
 _ZN16QXmlStreamReaderC1EPKc@Qt_6 6.1.2
 _ZN16QXmlStreamReaderC1ERK10QByteArray@Qt_6 6.1.2
 _ZN16QXmlStreamReaderC1ERK7QString@Qt_6 6.1.2
 _ZN16QXmlStreamReaderC1Ev@Qt_6 6.1.2
 _ZN16QXmlStreamReaderC2EP9QIODevice@Qt_6 6.1.2
 _ZN16QXmlStreamReaderC2EPKc@Qt_6 6.1.2
 _ZN16QXmlStreamReaderC2ERK10QByteArray@Qt_6 6.1.2
 _ZN16QXmlStreamReaderC2ERK7QString@Qt_6 6.1.2
 _ZN16QXmlStreamReaderC2Ev@Qt_6 6.1.2
 _ZN16QXmlStreamReaderD1Ev@Qt_6 6.1.2
 _ZN16QXmlStreamReaderD2Ev@Qt_6 6.1.2
 _ZN16QXmlStreamWriter10writeCDATAERK7QString@Qt_6 6.1.2
 _ZN16QXmlStreamWriter12writeCommentERK7QString@Qt_6 6.1.2
 _ZN16QXmlStreamWriter14writeAttributeERK19QXmlStreamAttribute@Qt_6 6.1.2
 _ZN16QXmlStreamWriter14writeAttributeERK7QStringS2_@Qt_6 6.1.2
 _ZN16QXmlStreamWriter14writeAttributeERK7QStringS2_S2_@Qt_6 6.1.2
 _ZN16QXmlStreamWriter14writeNamespaceERK7QStringS2_@Qt_6 6.1.2
 _ZN16QXmlStreamWriter15writeAttributesERK20QXmlStreamAttributes@Qt_6 6.1.2
 _ZN16QXmlStreamWriter15writeCharactersERK7QString@Qt_6 6.1.2
 _ZN16QXmlStreamWriter15writeEndElementEv@Qt_6 6.1.2
 _ZN16QXmlStreamWriter16writeEndDocumentEv@Qt_6 6.1.2
 _ZN16QXmlStreamWriter16writeTextElementERK7QStringS2_@Qt_6 6.1.2
 _ZN16QXmlStreamWriter16writeTextElementERK7QStringS2_S2_@Qt_6 6.1.2
 _ZN16QXmlStreamWriter17setAutoFormattingEb@Qt_6 6.1.2
 _ZN16QXmlStreamWriter17writeCurrentTokenERK16QXmlStreamReader@Qt_6 6.1.2
 _ZN16QXmlStreamWriter17writeEmptyElementERK7QString@Qt_6 6.1.2
 _ZN16QXmlStreamWriter17writeEmptyElementERK7QStringS2_@Qt_6 6.1.2
 _ZN16QXmlStreamWriter17writeStartElementERK7QString@Qt_6 6.1.2
 _ZN16QXmlStreamWriter17writeStartElementERK7QStringS2_@Qt_6 6.1.2
 _ZN16QXmlStreamWriter18writeStartDocumentERK7QString@Qt_6 6.1.2
 _ZN16QXmlStreamWriter18writeStartDocumentERK7QStringb@Qt_6 6.1.2
 _ZN16QXmlStreamWriter18writeStartDocumentEv@Qt_6 6.1.2
 _ZN16QXmlStreamWriter20writeEntityReferenceERK7QString@Qt_6 6.1.2
 _ZN16QXmlStreamWriter21writeDefaultNamespaceERK7QString@Qt_6 6.1.2
 _ZN16QXmlStreamWriter23setAutoFormattingIndentEi@Qt_6 6.1.2
 _ZN16QXmlStreamWriter26writeProcessingInstructionERK7QStringS2_@Qt_6 6.1.2
 _ZN16QXmlStreamWriter8writeDTDERK7QString@Qt_6 6.1.2
 _ZN16QXmlStreamWriter9setDeviceEP9QIODevice@Qt_6 6.1.2
 _ZN16QXmlStreamWriterC1EP10QByteArray@Qt_6 6.1.2
 _ZN16QXmlStreamWriterC1EP7QString@Qt_6 6.1.2
 _ZN16QXmlStreamWriterC1EP9QIODevice@Qt_6 6.1.2
 _ZN16QXmlStreamWriterC1Ev@Qt_6 6.1.2
 _ZN16QXmlStreamWriterC2EP10QByteArray@Qt_6 6.1.2
 _ZN16QXmlStreamWriterC2EP7QString@Qt_6 6.1.2
 _ZN16QXmlStreamWriterC2EP9QIODevice@Qt_6 6.1.2
 _ZN16QXmlStreamWriterC2Ev@Qt_6 6.1.2
 _ZN16QXmlStreamWriterD1Ev@Qt_6 6.1.2
 _ZN16QXmlStreamWriterD2Ev@Qt_6 6.1.2
 _ZN17QByteArrayMatcher10setPatternERK10QByteArray@Qt_6 6.1.2
 (subst)_ZN17QByteArrayMatcherC1EPKc{qptrdiff}@Qt_6 6.1.2
 _ZN17QByteArrayMatcherC1ERK10QByteArray@Qt_6 6.1.2
 _ZN17QByteArrayMatcherC1ERKS_@Qt_6 6.1.2
 _ZN17QByteArrayMatcherC1Ev@Qt_6 6.1.2
 (subst)_ZN17QByteArrayMatcherC2EPKc{qptrdiff}@Qt_6 6.1.2
 _ZN17QByteArrayMatcherC2ERK10QByteArray@Qt_6 6.1.2
 _ZN17QByteArrayMatcherC2ERKS_@Qt_6 6.1.2
 _ZN17QByteArrayMatcherC2Ev@Qt_6 6.1.2
 _ZN17QByteArrayMatcherD1Ev@Qt_6 6.1.2
 _ZN17QByteArrayMatcherD2Ev@Qt_6 6.1.2
 _ZN17QByteArrayMatcheraSERKS_@Qt_6 6.1.2
 _ZN17QCborStreamReader14leaveContainerEv@Qt_6 6.1.2
 (subst)_ZN17QCborStreamReader15readStringChunkEPc{qptrdiff}@Qt_6 6.1.2
 _ZN17QCborStreamReader16staticMetaObjectE@Qt_6 6.1.2
 _ZN17QCborStreamReader18_readString_helperEv@Qt_6 6.1.2
 _ZN17QCborStreamReader21_readByteArray_helperEv@Qt_6 6.1.2
 _ZN17QCborStreamReader22_enterContainer_helperEv@Qt_6 6.1.2
 _ZN17QCborStreamReader4nextEi@Qt_6 6.1.2
 _ZN17QCborStreamReader5clearEv@Qt_6 6.1.2
 _ZN17QCborStreamReader5resetEv@Qt_6 6.1.2
 (subst)_ZN17QCborStreamReader7addDataEPKc{qptrdiff}@Qt_6 6.1.2
 _ZN17QCborStreamReader7addDataERK10QByteArray@Qt_6 6.1.2
 _ZN17QCborStreamReader7reparseEv@Qt_6 6.1.2
 _ZN17QCborStreamReader9lastErrorEv@Qt_6 6.1.2
 _ZN17QCborStreamReader9setDeviceEP9QIODevice@Qt_6 6.1.2
 _ZN17QCborStreamReaderC1EP9QIODevice@Qt_6 6.1.2
 (subst)_ZN17QCborStreamReaderC1EPKc{qptrdiff}@Qt_6 6.1.2
 (subst)_ZN17QCborStreamReaderC1EPKh{qptrdiff}@Qt_6 6.1.2
 _ZN17QCborStreamReaderC1ERK10QByteArray@Qt_6 6.1.2
 _ZN17QCborStreamReaderC1Ev@Qt_6 6.1.2
 _ZN17QCborStreamReaderC2EP9QIODevice@Qt_6 6.1.2
 (subst)_ZN17QCborStreamReaderC2EPKc{qptrdiff}@Qt_6 6.1.2
 (subst)_ZN17QCborStreamReaderC2EPKh{qptrdiff}@Qt_6 6.1.2
 _ZN17QCborStreamReaderC2ERK10QByteArray@Qt_6 6.1.2
 _ZN17QCborStreamReaderC2Ev@Qt_6 6.1.2
 _ZN17QCborStreamReaderD1Ev@Qt_6 6.1.2
 _ZN17QCborStreamReaderD2Ev@Qt_6 6.1.2
 _ZN17QCborStreamWriter10startArrayEv@Qt_6 6.1.2
 _ZN17QCborStreamWriter10startArrayEy@Qt_6 6.1.2
 (subst)_ZN17QCborStreamWriter16appendByteStringEPKc{qptrdiff}@Qt_6 6.1.2
 (subst)_ZN17QCborStreamWriter16appendTextStringEPKc{qptrdiff}@Qt_6 6.1.2
 _ZN17QCborStreamWriter6appendE11QStringView@Qt_6 6.1.2
 _ZN17QCborStreamWriter6appendE13QLatin1String@Qt_6 6.1.2
 _ZN17QCborStreamWriter6appendE15QCborSimpleType@Qt_6 6.1.2
 _ZN17QCborStreamWriter6appendE20QCborNegativeInteger@Qt_6 6.1.2
 _ZN17QCborStreamWriter6appendE8QCborTag@Qt_6 6.1.2
 _ZN17QCborStreamWriter6appendE8qfloat16@Qt_6 6.1.2
 _ZN17QCborStreamWriter6appendEd@Qt_6 6.1.2
 _ZN17QCborStreamWriter6appendEf@Qt_6 6.1.2
 _ZN17QCborStreamWriter6appendEx@Qt_6 6.1.2
 _ZN17QCborStreamWriter6appendEy@Qt_6 6.1.2
 _ZN17QCborStreamWriter6endMapEv@Qt_6 6.1.2
 _ZN17QCborStreamWriter8endArrayEv@Qt_6 6.1.2
 _ZN17QCborStreamWriter8startMapEv@Qt_6 6.1.2
 _ZN17QCborStreamWriter8startMapEy@Qt_6 6.1.2
 _ZN17QCborStreamWriter9setDeviceEP9QIODevice@Qt_6 6.1.2
 _ZN17QCborStreamWriterC1EP10QByteArray@Qt_6 6.1.2
 _ZN17QCborStreamWriterC1EP9QIODevice@Qt_6 6.1.2
 _ZN17QCborStreamWriterC2EP10QByteArray@Qt_6 6.1.2
 _ZN17QCborStreamWriterC2EP9QIODevice@Qt_6 6.1.2
 _ZN17QCborStreamWriterD1Ev@Qt_6 6.1.2
 _ZN17QCborStreamWriterD2Ev@Qt_6 6.1.2
 _ZN17QFactoryInterfaceD0Ev@Qt_6 6.1.2
 _ZN17QFactoryInterfaceD1Ev@Qt_6 6.1.2
 _ZN17QFactoryInterfaceD2Ev@Qt_6 6.1.2
 _ZN17QPropertyObserver9setSourceERKN9QtPrivate20QPropertyBindingDataE@Qt_6 6.1.2
 _ZN17QPropertyObserverC1EOS_@Qt_6 6.1.2
 _ZN17QPropertyObserverC1EP20QUntypedPropertyData@Qt_6 6.1.2
 _ZN17QPropertyObserverC1EPFvPS_P20QUntypedPropertyDataE@Qt_6 6.1.2
 _ZN17QPropertyObserverC2EOS_@Qt_6 6.1.2
 _ZN17QPropertyObserverC2EP20QUntypedPropertyData@Qt_6 6.1.2
 _ZN17QPropertyObserverC2EPFvPS_P20QUntypedPropertyDataE@Qt_6 6.1.2
 _ZN17QPropertyObserverD1Ev@Qt_6 6.1.2
 _ZN17QPropertyObserverD2Ev@Qt_6 6.1.2
 _ZN17QPropertyObserveraSEOS_@Qt_6 6.1.2
 _ZN17QVariantAnimation11qt_metacallEN11QMetaObject4CallEiPPv@Qt_6 6.1.2
 _ZN17QVariantAnimation11qt_metacastEPKc@Qt_6 6.1.2
 _ZN17QVariantAnimation11setDurationEi@Qt_6 6.1.2
 _ZN17QVariantAnimation11setEndValueERK8QVariant@Qt_6 6.1.2
 _ZN17QVariantAnimation11updateStateEN18QAbstractAnimation5StateES1_@Qt_6 6.1.2
 _ZN17QVariantAnimation12setKeyValuesERK5QListISt4pairId8QVariantEE@Qt_6 6.1.2
 _ZN17QVariantAnimation12valueChangedERK8QVariant@Qt_6 6.1.2
 _ZN17QVariantAnimation13setKeyValueAtEdRK8QVariant@Qt_6 6.1.2
 _ZN17QVariantAnimation13setStartValueERK8QVariant@Qt_6 6.1.2
 _ZN17QVariantAnimation14setEasingCurveERK12QEasingCurve@Qt_6 6.1.2
 _ZN17QVariantAnimation16bindableDurationEv@Qt_6 6.2.0
 _ZN17QVariantAnimation16staticMetaObjectE@Qt_6 6.1.2
 _ZN17QVariantAnimation17updateCurrentTimeEi@Qt_6 6.1.2
 _ZN17QVariantAnimation18updateCurrentValueERK8QVariant@Qt_6 6.1.2
 _ZN17QVariantAnimation19bindableEasingCurveEv@Qt_6 6.2.0
 _ZN17QVariantAnimation20registerInterpolatorEPF8QVariantPKvS2_dEi@Qt_6 6.1.2
 _ZN17QVariantAnimation5eventEP6QEvent@Qt_6 6.1.2
 _ZN17QVariantAnimationC1EP7QObject@Qt_6 6.1.2
 _ZN17QVariantAnimationC1ER24QVariantAnimationPrivateP7QObject@Qt_6 6.1.2
 _ZN17QVariantAnimationC2EP7QObject@Qt_6 6.1.2
 _ZN17QVariantAnimationC2ER24QVariantAnimationPrivateP7QObject@Qt_6 6.1.2
 _ZN17QVariantAnimationD0Ev@Qt_6 6.1.2
 _ZN17QVariantAnimationD1Ev@Qt_6 6.1.2
 _ZN17QVariantAnimationD2Ev@Qt_6 6.1.2
 _ZN18QAbstractAnimation11qt_metacallEN11QMetaObject4CallEiPPv@Qt_6 6.1.2
 _ZN18QAbstractAnimation11qt_metacastEPKc@Qt_6 6.1.2
 _ZN18QAbstractAnimation11updateStateENS_5StateES0_@Qt_6 6.1.2
 _ZN18QAbstractAnimation12setDirectionENS_9DirectionE@Qt_6 6.1.2
 _ZN18QAbstractAnimation12setLoopCountEi@Qt_6 6.1.2
 _ZN18QAbstractAnimation12stateChangedENS_5StateES0_@Qt_6 6.1.2
 _ZN18QAbstractAnimation14setCurrentTimeEi@Qt_6 6.1.2
 _ZN18QAbstractAnimation15updateDirectionENS_9DirectionE@Qt_6 6.1.2
 _ZN18QAbstractAnimation16directionChangedENS_9DirectionE@Qt_6 6.1.2
 _ZN18QAbstractAnimation16staticMetaObjectE@Qt_6 6.1.2
 _ZN18QAbstractAnimation17bindableDirectionEv@Qt_6 6.2.0
 _ZN18QAbstractAnimation17bindableLoopCountEv@Qt_6 6.2.0
 _ZN18QAbstractAnimation18currentLoopChangedEi@Qt_6 6.1.2
 _ZN18QAbstractAnimation19bindableCurrentTimeEv@Qt_6 6.2.0
 _ZN18QAbstractAnimation4stopEv@Qt_6 6.1.2
 _ZN18QAbstractAnimation5eventEP6QEvent@Qt_6 6.1.2
 _ZN18QAbstractAnimation5pauseEv@Qt_6 6.1.2
 _ZN18QAbstractAnimation5startENS_14DeletionPolicyE@Qt_6 6.1.2
 _ZN18QAbstractAnimation6resumeEv@Qt_6 6.1.2
 _ZN18QAbstractAnimation8finishedEv@Qt_6 6.1.2
 _ZN18QAbstractAnimation9setPausedEb@Qt_6 6.1.2
 _ZN18QAbstractAnimationC1EP7QObject@Qt_6 6.1.2
 _ZN18QAbstractAnimationC1ER25QAbstractAnimationPrivateP7QObject@Qt_6 6.1.2
 _ZN18QAbstractAnimationC2EP7QObject@Qt_6 6.1.2
 _ZN18QAbstractAnimationC2ER25QAbstractAnimationPrivateP7QObject@Qt_6 6.1.2
 _ZN18QAbstractAnimationD0Ev@Qt_6 6.1.2
 _ZN18QAbstractAnimationD1Ev@Qt_6 6.1.2
 _ZN18QAbstractAnimationD2Ev@Qt_6 6.1.2
 _ZN18QAbstractItemModel10decodeDataEiiRK11QModelIndexR11QDataStream@Qt_6 6.1.2
 _ZN18QAbstractItemModel10insertRowsEiiRK11QModelIndex@Qt_6 6.1.2
 _ZN18QAbstractItemModel10modelResetENS_14QPrivateSignalE@Qt_6 6.1.2
 _ZN18QAbstractItemModel10removeRowsEiiRK11QModelIndex@Qt_6 6.1.2
 _ZN18QAbstractItemModel11dataChangedERK11QModelIndexS2_RK5QListIiE@Qt_6 6.1.2
 _ZN18QAbstractItemModel11endMoveRowsEv@Qt_6 6.1.2
 _ZN18QAbstractItemModel11moveColumnsERK11QModelIndexiiS2_i@Qt_6 6.1.2
 _ZN18QAbstractItemModel11qt_metacallEN11QMetaObject4CallEiPPv@Qt_6 6.1.2
 _ZN18QAbstractItemModel11qt_metacastEPKc@Qt_6 6.1.2
 _ZN18QAbstractItemModel11rowsRemovedERK11QModelIndexiiNS_14QPrivateSignalE@Qt_6 6.1.2
 _ZN18QAbstractItemModel11setItemDataERK11QModelIndexRK4QMapIi8QVariantE@Qt_6 6.1.2
 _ZN18QAbstractItemModel12columnsMovedERK11QModelIndexiiS2_iNS_14QPrivateSignalE@Qt_6 6.1.2
 _ZN18QAbstractItemModel12dropMimeDataEPK9QMimeDataN2Qt10DropActionEiiRK11QModelIndex@Qt_6 6.1.2
 _ZN18QAbstractItemModel12rowsInsertedERK11QModelIndexiiNS_14QPrivateSignalE@Qt_6 6.1.2
 _ZN18QAbstractItemModel13beginMoveRowsERK11QModelIndexiiS2_i@Qt_6 6.1.2
 _ZN18QAbstractItemModel13clearItemDataERK11QModelIndex@Qt_6 6.1.2
 _ZN18QAbstractItemModel13endInsertRowsEv@Qt_6 6.1.2
 _ZN18QAbstractItemModel13endRemoveRowsEv@Qt_6 6.1.2
 _ZN18QAbstractItemModel13endResetModelEv@Qt_6 6.1.2
 _ZN18QAbstractItemModel13insertColumnsEiiRK11QModelIndex@Qt_6 6.1.2
 _ZN18QAbstractItemModel13layoutChangedERK5QListI21QPersistentModelIndexENS_16LayoutChangeHintE@Qt_6 6.1.2
 _ZN18QAbstractItemModel13removeColumnsEiiRK11QModelIndex@Qt_6 6.1.2
 _ZN18QAbstractItemModel13setHeaderDataEiN2Qt11OrientationERK8QVarianti@Qt_6 6.1.2
 _ZN18QAbstractItemModel14columnsRemovedERK11QModelIndexiiNS_14QPrivateSignalE@Qt_6 6.1.2
 _ZN18QAbstractItemModel14endMoveColumnsEv@Qt_6 6.1.2
 _ZN18QAbstractItemModel15beginInsertRowsERK11QModelIndexii@Qt_6 6.1.2
 _ZN18QAbstractItemModel15beginRemoveRowsERK11QModelIndexii@Qt_6 6.1.2
 _ZN18QAbstractItemModel15beginResetModelEv@Qt_6 6.1.2
 _ZN18QAbstractItemModel15columnsInsertedERK11QModelIndexiiNS_14QPrivateSignalE@Qt_6 6.1.2
 _ZN18QAbstractItemModel16beginMoveColumnsERK11QModelIndexiiS2_i@Qt_6 6.1.2
 _ZN18QAbstractItemModel16endInsertColumnsEv@Qt_6 6.1.2
 _ZN18QAbstractItemModel16endRemoveColumnsEv@Qt_6 6.1.2
 _ZN18QAbstractItemModel16staticMetaObjectE@Qt_6 6.1.2
 _ZN18QAbstractItemModel17headerDataChangedEN2Qt11OrientationEii@Qt_6 6.1.2
 _ZN18QAbstractItemModel17resetInternalDataEv@Qt_6 6.1.2
 _ZN18QAbstractItemModel18beginInsertColumnsERK11QModelIndexii@Qt_6 6.1.2
 _ZN18QAbstractItemModel18beginRemoveColumnsERK11QModelIndexii@Qt_6 6.1.2
 _ZN18QAbstractItemModel18rowsAboutToBeMovedERK11QModelIndexiiS2_iNS_14QPrivateSignalE@Qt_6 6.1.2
 _ZN18QAbstractItemModel19modelAboutToBeResetENS_14QPrivateSignalE@Qt_6 6.1.2
 _ZN18QAbstractItemModel20rowsAboutToBeRemovedERK11QModelIndexiiNS_14QPrivateSignalE@Qt_6 6.1.2
 _ZN18QAbstractItemModel21changePersistentIndexERK11QModelIndexS2_@Qt_6 6.1.2
 _ZN18QAbstractItemModel21columnsAboutToBeMovedERK11QModelIndexiiS2_iNS_14QPrivateSignalE@Qt_6 6.1.2
 _ZN18QAbstractItemModel21rowsAboutToBeInsertedERK11QModelIndexiiNS_14QPrivateSignalE@Qt_6 6.1.2
 _ZN18QAbstractItemModel22layoutAboutToBeChangedERK5QListI21QPersistentModelIndexENS_16LayoutChangeHintE@Qt_6 6.1.2
 _ZN18QAbstractItemModel23columnsAboutToBeRemovedERK11QModelIndexiiNS_14QPrivateSignalE@Qt_6 6.1.2
 _ZN18QAbstractItemModel24columnsAboutToBeInsertedERK11QModelIndexiiNS_14QPrivateSignalE@Qt_6 6.1.2
 _ZN18QAbstractItemModel25changePersistentIndexListERK5QListI11QModelIndexES4_@Qt_6 6.1.2
 _ZN18QAbstractItemModel4sortEiN2Qt9SortOrderE@Qt_6 6.1.2
 _ZN18QAbstractItemModel6revertEv@Qt_6 6.1.2
 _ZN18QAbstractItemModel6submitEv@Qt_6 6.1.2
 _ZN18QAbstractItemModel7setDataERK11QModelIndexRK8QVarianti@Qt_6 6.1.2
 _ZN18QAbstractItemModel8moveRowsERK11QModelIndexiiS2_i@Qt_6 6.1.2
 _ZN18QAbstractItemModel9fetchMoreERK11QModelIndex@Qt_6 6.1.2
 _ZN18QAbstractItemModel9rowsMovedERK11QModelIndexiiS2_iNS_14QPrivateSignalE@Qt_6 6.1.2
 _ZN18QAbstractItemModelC1EP7QObject@Qt_6 6.1.2
 _ZN18QAbstractItemModelC2EP7QObject@Qt_6 6.1.2
 _ZN18QAbstractItemModelD0Ev@Qt_6 6.1.2
 _ZN18QAbstractItemModelD1Ev@Qt_6 6.1.2
 _ZN18QAbstractItemModelD2Ev@Qt_6 6.1.2
 _ZN18QAbstractListModel11qt_metacallEN11QMetaObject4CallEiPPv@Qt_6 6.1.2
 _ZN18QAbstractListModel11qt_metacastEPKc@Qt_6 6.1.2
 _ZN18QAbstractListModel12dropMimeDataEPK9QMimeDataN2Qt10DropActionEiiRK11QModelIndex@Qt_6 6.1.2
 _ZN18QAbstractListModel16staticMetaObjectE@Qt_6 6.1.2
 _ZN18QAbstractListModelC1EP7QObject@Qt_6 6.1.2
 _ZN18QAbstractListModelC2EP7QObject@Qt_6 6.1.2
 _ZN18QAbstractListModelD0Ev@Qt_6 6.1.2
 _ZN18QAbstractListModelD1Ev@Qt_6 6.1.2
 _ZN18QAbstractListModelD2Ev@Qt_6 6.1.2
 _ZN18QCborValueConstRef12concreteTypeES_@Qt_6 6.4.0
 _ZN18QCborValueConstRef14concreteDoubleES_d@Qt_6 6.4.0
 _ZN18QCborValueConstRef14concreteStringES_RK7QString@Qt_6 6.4.0
 _ZN18QCborValueConstRef15concreteBooleanES_b@Qt_6 6.4.0
 _ZN18QCborValueConstRef16concreteIntegralES_x@Qt_6 6.4.0
 _ZN18QCborValueConstRef17concreteByteArrayES_RK10QByteArray@Qt_6 6.4.0
 _ZN18QCborValueConstRef8concreteES_@Qt_6 6.4.0
 _ZN18QCommandLineOption12setValueNameERK7QString@Qt_6 6.1.2
 _ZN18QCommandLineOption14setDescriptionERK7QString@Qt_6 6.1.2
 _ZN18QCommandLineOption15setDefaultValueERK7QString@Qt_6 6.1.2
 _ZN18QCommandLineOption16setDefaultValuesERK5QListI7QStringE@Qt_6 6.1.2
 _ZN18QCommandLineOption8setFlagsE6QFlagsINS_4FlagEE@Qt_6 6.1.2
 _ZN18QCommandLineOptionC1ERK5QListI7QStringE@Qt_6 6.1.2
 _ZN18QCommandLineOptionC1ERK5QListI7QStringERKS1_S6_S6_@Qt_6 6.1.2
 _ZN18QCommandLineOptionC1ERK7QString@Qt_6 6.1.2
 _ZN18QCommandLineOptionC1ERK7QStringS2_S2_S2_@Qt_6 6.1.2
 _ZN18QCommandLineOptionC1ERKS_@Qt_6 6.1.2
 _ZN18QCommandLineOptionC2ERK5QListI7QStringE@Qt_6 6.1.2
 _ZN18QCommandLineOptionC2ERK5QListI7QStringERKS1_S6_S6_@Qt_6 6.1.2
 _ZN18QCommandLineOptionC2ERK7QString@Qt_6 6.1.2
 _ZN18QCommandLineOptionC2ERK7QStringS2_S2_S2_@Qt_6 6.1.2
 _ZN18QCommandLineOptionC2ERKS_@Qt_6 6.1.2
 _ZN18QCommandLineOptionD1Ev@Qt_6 6.1.2
 _ZN18QCommandLineOptionD2Ev@Qt_6 6.1.2
 _ZN18QCommandLineOptionaSERKS_@Qt_6 6.1.2
 _ZN18QCommandLineParser10addOptionsERK5QListI18QCommandLineOptionE@Qt_6 6.1.2
 _ZN18QCommandLineParser11showVersionEv@Qt_6 6.1.2
 _ZN18QCommandLineParser13addHelpOptionEv@Qt_6 6.1.2
 _ZN18QCommandLineParser16addVersionOptionEv@Qt_6 6.1.2
 _ZN18QCommandLineParser21addPositionalArgumentERK7QStringS2_S2_@Qt_6 6.1.2
 _ZN18QCommandLineParser24clearPositionalArgumentsEv@Qt_6 6.1.2
 _ZN18QCommandLineParser25setApplicationDescriptionERK7QString@Qt_6 6.1.2
 _ZN18QCommandLineParser27setSingleDashWordOptionModeENS_24SingleDashWordOptionModeE@Qt_6 6.1.2
 _ZN18QCommandLineParser38setOptionsAfterPositionalArgumentsModeENS_35OptionsAfterPositionalArgumentsModeE@Qt_6 6.1.2
 _ZN18QCommandLineParser5parseERK5QListI7QStringE@Qt_6 6.1.2
 _ZN18QCommandLineParser7processERK16QCoreApplication@Qt_6 6.1.2
 _ZN18QCommandLineParser7processERK5QListI7QStringE@Qt_6 6.1.2
 _ZN18QCommandLineParser8showHelpEi@Qt_6 6.1.2
 _ZN18QCommandLineParser9addOptionERK18QCommandLineOption@Qt_6 6.1.2
 _ZN18QCommandLineParserC1Ev@Qt_6 6.1.2
 _ZN18QCommandLineParserC2Ev@Qt_6 6.1.2
 _ZN18QCommandLineParserD1Ev@Qt_6 6.1.2
 _ZN18QCommandLineParserD2Ev@Qt_6 6.1.2
 _ZN18QCryptographicHash10hashLengthENS_9AlgorithmE@Qt_6 6.1.2
 _ZN18QCryptographicHash16staticMetaObjectE@Qt_6 6.1.2
 _ZN18QCryptographicHash4hashE14QByteArrayViewNS_9AlgorithmE@Qt_6 6.3.0
 _ZN18QCryptographicHash4hashERK10QByteArrayNS_9AlgorithmE@Qt_6 6.1.2
 _ZN18QCryptographicHash5resetEv@Qt_6 6.1.2
 _ZN18QCryptographicHash7addDataE14QByteArrayView@Qt_6 6.3.0
 _ZN18QCryptographicHash7addDataEP9QIODevice@Qt_6 6.1.2
 (subst)_ZN18QCryptographicHash7addDataEPKc{qptrdiff}@Qt_6 6.1.2
 _ZN18QCryptographicHash7addDataERK10QByteArray@Qt_6 6.1.2
 _ZN18QCryptographicHashC1ENS_9AlgorithmE@Qt_6 6.1.2
 _ZN18QCryptographicHashC2ENS_9AlgorithmE@Qt_6 6.1.2
 _ZN18QCryptographicHashD1Ev@Qt_6 6.1.2
 _ZN18QCryptographicHashD2Ev@Qt_6 6.1.2
 _ZN18QFileSystemWatcher10removePathERK7QString@Qt_6 6.1.2
 _ZN18QFileSystemWatcher11fileChangedERK7QStringNS_14QPrivateSignalE@Qt_6 6.1.2
 _ZN18QFileSystemWatcher11qt_metacallEN11QMetaObject4CallEiPPv@Qt_6 6.1.2
 _ZN18QFileSystemWatcher11qt_metacastEPKc@Qt_6 6.1.2
 _ZN18QFileSystemWatcher11removePathsERK5QListI7QStringE@Qt_6 6.1.2
 _ZN18QFileSystemWatcher16directoryChangedERK7QStringNS_14QPrivateSignalE@Qt_6 6.1.2
 _ZN18QFileSystemWatcher16staticMetaObjectE@Qt_6 6.1.2
 _ZN18QFileSystemWatcher7addPathERK7QString@Qt_6 6.1.2
 _ZN18QFileSystemWatcher8addPathsERK5QListI7QStringE@Qt_6 6.1.2
 _ZN18QFileSystemWatcherC1EP7QObject@Qt_6 6.1.2
 _ZN18QFileSystemWatcherC1ERK5QListI7QStringEP7QObject@Qt_6 6.1.2
 _ZN18QFileSystemWatcherC2EP7QObject@Qt_6 6.1.2
 _ZN18QFileSystemWatcherC2ERK5QListI7QStringEP7QObject@Qt_6 6.1.2
 _ZN18QFileSystemWatcherD0Ev@Qt_6 6.1.2
 _ZN18QFileSystemWatcherD1Ev@Qt_6 6.1.2
 _ZN18QFileSystemWatcherD2Ev@Qt_6 6.1.2
 _ZN18QFutureWatcherBase10suspendingEv@Qt_6 6.1.2
 _ZN18QFutureWatcherBase11qt_metacallEN11QMetaObject4CallEiPPv@Qt_6 6.1.2
 _ZN18QFutureWatcherBase11qt_metacastEPKc@Qt_6 6.1.2
 _ZN18QFutureWatcherBase12setSuspendedEb@Qt_6 6.1.2
 _ZN18QFutureWatcherBase12togglePausedEv@Qt_6 6.1.2
 _ZN18QFutureWatcherBase13connectNotifyERK11QMetaMethod@Qt_6 6.1.2
 _ZN18QFutureWatcherBase13resultReadyAtEi@Qt_6 6.1.2
 _ZN18QFutureWatcherBase14resultsReadyAtEii@Qt_6 6.1.2
 _ZN18QFutureWatcherBase15toggleSuspendedEv@Qt_6 6.1.2
 _ZN18QFutureWatcherBase15waitForFinishedEv@Qt_6 6.1.2
 _ZN18QFutureWatcherBase16disconnectNotifyERK11QMetaMethod@Qt_6 6.1.2
 _ZN18QFutureWatcherBase16staticMetaObjectE@Qt_6 6.1.2
 _ZN18QFutureWatcherBase19progressTextChangedERK7QString@Qt_6 6.1.2
 _ZN18QFutureWatcherBase20progressRangeChangedEii@Qt_6 6.1.2
 _ZN18QFutureWatcherBase20progressValueChangedEi@Qt_6 6.1.2
 _ZN18QFutureWatcherBase22connectOutputInterfaceEv@Qt_6 6.1.2
 _ZN18QFutureWatcherBase22setPendingResultsLimitEi@Qt_6 6.1.2
 _ZN18QFutureWatcherBase25disconnectOutputInterfaceEb@Qt_6 6.1.2
 _ZN18QFutureWatcherBase5eventEP6QEvent@Qt_6 6.1.2
 _ZN18QFutureWatcherBase5pauseEv@Qt_6 6.1.2
 _ZN18QFutureWatcherBase6cancelEv@Qt_6 6.1.2
 _ZN18QFutureWatcherBase6pausedEv@Qt_6 6.1.2
 _ZN18QFutureWatcherBase6resumeEv@Qt_6 6.1.2
 _ZN18QFutureWatcherBase7resumedEv@Qt_6 6.1.2
 _ZN18QFutureWatcherBase7startedEv@Qt_6 6.1.2
 _ZN18QFutureWatcherBase7suspendEv@Qt_6 6.1.2
 _ZN18QFutureWatcherBase8canceledEv@Qt_6 6.1.2
 _ZN18QFutureWatcherBase8finishedEv@Qt_6 6.1.2
 _ZN18QFutureWatcherBase9setPausedEb@Qt_6 6.1.2
 _ZN18QFutureWatcherBase9suspendedEv@Qt_6 6.1.2
 _ZN18QFutureWatcherBaseC1EP7QObject@Qt_6 6.1.2
 _ZN18QFutureWatcherBaseC2EP7QObject@Qt_6 6.1.2
 _ZN18QJsonValueConstRef11concreteIntES_xb@Qt_6 6.4.0
 _ZN18QJsonValueConstRef12concreteBoolES_b@Qt_6 6.4.0
 _ZN18QJsonValueConstRef12concreteTypeES_@Qt_6 6.4.0
 _ZN18QJsonValueConstRef14concreteDoubleES_d@Qt_6 6.4.0
 _ZN18QJsonValueConstRef14concreteStringES_RK7QString@Qt_6 6.4.0
 _ZN18QJsonValueConstRef8concreteES_@Qt_6 6.4.0
 _ZN18QJsonValueConstRef9objectKeyES_@Qt_6 6.4.0
 _ZN18QMetaObjectPrivate11firstMethodEPK11QMetaObject14QByteArrayView@Qt_6 6.1.2
 _ZN18QMetaObjectPrivate11signalIndexERK11QMetaMethod@Qt_6 6.1.2
 _ZN18QMetaObjectPrivate19absoluteSignalCountEPK11QMetaObject@Qt_6 6.1.2
 _ZN18QMetaObjectPrivate6signalEPK11QMetaObjecti@Qt_6 6.1.2
 _ZN18QPropertyAnimation11qt_metacallEN11QMetaObject4CallEiPPv@Qt_6 6.1.2
 _ZN18QPropertyAnimation11qt_metacastEPKc@Qt_6 6.1.2
 _ZN18QPropertyAnimation11updateStateEN18QAbstractAnimation5StateES1_@Qt_6 6.1.2
 _ZN18QPropertyAnimation15setPropertyNameERK10QByteArray@Qt_6 6.1.2
 _ZN18QPropertyAnimation15setTargetObjectEP7QObject@Qt_6 6.1.2
 _ZN18QPropertyAnimation16staticMetaObjectE@Qt_6 6.1.2
 _ZN18QPropertyAnimation18updateCurrentValueERK8QVariant@Qt_6 6.1.2
 _ZN18QPropertyAnimation20bindablePropertyNameEv@Qt_6 6.2.0
 _ZN18QPropertyAnimation20bindableTargetObjectEv@Qt_6 6.2.0
 _ZN18QPropertyAnimation5eventEP6QEvent@Qt_6 6.1.2
 _ZN18QPropertyAnimationC1EP7QObject@Qt_6 6.1.2
 _ZN18QPropertyAnimationC1EP7QObjectRK10QByteArrayS1_@Qt_6 6.1.2
 _ZN18QPropertyAnimationC2EP7QObject@Qt_6 6.1.2
 _ZN18QPropertyAnimationC2EP7QObjectRK10QByteArrayS1_@Qt_6 6.1.2
 _ZN18QPropertyAnimationD0Ev@Qt_6 6.1.2
 _ZN18QPropertyAnimationD1Ev@Qt_6 6.1.2
 _ZN18QPropertyAnimationD2Ev@Qt_6 6.1.2
 _ZN18QRandomGenerator6414securelySeededEv@Qt_6 6.1.2
 _ZN18QRandomGenerator646globalEv@Qt_6 6.1.2
 _ZN18QRandomGenerator646systemEv@Qt_6 6.1.2
 _ZN18QRegularExpression10setPatternERK7QString@Qt_6 6.1.2
 _ZN18QRegularExpression12fromWildcardE11QStringViewN2Qt15CaseSensitivityE6QFlagsINS_24WildcardConversionOptionEE@Qt_6 6.1.2
 _ZN18QRegularExpression15anchoredPatternE11QStringView@Qt_6 6.1.2
 _ZN18QRegularExpression17setPatternOptionsE6QFlagsINS_13PatternOptionEE@Qt_6 6.1.2
 _ZN18QRegularExpression27wildcardToRegularExpressionE11QStringView6QFlagsINS_24WildcardConversionOptionEE@Qt_6 6.1.2
 _ZN18QRegularExpression6escapeE11QStringView@Qt_6 6.1.2
 _ZN18QRegularExpressionC1ER25QRegularExpressionPrivate@Qt_6 6.1.2
 _ZN18QRegularExpressionC1ERK7QString6QFlagsINS_13PatternOptionEE@Qt_6 6.1.2
 _ZN18QRegularExpressionC1ERKS_@Qt_6 6.1.2
 _ZN18QRegularExpressionC1Ev@Qt_6 6.1.2
 _ZN18QRegularExpressionC2ER25QRegularExpressionPrivate@Qt_6 6.1.2
 _ZN18QRegularExpressionC2ERK7QString6QFlagsINS_13PatternOptionEE@Qt_6 6.1.2
 _ZN18QRegularExpressionC2ERKS_@Qt_6 6.1.2
 _ZN18QRegularExpressionC2Ev@Qt_6 6.1.2
 _ZN18QRegularExpressionD1Ev@Qt_6 6.1.2
 _ZN18QRegularExpressionD2Ev@Qt_6 6.1.2
 _ZN18QRegularExpressionaSERKS_@Qt_6 6.1.2
 _ZN18QThreadStorageData3setEPv@Qt_6 6.1.2
 _ZN18QThreadStorageData6finishEPPv@Qt_6 6.1.2
 _ZN18QThreadStorageDataC1EPFvPvE@Qt_6 6.1.2
 _ZN18QThreadStorageDataC2EPFvPvE@Qt_6 6.1.2
 _ZN18QThreadStorageDataD1Ev@Qt_6 6.1.2
 _ZN18QThreadStorageDataD2Ev@Qt_6 6.1.2
 _ZN19QAbstractProxyModel11qt_metacallEN11QMetaObject4CallEiPPv@Qt_6 6.1.2
 _ZN19QAbstractProxyModel11qt_metacastEPKc@Qt_6 6.1.2
 _ZN19QAbstractProxyModel11setItemDataERK11QModelIndexRK4QMapIi8QVariantE@Qt_6 6.1.2
 _ZN19QAbstractProxyModel12dropMimeDataEPK9QMimeDataN2Qt10DropActionEiiRK11QModelIndex@Qt_6 6.1.2
 _ZN19QAbstractProxyModel13clearItemDataERK11QModelIndex@Qt_6 6.1.2
 _ZN19QAbstractProxyModel13setHeaderDataEiN2Qt11OrientationERK8QVarianti@Qt_6 6.1.2
 _ZN19QAbstractProxyModel14setSourceModelEP18QAbstractItemModel@Qt_6 6.1.2
 _ZN19QAbstractProxyModel16staticMetaObjectE@Qt_6 6.1.2
 _ZN19QAbstractProxyModel18sourceModelChangedENS_14QPrivateSignalE@Qt_6 6.1.2
 _ZN19QAbstractProxyModel19bindableSourceModelEv@Qt_6 6.2.0
 _ZN19QAbstractProxyModel4sortEiN2Qt9SortOrderE@Qt_6 6.1.2
 _ZN19QAbstractProxyModel6revertEv@Qt_6 6.1.2
 _ZN19QAbstractProxyModel6submitEv@Qt_6 6.1.2
 _ZN19QAbstractProxyModel7setDataERK11QModelIndexRK8QVarianti@Qt_6 6.1.2
 _ZN19QAbstractProxyModel9fetchMoreERK11QModelIndex@Qt_6 6.1.2
 _ZN19QAbstractProxyModelC1EP7QObject@Qt_6 6.1.2
 _ZN19QAbstractProxyModelC2EP7QObject@Qt_6 6.1.2
 _ZN19QAbstractProxyModelD0Ev@Qt_6 6.1.2
 _ZN19QAbstractProxyModelD1Ev@Qt_6 6.1.2
 _ZN19QAbstractProxyModelD2Ev@Qt_6 6.1.2
 _ZN19QAbstractTableModel11qt_metacallEN11QMetaObject4CallEiPPv@Qt_6 6.1.2
 _ZN19QAbstractTableModel11qt_metacastEPKc@Qt_6 6.1.2
 _ZN19QAbstractTableModel12dropMimeDataEPK9QMimeDataN2Qt10DropActionEiiRK11QModelIndex@Qt_6 6.1.2
 _ZN19QAbstractTableModel16staticMetaObjectE@Qt_6 6.1.2
 _ZN19QAbstractTableModelC1EP7QObject@Qt_6 6.1.2
 _ZN19QAbstractTableModelC2EP7QObject@Qt_6 6.1.2
 _ZN19QAbstractTableModelD0Ev@Qt_6 6.1.2
 _ZN19QAbstractTableModelD1Ev@Qt_6 6.1.2
 _ZN19QAbstractTableModelD2Ev@Qt_6 6.1.2
 _ZN19QIdentityProxyModel10insertRowsEiiRK11QModelIndex@Qt_6 6.1.2
 _ZN19QIdentityProxyModel10removeRowsEiiRK11QModelIndex@Qt_6 6.1.2
 _ZN19QIdentityProxyModel11moveColumnsERK11QModelIndexiiS2_i@Qt_6 6.1.2
 _ZN19QIdentityProxyModel11qt_metacallEN11QMetaObject4CallEiPPv@Qt_6 6.1.2
 _ZN19QIdentityProxyModel11qt_metacastEPKc@Qt_6 6.1.2
 _ZN19QIdentityProxyModel12dropMimeDataEPK9QMimeDataN2Qt10DropActionEiiRK11QModelIndex@Qt_6 6.1.2
 _ZN19QIdentityProxyModel13insertColumnsEiiRK11QModelIndex@Qt_6 6.1.2
 _ZN19QIdentityProxyModel13removeColumnsEiiRK11QModelIndex@Qt_6 6.1.2
 _ZN19QIdentityProxyModel14setSourceModelEP18QAbstractItemModel@Qt_6 6.1.2
 _ZN19QIdentityProxyModel16staticMetaObjectE@Qt_6 6.1.2
 _ZN19QIdentityProxyModel8moveRowsERK11QModelIndexiiS2_i@Qt_6 6.1.2
 _ZN19QIdentityProxyModelC1EP7QObject@Qt_6 6.1.2
 _ZN19QIdentityProxyModelC2EP7QObject@Qt_6 6.1.2
 _ZN19QIdentityProxyModelD0Ev@Qt_6 6.1.2
 _ZN19QIdentityProxyModelD1Ev@Qt_6 6.1.2
 _ZN19QIdentityProxyModelD2Ev@Qt_6 6.1.2
 _ZN19QItemSelectionModel11qt_metacallEN11QMetaObject4CallEiPPv@Qt_6 6.1.2
 _ZN19QItemSelectionModel11qt_metacastEPKc@Qt_6 6.1.2
 _ZN19QItemSelectionModel12modelChangedEP18QAbstractItemModel@Qt_6 6.1.2
 _ZN19QItemSelectionModel13bindableModelEv@Qt_6 6.2.0
 _ZN19QItemSelectionModel14clearSelectionEv@Qt_6 6.1.2
 _ZN19QItemSelectionModel14currentChangedERK11QModelIndexS2_@Qt_6 6.1.2
 _ZN19QItemSelectionModel15setCurrentIndexERK11QModelIndex6QFlagsINS_13SelectionFlagEE@Qt_6 6.1.2
 _ZN19QItemSelectionModel16selectionChangedERK14QItemSelectionS2_@Qt_6 6.1.2
 _ZN19QItemSelectionModel16staticMetaObjectE@Qt_6 6.1.2
 _ZN19QItemSelectionModel17clearCurrentIndexEv@Qt_6 6.1.2
 _ZN19QItemSelectionModel17currentRowChangedERK11QModelIndexS2_@Qt_6 6.1.2
 _ZN19QItemSelectionModel20currentColumnChangedERK11QModelIndexS2_@Qt_6 6.1.2
 _ZN19QItemSelectionModel20emitSelectionChangedERK14QItemSelectionS2_@Qt_6 6.1.2
 _ZN19QItemSelectionModel5clearEv@Qt_6 6.1.2
 _ZN19QItemSelectionModel5modelEv@Qt_6 6.1.2
 _ZN19QItemSelectionModel5resetEv@Qt_6 6.1.2
 _ZN19QItemSelectionModel6selectERK11QModelIndex6QFlagsINS_13SelectionFlagEE@Qt_6 6.1.2
 _ZN19QItemSelectionModel6selectERK14QItemSelection6QFlagsINS_13SelectionFlagEE@Qt_6 6.1.2
 _ZN19QItemSelectionModel8setModelEP18QAbstractItemModel@Qt_6 6.1.2
 _ZN19QItemSelectionModelC1EP18QAbstractItemModel@Qt_6 6.1.2
 _ZN19QItemSelectionModelC1EP18QAbstractItemModelP7QObject@Qt_6 6.1.2
 _ZN19QItemSelectionModelC1ER26QItemSelectionModelPrivateP18QAbstractItemModel@Qt_6 6.1.2
 _ZN19QItemSelectionModelC2EP18QAbstractItemModel@Qt_6 6.1.2
 _ZN19QItemSelectionModelC2EP18QAbstractItemModelP7QObject@Qt_6 6.1.2
 _ZN19QItemSelectionModelC2ER26QItemSelectionModelPrivateP18QAbstractItemModel@Qt_6 6.1.2
 _ZN19QItemSelectionModelD0Ev@Qt_6 6.1.2
 _ZN19QItemSelectionModelD1Ev@Qt_6 6.1.2
 _ZN19QItemSelectionModelD2Ev@Qt_6 6.1.2
 _ZN19QProcessEnvironment17systemEnvironmentEv@Qt_6 6.1.2
 _ZN19QProcessEnvironment5clearEv@Qt_6 6.1.2
 _ZN19QProcessEnvironment6insertERK7QStringS2_@Qt_6 6.1.2
 _ZN19QProcessEnvironment6insertERKS_@Qt_6 6.1.2
 _ZN19QProcessEnvironment6removeERK7QString@Qt_6 6.1.2
 _ZN19QProcessEnvironmentC1ENS_14InitializationE@Qt_6 6.3.0
 _ZN19QProcessEnvironmentC1ERKS_@Qt_6 6.1.2
 _ZN19QProcessEnvironmentC1Ev@Qt_6 6.1.2
 _ZN19QProcessEnvironmentC2ENS_14InitializationE@Qt_6 6.3.0
 _ZN19QProcessEnvironmentC2ERKS_@Qt_6 6.1.2
 _ZN19QProcessEnvironmentC2Ev@Qt_6 6.1.2
 _ZN19QProcessEnvironmentD1Ev@Qt_6 6.1.2
 _ZN19QProcessEnvironmentD2Ev@Qt_6 6.1.2
 _ZN19QProcessEnvironmentaSERKS_@Qt_6 6.1.2
 _ZN19QSequentialIterable11removeValueENS_8PositionE@Qt_6 6.1.2
 (subst)_ZN19QSequentialIterable3setE{qptrdiff}RK8QVariant@Qt_6 6.1.2
 _ZN19QSequentialIterable8addValueERK8QVariantNS_8PositionE@Qt_6 6.1.2
 (subst)_ZN19QTextBoundaryFinder11setPositionE{qptrdiff}@Qt_6 6.1.2
 _ZN19QTextBoundaryFinder14toNextBoundaryEv@Qt_6 6.1.2
 _ZN19QTextBoundaryFinder18toPreviousBoundaryEv@Qt_6 6.1.2
 _ZN19QTextBoundaryFinder5toEndEv@Qt_6 6.1.2
 _ZN19QTextBoundaryFinder7toStartEv@Qt_6 6.1.2
 (subst)_ZN19QTextBoundaryFinderC1ENS_12BoundaryTypeE11QStringViewPh{qptrdiff}@Qt_6 6.1.2
 _ZN19QTextBoundaryFinderC1ENS_12BoundaryTypeERK7QString@Qt_6 6.1.2
 _ZN19QTextBoundaryFinderC1ERKS_@Qt_6 6.1.2
 _ZN19QTextBoundaryFinderC1Ev@Qt_6 6.1.2
 (subst)_ZN19QTextBoundaryFinderC2ENS_12BoundaryTypeE11QStringViewPh{qptrdiff}@Qt_6 6.1.2
 _ZN19QTextBoundaryFinderC2ENS_12BoundaryTypeERK7QString@Qt_6 6.1.2
 _ZN19QTextBoundaryFinderC2ERKS_@Qt_6 6.1.2
 _ZN19QTextBoundaryFinderC2Ev@Qt_6 6.1.2
 _ZN19QTextBoundaryFinderD1Ev@Qt_6 6.1.2
 _ZN19QTextBoundaryFinderD2Ev@Qt_6 6.1.2
 _ZN19QTextBoundaryFinderaSERKS_@Qt_6 6.1.2
 _ZN19QUnhandledExceptionC1ENSt15__exception_ptr13exception_ptrE@Qt_6 6.1.2
 _ZN19QUnhandledExceptionC1EOS_@Qt_6 6.1.2
 _ZN19QUnhandledExceptionC1ERKS_@Qt_6 6.1.2
 _ZN19QUnhandledExceptionC2ENSt15__exception_ptr13exception_ptrE@Qt_6 6.1.2
 _ZN19QUnhandledExceptionC2EOS_@Qt_6 6.1.2
 _ZN19QUnhandledExceptionC2ERKS_@Qt_6 6.1.2
 _ZN19QUnhandledExceptionD0Ev@Qt_6 6.1.2
 _ZN19QUnhandledExceptionD1Ev@Qt_6 6.1.2
 _ZN19QUnhandledExceptionD2Ev@Qt_6 6.1.2
 _ZN19QUnhandledExceptionaSERKS_@Qt_6 6.1.2
 _ZN19QXmlStreamAttributeC1ERK7QStringS2_@Qt_6 6.1.2
 _ZN19QXmlStreamAttributeC1ERK7QStringS2_S2_@Qt_6 6.1.2
 _ZN19QXmlStreamAttributeC1Ev@Qt_6 6.1.2
 _ZN19QXmlStreamAttributeC2ERK7QStringS2_@Qt_6 6.1.2
 _ZN19QXmlStreamAttributeC2ERK7QStringS2_S2_@Qt_6 6.1.2
 _ZN19QXmlStreamAttributeC2Ev@Qt_6 6.1.2
 _ZN20QAssociativeIterable11containsKeyERK8QVariant@Qt_6 6.1.2
 _ZN20QAssociativeIterable11mutableFindERK8QVariant@Qt_6 6.1.2
 _ZN20QAssociativeIterable8setValueERK8QVariantS2_@Qt_6 6.1.2
 _ZN20QAssociativeIterable9insertKeyERK8QVariant@Qt_6 6.1.2
 _ZN20QAssociativeIterable9removeKeyERK8QVariant@Qt_6 6.1.2
 (subst)_ZN20QContiguousCacheData12allocateDataE{qptrdiff}{qptrdiff}@Qt_6 6.1.2
 _ZN20QContiguousCacheData8freeDataEPS_@Qt_6 6.1.2
 _ZN20QDeferredDeleteEventC1ERKS_@Qt_6 6.4.0
 _ZN20QDeferredDeleteEventC1Ev@Qt_6 6.1.2
 _ZN20QDeferredDeleteEventC2ERKS_@Qt_6 6.4.0
 _ZN20QDeferredDeleteEventC2Ev@Qt_6 6.1.2
 _ZN20QDeferredDeleteEventD0Ev@Qt_6 6.1.2
 _ZN20QDeferredDeleteEventD1Ev@Qt_6 6.1.2
 _ZN20QDeferredDeleteEventD2Ev@Qt_6 6.1.2
 _ZN20QFutureInterfaceBase11setRunnableEP9QRunnable@Qt_6 6.1.2
 _ZN20QFutureInterfaceBase12setSuspendedEb@Qt_6 6.1.2
 _ZN20QFutureInterfaceBase12setThrottledEb@Qt_6 6.1.2
 _ZN20QFutureInterfaceBase13reportStartedEv@Qt_6 6.1.2
 _ZN20QFutureInterfaceBase13setFilterModeEb@Qt_6 6.1.2
 _ZN20QFutureInterfaceBase13setThreadPoolEP11QThreadPool@Qt_6 6.1.2
 _ZN20QFutureInterfaceBase13waitForResultEi@Qt_6 6.1.2
 _ZN20QFutureInterfaceBase13waitForResumeEv@Qt_6 6.1.2
 _ZN20QFutureInterfaceBase14exceptionStoreEv@Qt_6 6.1.2
 _ZN20QFutureInterfaceBase14reportCanceledEv@Qt_6 6.1.2
 _ZN20QFutureInterfaceBase14reportFinishedEv@Qt_6 6.1.2
 _ZN20QFutureInterfaceBase14setLaunchAsyncEb@Qt_6 6.1.2
 _ZN20QFutureInterfaceBase15reportExceptionENSt15__exception_ptr13exception_ptrE@Qt_6 6.1.2
 _ZN20QFutureInterfaceBase15reportExceptionERK10QException@Qt_6 6.1.2
 _ZN20QFutureInterfaceBase15resultStoreBaseEv@Qt_6 6.1.2
 _ZN20QFutureInterfaceBase15setContinuationESt8functionIFvRKS_EE@Qt_6 6.1.2
 _ZN20QFutureInterfaceBase15setContinuationESt8functionIFvRKS_EEP27QFutureInterfaceBasePrivate@Qt_6 6.2.4
 _ZN20QFutureInterfaceBase15toggleSuspendedEv@Qt_6 6.1.2
 _ZN20QFutureInterfaceBase15waitForFinishedEv@Qt_6 6.1.2
 _ZN20QFutureInterfaceBase16setProgressRangeEii@Qt_6 6.1.2
 _ZN20QFutureInterfaceBase16setProgressValueEi@Qt_6 6.1.2
 _ZN20QFutureInterfaceBase17cleanContinuationEv@Qt_6 6.2.4
 _ZN20QFutureInterfaceBase17waitForNextResultEv@Qt_6 6.1.2
 _ZN20QFutureInterfaceBase18reportResultsReadyEii@Qt_6 6.1.2
 _ZN20QFutureInterfaceBase18suspendIfRequestedEv@Qt_6 6.1.2
 _ZN20QFutureInterfaceBase19expectedResultCountEv@Qt_6 6.1.2
 _ZN20QFutureInterfaceBase22setExpectedResultCountEi@Qt_6 6.1.2
 _ZN20QFutureInterfaceBase23setProgressValueAndTextEiRK7QString@Qt_6 6.1.2
 _ZN20QFutureInterfaceBase24rethrowPossibleExceptionEv@Qt_6 6.2.0
 _ZN20QFutureInterfaceBase4swapERS_@Qt_6 6.1.2
 _ZN20QFutureInterfaceBase5resetEv@Qt_6 6.1.2
 _ZN20QFutureInterfaceBase6cancelENS_10CancelModeE@Qt_6 6.3.0
 _ZN20QFutureInterfaceBase6cancelEv@Qt_6 6.1.2
 _ZN20QFutureInterfaceBaseC1ENS_5StateE@Qt_6 6.1.2
 _ZN20QFutureInterfaceBaseC1ERKS_@Qt_6 6.1.2
 _ZN20QFutureInterfaceBaseC2ENS_5StateE@Qt_6 6.1.2
 _ZN20QFutureInterfaceBaseC2ERKS_@Qt_6 6.1.2
 _ZN20QFutureInterfaceBaseD0Ev@Qt_6 6.1.2
 _ZN20QFutureInterfaceBaseD1Ev@Qt_6 6.1.2
 _ZN20QFutureInterfaceBaseD2Ev@Qt_6 6.1.2
 _ZN20QFutureInterfaceBaseaSERKS_@Qt_6 6.1.2
 _ZN20QStringConverterBase5State5clearEv@Qt_6 6.1.2
 _ZN20QStringConverterBase5State5resetEv@Qt_6 6.4.0
 _ZN20QTransposeProxyModel10insertRowsEiiRK11QModelIndex@Qt_6 6.1.2
 _ZN20QTransposeProxyModel10removeRowsEiiRK11QModelIndex@Qt_6 6.1.2
 _ZN20QTransposeProxyModel11moveColumnsERK11QModelIndexiiS2_i@Qt_6 6.1.2
 _ZN20QTransposeProxyModel11qt_metacallEN11QMetaObject4CallEiPPv@Qt_6 6.1.2
 _ZN20QTransposeProxyModel11qt_metacastEPKc@Qt_6 6.1.2
 _ZN20QTransposeProxyModel11setItemDataERK11QModelIndexRK4QMapIi8QVariantE@Qt_6 6.1.2
 _ZN20QTransposeProxyModel13insertColumnsEiiRK11QModelIndex@Qt_6 6.1.2
 _ZN20QTransposeProxyModel13removeColumnsEiiRK11QModelIndex@Qt_6 6.1.2
 _ZN20QTransposeProxyModel13setHeaderDataEiN2Qt11OrientationERK8QVarianti@Qt_6 6.1.2
 _ZN20QTransposeProxyModel14setSourceModelEP18QAbstractItemModel@Qt_6 6.1.2
 _ZN20QTransposeProxyModel16staticMetaObjectE@Qt_6 6.1.2
 _ZN20QTransposeProxyModel4sortEiN2Qt9SortOrderE@Qt_6 6.1.2
 _ZN20QTransposeProxyModel8moveRowsERK11QModelIndexiiS2_i@Qt_6 6.1.2
 _ZN20QTransposeProxyModelC1EP7QObject@Qt_6 6.1.2
 _ZN20QTransposeProxyModelC1ER27QTransposeProxyModelPrivateP7QObject@Qt_6 6.1.2
 _ZN20QTransposeProxyModelC2EP7QObject@Qt_6 6.1.2
 _ZN20QTransposeProxyModelC2ER27QTransposeProxyModelPrivateP7QObject@Qt_6 6.1.2
 _ZN20QTransposeProxyModelD0Ev@Qt_6 6.1.2
 _ZN20QTransposeProxyModelD1Ev@Qt_6 6.1.2
 _ZN20QTransposeProxyModelD2Ev@Qt_6 6.1.2
 _ZN20QVariantConstPointerC1E8QVariant@Qt_6 6.1.2
 _ZN20QVariantConstPointerC2E8QVariant@Qt_6 6.1.2
 _ZN20QXmlStreamAttributes6appendERK7QStringS2_@Qt_6 6.1.2
 _ZN20QXmlStreamAttributes6appendERK7QStringS2_S2_@Qt_6 6.1.2
 _ZN21QAbstractConcatenable14appendLatin1ToE13QLatin1StringP5QChar@Qt_6 6.1.2
 _ZN21QAbstractConcatenable15convertFromUtf8E14QByteArrayViewRP5QChar@Qt_6 6.1.2
 _ZN21QObjectCleanupHandler11qt_metacallEN11QMetaObject4CallEiPPv@Qt_6 6.1.2
 _ZN21QObjectCleanupHandler11qt_metacastEPKc@Qt_6 6.1.2
 _ZN21QObjectCleanupHandler15objectDestroyedEP7QObject@Qt_6 6.1.2
 _ZN21QObjectCleanupHandler16staticMetaObjectE@Qt_6 6.1.2
 _ZN21QObjectCleanupHandler3addEP7QObject@Qt_6 6.1.2
 _ZN21QObjectCleanupHandler5clearEv@Qt_6 6.1.2
 _ZN21QObjectCleanupHandler6removeEP7QObject@Qt_6 6.1.2
 _ZN21QObjectCleanupHandlerC1Ev@Qt_6 6.1.2
 _ZN21QObjectCleanupHandlerC2Ev@Qt_6 6.1.2
 _ZN21QObjectCleanupHandlerD0Ev@Qt_6 6.1.2
 _ZN21QObjectCleanupHandlerD1Ev@Qt_6 6.1.2
 _ZN21QObjectCleanupHandlerD2Ev@Qt_6 6.1.2
 _ZN21QPersistentModelIndexC1ERK11QModelIndex@Qt_6 6.1.2
 _ZN21QPersistentModelIndexC1ERKS_@Qt_6 6.1.2
 _ZN21QPersistentModelIndexC1Ev@Qt_6 6.1.2
 _ZN21QPersistentModelIndexC2ERK11QModelIndex@Qt_6 6.1.2
 _ZN21QPersistentModelIndexC2ERKS_@Qt_6 6.1.2
 _ZN21QPersistentModelIndexC2Ev@Qt_6 6.1.2
 _ZN21QPersistentModelIndexD1Ev@Qt_6 6.1.2
 _ZN21QPersistentModelIndexD2Ev@Qt_6 6.1.2
 _ZN21QPersistentModelIndexaSERK11QModelIndex@Qt_6 6.1.2
 _ZN21QPersistentModelIndexaSERKS_@Qt_6 6.1.2
 _ZN21QPropertyBindingErrorC1ENS_4TypeERK7QString@Qt_6 6.1.2
 _ZN21QPropertyBindingErrorC1EOS_@Qt_6 6.1.2
 _ZN21QPropertyBindingErrorC1ERKS_@Qt_6 6.1.2
 _ZN21QPropertyBindingErrorC1Ev@Qt_6 6.1.2
 _ZN21QPropertyBindingErrorC2ENS_4TypeERK7QString@Qt_6 6.1.2
 _ZN21QPropertyBindingErrorC2EOS_@Qt_6 6.1.2
 _ZN21QPropertyBindingErrorC2ERKS_@Qt_6 6.1.2
 _ZN21QPropertyBindingErrorC2Ev@Qt_6 6.1.2
 _ZN21QPropertyBindingErrorD1Ev@Qt_6 6.1.2
 _ZN21QPropertyBindingErrorD2Ev@Qt_6 6.1.2
 _ZN21QPropertyBindingErroraSEOS_@Qt_6 6.1.2
 _ZN21QPropertyBindingErroraSERKS_@Qt_6 6.1.2
 _ZN21QSortFilterProxyModel10insertRowsEiiRK11QModelIndex@Qt_6 6.1.2
 _ZN21QSortFilterProxyModel10invalidateEv@Qt_6 6.1.2
 _ZN21QSortFilterProxyModel10removeRowsEiiRK11QModelIndex@Qt_6 6.1.2
 _ZN21QSortFilterProxyModel11qt_metacallEN11QMetaObject4CallEiPPv@Qt_6 6.1.2
 _ZN21QSortFilterProxyModel11qt_metacastEPKc@Qt_6 6.1.2
 _ZN21QSortFilterProxyModel11setSortRoleEi@Qt_6 6.1.2
 _ZN21QSortFilterProxyModel12dropMimeDataEPK9QMimeDataN2Qt10DropActionEiiRK11QModelIndex@Qt_6 6.1.2
 _ZN21QSortFilterProxyModel13insertColumnsEiiRK11QModelIndex@Qt_6 6.1.2
 _ZN21QSortFilterProxyModel13removeColumnsEiiRK11QModelIndex@Qt_6 6.1.2
 _ZN21QSortFilterProxyModel13setFilterRoleEi@Qt_6 6.1.2
 _ZN21QSortFilterProxyModel13setHeaderDataEiN2Qt11OrientationERK8QVarianti@Qt_6 6.1.2
 _ZN21QSortFilterProxyModel14setSourceModelEP18QAbstractItemModel@Qt_6 6.1.2
 _ZN21QSortFilterProxyModel15sortRoleChangedEi@Qt_6 6.1.2
 _ZN21QSortFilterProxyModel16bindableSortRoleEv@Qt_6 6.2.0
 _ZN21QSortFilterProxyModel16invalidateFilterEv@Qt_6 6.1.2
 _ZN21QSortFilterProxyModel16staticMetaObjectE@Qt_6 6.1.2
 _ZN21QSortFilterProxyModel17filterRoleChangedEi@Qt_6 6.1.2
 _ZN21QSortFilterProxyModel17setFilterWildcardERK7QString@Qt_6 6.1.2
 _ZN21QSortFilterProxyModel18bindableFilterRoleEv@Qt_6 6.2.0
 _ZN21QSortFilterProxyModel18setFilterKeyColumnEi@Qt_6 6.1.2
 _ZN21QSortFilterProxyModel18setSortLocaleAwareEb@Qt_6 6.1.2
 _ZN21QSortFilterProxyModel20invalidateRowsFilterEv@Qt_6 6.1.2
 _ZN21QSortFilterProxyModel20setDynamicSortFilterEb@Qt_6 6.1.2
 _ZN21QSortFilterProxyModel20setFilterFixedStringERK7QString@Qt_6 6.1.2
 _ZN21QSortFilterProxyModel22setAutoAcceptChildRowsEb@Qt_6 6.1.2
 _ZN21QSortFilterProxyModel22setSortCaseSensitivityEN2Qt15CaseSensitivityE@Qt_6 6.1.2
 _ZN21QSortFilterProxyModel22sortLocaleAwareChangedEb@Qt_6 6.1.2
 _ZN21QSortFilterProxyModel23bindableFilterKeyColumnEv@Qt_6 6.2.0
 _ZN21QSortFilterProxyModel23invalidateColumnsFilterEv@Qt_6 6.1.2
 _ZN21QSortFilterProxyModel24dynamicSortFilterChangedEb@Qt_6 6.1.2
 _ZN21QSortFilterProxyModel24setFilterCaseSensitivityEN2Qt15CaseSensitivityE@Qt_6 6.1.2
 _ZN21QSortFilterProxyModel25bindableDynamicSortFilterEv@Qt_6 6.2.0
 _ZN21QSortFilterProxyModel25bindableIsSortLocaleAwareEv@Qt_6 6.2.0
 _ZN21QSortFilterProxyModel26autoAcceptChildRowsChangedEb@Qt_6 6.1.2
 _ZN21QSortFilterProxyModel26setFilterRegularExpressionERK18QRegularExpression@Qt_6 6.1.2
 _ZN21QSortFilterProxyModel26setFilterRegularExpressionERK7QString@Qt_6 6.1.2
 _ZN21QSortFilterProxyModel26sortCaseSensitivityChangedEN2Qt15CaseSensitivityE@Qt_6 6.1.2
 _ZN21QSortFilterProxyModel27bindableAutoAcceptChildRowsEv@Qt_6 6.2.0
 _ZN21QSortFilterProxyModel27bindableSortCaseSensitivityEv@Qt_6 6.2.0
 _ZN21QSortFilterProxyModel28filterCaseSensitivityChangedEN2Qt15CaseSensitivityE@Qt_6 6.1.2
 _ZN21QSortFilterProxyModel28setRecursiveFilteringEnabledEb@Qt_6 6.1.2
 _ZN21QSortFilterProxyModel29bindableFilterCaseSensitivityEv@Qt_6 6.2.0
 _ZN21QSortFilterProxyModel31bindableFilterRegularExpressionEv@Qt_6 6.2.0
 _ZN21QSortFilterProxyModel32recursiveFilteringEnabledChangedEb@Qt_6 6.1.2
 _ZN21QSortFilterProxyModel33bindableRecursiveFilteringEnabledEv@Qt_6 6.2.0
 _ZN21QSortFilterProxyModel4sortEiN2Qt9SortOrderE@Qt_6 6.1.2
 _ZN21QSortFilterProxyModel7setDataERK11QModelIndexRK8QVarianti@Qt_6 6.1.2
 _ZN21QSortFilterProxyModel9fetchMoreERK11QModelIndex@Qt_6 6.1.2
 _ZN21QSortFilterProxyModelC1EP7QObject@Qt_6 6.1.2
 _ZN21QSortFilterProxyModelC2EP7QObject@Qt_6 6.1.2
 _ZN21QSortFilterProxyModelD0Ev@Qt_6 6.1.2
 _ZN21QSortFilterProxyModelD1Ev@Qt_6 6.1.2
 _ZN21QSortFilterProxyModelD2Ev@Qt_6 6.1.2
 _ZN23QOperatingSystemVersion10AndroidPieE@Qt_6 6.1.2
 _ZN23QOperatingSystemVersion10Windows8_1E@Qt_6 6.1.2
 _ZN23QOperatingSystemVersion11AndroidOreoE@Qt_6 6.1.2
 _ZN23QOperatingSystemVersion11MacOSBigSurE@Qt_6 6.1.2
 _ZN23QOperatingSystemVersion11MacOSMojaveE@Qt_6 6.1.2
 _ZN23QOperatingSystemVersion11MacOSSierraE@Qt_6 6.1.2
 _ZN23QOperatingSystemVersion11OSXYosemiteE@Qt_6 6.1.2
 _ZN23QOperatingSystemVersion12OSXElCapitanE@Qt_6 6.1.2
 _ZN23QOperatingSystemVersion12OSXMavericksE@Qt_6 6.1.2
 _ZN23QOperatingSystemVersion13AndroidKitKatE@Qt_6 6.1.2
 _ZN23QOperatingSystemVersion13AndroidNougatE@Qt_6 6.1.2
 _ZN23QOperatingSystemVersion13MacOSCatalinaE@Qt_6 6.1.2
 _ZN23QOperatingSystemVersion13MacOSMontereyE@Qt_6 6.3.0
 _ZN23QOperatingSystemVersion15AndroidLollipopE@Qt_6 6.1.2
 _ZN23QOperatingSystemVersion15AndroidOreo_MR1E@Qt_6 6.1.2
 _ZN23QOperatingSystemVersion15MacOSHighSierraE@Qt_6 6.1.2
 _ZN23QOperatingSystemVersion16AndroidJellyBeanE@Qt_6 6.1.2
 _ZN23QOperatingSystemVersion17AndroidNougat_MR1E@Qt_6 6.1.2
 _ZN23QOperatingSystemVersion18AndroidMarshmallowE@Qt_6 6.1.2
 _ZN23QOperatingSystemVersion19AndroidLollipop_MR1E@Qt_6 6.1.2
 _ZN23QOperatingSystemVersion20AndroidJellyBean_MR1E@Qt_6 6.1.2
 _ZN23QOperatingSystemVersion20AndroidJellyBean_MR2E@Qt_6 6.1.2
 _ZN23QOperatingSystemVersion7compareERKS_S1_@Qt_6 6.1.2
 _ZN23QOperatingSystemVersion7currentEv@Qt_6 6.1.2
 _ZN23QOperatingSystemVersion8Windows7E@Qt_6 6.1.2
 _ZN23QOperatingSystemVersion8Windows8E@Qt_6 6.1.2
 _ZN23QOperatingSystemVersion9Android10E@Qt_6 6.1.2
 _ZN23QOperatingSystemVersion9Android11E@Qt_6 6.1.2
 _ZN23QOperatingSystemVersion9Windows10E@Qt_6 6.1.2
 _ZN23QParallelAnimationGroup11qt_metacallEN11QMetaObject4CallEiPPv@Qt_6 6.1.2
 _ZN23QParallelAnimationGroup11qt_metacastEPKc@Qt_6 6.1.2
 _ZN23QParallelAnimationGroup11updateStateEN18QAbstractAnimation5StateES1_@Qt_6 6.1.2
 _ZN23QParallelAnimationGroup15updateDirectionEN18QAbstractAnimation9DirectionE@Qt_6 6.1.2
 _ZN23QParallelAnimationGroup16staticMetaObjectE@Qt_6 6.1.2
 _ZN23QParallelAnimationGroup17updateCurrentTimeEi@Qt_6 6.1.2
 _ZN23QParallelAnimationGroup5eventEP6QEvent@Qt_6 6.1.2
 _ZN23QParallelAnimationGroupC1EP7QObject@Qt_6 6.1.2
 _ZN23QParallelAnimationGroupC1ER30QParallelAnimationGroupPrivateP7QObject@Qt_6 6.1.2
 _ZN23QParallelAnimationGroupC2EP7QObject@Qt_6 6.1.2
 _ZN23QParallelAnimationGroupC2ER30QParallelAnimationGroupPrivateP7QObject@Qt_6 6.1.2
 _ZN23QParallelAnimationGroupD0Ev@Qt_6 6.1.2
 _ZN23QParallelAnimationGroupD1Ev@Qt_6 6.1.2
 _ZN23QParallelAnimationGroupD2Ev@Qt_6 6.1.2
 _ZN23QRegularExpressionMatchC1ER30QRegularExpressionMatchPrivate@Qt_6 6.1.2
 _ZN23QRegularExpressionMatchC1ERKS_@Qt_6 6.1.2
 _ZN23QRegularExpressionMatchC1Ev@Qt_6 6.1.2
 _ZN23QRegularExpressionMatchC2ER30QRegularExpressionMatchPrivate@Qt_6 6.1.2
 _ZN23QRegularExpressionMatchC2ERKS_@Qt_6 6.1.2
 _ZN23QRegularExpressionMatchC2Ev@Qt_6 6.1.2
 _ZN23QRegularExpressionMatchD1Ev@Qt_6 6.1.2
 _ZN23QRegularExpressionMatchD2Ev@Qt_6 6.1.2
 _ZN23QRegularExpressionMatchaSERKS_@Qt_6 6.1.2
 _ZN23QUntypedPropertyBindingC1E9QMetaTypePKN9QtPrivate21BindingFunctionVTableEPvRK30QPropertyBindingSourceLocation@Qt_6 6.1.2
 _ZN23QUntypedPropertyBindingC1EOS_@Qt_6 6.1.2
 _ZN23QUntypedPropertyBindingC1ERKS_@Qt_6 6.1.2
 _ZN23QUntypedPropertyBindingC1Ev@Qt_6 6.1.2
 _ZN23QUntypedPropertyBindingC2E9QMetaTypePKN9QtPrivate21BindingFunctionVTableEPvRK30QPropertyBindingSourceLocation@Qt_6 6.1.2
 _ZN23QUntypedPropertyBindingC2EOS_@Qt_6 6.1.2
 _ZN23QUntypedPropertyBindingC2ERKS_@Qt_6 6.1.2
 _ZN23QUntypedPropertyBindingC2Ev@Qt_6 6.1.2
 _ZN23QUntypedPropertyBindingD1Ev@Qt_6 6.1.2
 _ZN23QUntypedPropertyBindingD2Ev@Qt_6 6.1.2
 _ZN23QUntypedPropertyBindingaSEOS_@Qt_6 6.1.2
 _ZN23QUntypedPropertyBindingaSERKS_@Qt_6 6.1.2
 _ZN24QAbstractEventDispatcher10startingUpEv@Qt_6 6.1.2
 _ZN24QAbstractEventDispatcher11closingDownEv@Qt_6 6.1.2
 _ZN24QAbstractEventDispatcher11qt_metacallEN11QMetaObject4CallEiPPv@Qt_6 6.1.2
 _ZN24QAbstractEventDispatcher11qt_metacastEPKc@Qt_6 6.1.2
 _ZN24QAbstractEventDispatcher12aboutToBlockEv@Qt_6 6.1.2
 _ZN24QAbstractEventDispatcher13registerTimerExN2Qt9TimerTypeEP7QObject@Qt_6 6.1.2
 _ZN24QAbstractEventDispatcher16staticMetaObjectE@Qt_6 6.1.2
 (subst)_ZN24QAbstractEventDispatcher17filterNativeEventERK10QByteArrayPvP{qptrdiff}@Qt_6 6.1.2
 _ZN24QAbstractEventDispatcher23removeNativeEventFilterEP26QAbstractNativeEventFilter@Qt_6 6.1.2
 _ZN24QAbstractEventDispatcher24installNativeEventFilterEP26QAbstractNativeEventFilter@Qt_6 6.1.2
 _ZN24QAbstractEventDispatcher5awakeEv@Qt_6 6.1.2
 _ZN24QAbstractEventDispatcher8instanceEP7QThread@Qt_6 6.1.2
 _ZN24QAbstractEventDispatcherC1EP7QObject@Qt_6 6.1.2
 _ZN24QAbstractEventDispatcherC2EP7QObject@Qt_6 6.1.2
 _ZN24QAbstractEventDispatcherD0Ev@Qt_6 6.1.2
 _ZN24QAbstractEventDispatcherD1Ev@Qt_6 6.1.2
 _ZN24QAbstractEventDispatcherD2Ev@Qt_6 6.1.2
 _ZN24QVariantAnimationPrivate15getInterpolatorEi@Qt_6 6.1.2
 _ZN24QXmlStreamEntityResolver13resolveEntityERK7QStringS2_@Qt_6 6.1.2
 _ZN24QXmlStreamEntityResolver23resolveUndeclaredEntityERK7QString@Qt_6 6.1.2
 _ZN24QXmlStreamEntityResolverD0Ev@Qt_6 6.1.2
 _ZN24QXmlStreamEntityResolverD1Ev@Qt_6 6.1.2
 _ZN24QXmlStreamEntityResolverD2Ev@Qt_6 6.1.2
 _ZN25QSequentialAnimationGroup11insertPauseEii@Qt_6 6.1.2
 _ZN25QSequentialAnimationGroup11qt_metacallEN11QMetaObject4CallEiPPv@Qt_6 6.1.2
 _ZN25QSequentialAnimationGroup11qt_metacastEPKc@Qt_6 6.1.2
 _ZN25QSequentialAnimationGroup11updateStateEN18QAbstractAnimation5StateES1_@Qt_6 6.1.2
 _ZN25QSequentialAnimationGroup15updateDirectionEN18QAbstractAnimation9DirectionE@Qt_6 6.1.2
 _ZN25QSequentialAnimationGroup16staticMetaObjectE@Qt_6 6.1.2
 _ZN25QSequentialAnimationGroup17updateCurrentTimeEi@Qt_6 6.1.2
 _ZN25QSequentialAnimationGroup23currentAnimationChangedEP18QAbstractAnimation@Qt_6 6.1.2
 _ZN25QSequentialAnimationGroup5eventEP6QEvent@Qt_6 6.1.2
 _ZN25QSequentialAnimationGroup8addPauseEi@Qt_6 6.1.2
 _ZN25QSequentialAnimationGroupC1EP7QObject@Qt_6 6.1.2
 _ZN25QSequentialAnimationGroupC1ER32QSequentialAnimationGroupPrivateP7QObject@Qt_6 6.1.2
 _ZN25QSequentialAnimationGroupC2EP7QObject@Qt_6 6.1.2
 _ZN25QSequentialAnimationGroupC2ER32QSequentialAnimationGroupPrivateP7QObject@Qt_6 6.1.2
 _ZN25QSequentialAnimationGroupD0Ev@Qt_6 6.1.2
 _ZN25QSequentialAnimationGroupD1Ev@Qt_6 6.1.2
 _ZN25QSequentialAnimationGroupD2Ev@Qt_6 6.1.2
 _ZN26QAbstractNativeEventFilterC1Ev@Qt_6 6.1.2
 _ZN26QAbstractNativeEventFilterC2Ev@Qt_6 6.1.2
 _ZN26QAbstractNativeEventFilterD0Ev@Qt_6 6.1.2
 _ZN26QAbstractNativeEventFilterD1Ev@Qt_6 6.1.2
 _ZN26QAbstractNativeEventFilterD2Ev@Qt_6 6.1.2
 _ZN26QMessageAuthenticationCode4hashERK10QByteArrayS2_N18QCryptographicHash9AlgorithmE@Qt_6 6.1.2
 _ZN26QMessageAuthenticationCode5resetEv@Qt_6 6.1.2
 _ZN26QMessageAuthenticationCode6setKeyERK10QByteArray@Qt_6 6.1.2
 _ZN26QMessageAuthenticationCode7addDataEP9QIODevice@Qt_6 6.1.2
 (subst)_ZN26QMessageAuthenticationCode7addDataEPKc{qptrdiff}@Qt_6 6.1.2
 _ZN26QMessageAuthenticationCode7addDataERK10QByteArray@Qt_6 6.1.2
 _ZN26QMessageAuthenticationCodeC1EN18QCryptographicHash9AlgorithmERK10QByteArray@Qt_6 6.1.2
 _ZN26QMessageAuthenticationCodeC2EN18QCryptographicHash9AlgorithmERK10QByteArray@Qt_6 6.1.2
 _ZN26QMessageAuthenticationCodeD1Ev@Qt_6 6.1.2
 _ZN26QMessageAuthenticationCodeD2Ev@Qt_6 6.1.2
 _ZN26QPropertyBindingPrivatePtr20destroyAndFreeMemoryEv@Qt_6 6.1.2
 _ZN27QDynamicPropertyChangeEventC1ERK10QByteArray@Qt_6 6.1.2
 _ZN27QDynamicPropertyChangeEventC1ERKS_@Qt_6 6.4.0
 _ZN27QDynamicPropertyChangeEventC2ERK10QByteArray@Qt_6 6.1.2
 _ZN27QDynamicPropertyChangeEventC2ERKS_@Qt_6 6.4.0
 _ZN27QDynamicPropertyChangeEventD0Ev@Qt_6 6.1.2
 _ZN27QDynamicPropertyChangeEventD1Ev@Qt_6 6.1.2
 _ZN27QDynamicPropertyChangeEventD2Ev@Qt_6 6.1.2
 _ZN27QOperatingSystemVersionBase11isAnyOfTypeESt16initializer_listINS_6OSTypeEES1_@Qt_6 6.3.0
 _ZN27QOperatingSystemVersionBase4nameES_@Qt_6 6.3.0
 _ZN27QOperatingSystemVersionBase7compareES_S_@Qt_6 6.3.0
 _ZN27QOperatingSystemVersionBase7currentEv@Qt_6 6.3.0
 _ZN27QXmlStreamEntityDeclarationC1Ev@Qt_6 6.1.2
 _ZN27QXmlStreamEntityDeclarationC2Ev@Qt_6 6.1.2
 _ZN28QConcatenateTablesProxyModel11qt_metacallEN11QMetaObject4CallEiPPv@Qt_6 6.1.2
 _ZN28QConcatenateTablesProxyModel11qt_metacastEPKc@Qt_6 6.1.2
 _ZN28QConcatenateTablesProxyModel11setItemDataERK11QModelIndexRK4QMapIi8QVariantE@Qt_6 6.1.2
 _ZN28QConcatenateTablesProxyModel12dropMimeDataEPK9QMimeDataN2Qt10DropActionEiiRK11QModelIndex@Qt_6 6.1.2
 _ZN28QConcatenateTablesProxyModel14addSourceModelEP18QAbstractItemModel@Qt_6 6.1.2
 _ZN28QConcatenateTablesProxyModel16staticMetaObjectE@Qt_6 6.1.2
 _ZN28QConcatenateTablesProxyModel17removeSourceModelEP18QAbstractItemModel@Qt_6 6.1.2
 _ZN28QConcatenateTablesProxyModel7setDataERK11QModelIndexRK8QVarianti@Qt_6 6.1.2
 _ZN28QConcatenateTablesProxyModelC1EP7QObject@Qt_6 6.1.2
 _ZN28QConcatenateTablesProxyModelC2EP7QObject@Qt_6 6.1.2
 _ZN28QConcatenateTablesProxyModelD0Ev@Qt_6 6.1.2
 _ZN28QConcatenateTablesProxyModelD1Ev@Qt_6 6.1.2
 _ZN28QConcatenateTablesProxyModelD2Ev@Qt_6 6.1.2
 (optional=templinst)_ZN28QExplicitlySharedDataPointerI25QRegularExpressionPrivateED1Ev@Qt_6 6.1.2
 (optional=templinst)_ZN28QExplicitlySharedDataPointerI25QRegularExpressionPrivateED2Ev@Qt_6 6.1.2
 (optional=templinst)_ZN28QExplicitlySharedDataPointerI30QRegularExpressionMatchPrivateED1Ev@Qt_6 6.1.2
 (optional=templinst)_ZN28QExplicitlySharedDataPointerI30QRegularExpressionMatchPrivateED2Ev@Qt_6 6.1.2
 (optional=templinst)_ZN28QExplicitlySharedDataPointerI38QRegularExpressionMatchIteratorPrivateED1Ev@Qt_6 6.1.2
 (optional=templinst)_ZN28QExplicitlySharedDataPointerI38QRegularExpressionMatchIteratorPrivateED2Ev@Qt_6 6.1.2
 _ZN29QXmlStreamNotationDeclarationC1Ev@Qt_6 6.1.2
 _ZN29QXmlStreamNotationDeclarationC2Ev@Qt_6 6.1.2
 _ZN2Qt10forcepointER11QTextStream@Qt_6 6.1.2
 _ZN2Qt10noshowbaseER11QTextStream@Qt_6 6.1.2
 _ZN2Qt10scientificER11QTextStream@Qt_6 6.1.2
 _ZN2Qt11noforcesignER11QTextStream@Qt_6 6.1.2
 _ZN2Qt12noforcepointER11QTextStream@Qt_6 6.1.2
 _ZN2Qt13lowercasebaseER11QTextStream@Qt_6 6.1.2
 _ZN2Qt13uppercasebaseER11QTextStream@Qt_6 6.1.2
 _ZN2Qt15lowercasedigitsER11QTextStream@Qt_6 6.1.2
 _ZN2Qt15uppercasedigitsER11QTextStream@Qt_6 6.1.2
 _ZN2Qt16staticMetaObjectE@Qt_6 6.1.2
 _ZN2Qt22endPropertyUpdateGroupEv@Qt_6 6.2.0
 _ZN2Qt24beginPropertyUpdateGroupEv@Qt_6 6.2.0
 _ZN2Qt2wsER11QTextStream@Qt_6 6.1.2
 _ZN2Qt3binER11QTextStream@Qt_6 6.1.2
 _ZN2Qt3bomER11QTextStream@Qt_6 6.1.2
 _ZN2Qt3decER11QTextStream@Qt_6 6.1.2
 _ZN2Qt3hexER11QTextStream@Qt_6 6.1.2
 _ZN2Qt3octER11QTextStream@Qt_6 6.1.2
 _ZN2Qt4endlER11QTextStream@Qt_6 6.1.2
 _ZN2Qt4leftER11QTextStream@Qt_6 6.1.2
 _ZN2Qt5fixedER11QTextStream@Qt_6 6.1.2
 _ZN2Qt5flushER11QTextStream@Qt_6 6.1.2
 _ZN2Qt5resetER11QTextStream@Qt_6 6.1.2
 _ZN2Qt5rightER11QTextStream@Qt_6 6.1.2
 _ZN2Qt6centerER11QTextStream@Qt_6 6.1.2
 _ZN2Qt8showbaseER11QTextStream@Qt_6 6.1.2
 _ZN2Qt9forcesignER11QTextStream@Qt_6 6.1.2
 _ZN30QXmlStreamNamespaceDeclarationC1ERK7QStringS2_@Qt_6 6.1.2
 _ZN30QXmlStreamNamespaceDeclarationC1Ev@Qt_6 6.1.2
 _ZN30QXmlStreamNamespaceDeclarationC2ERK7QStringS2_@Qt_6 6.1.2
 _ZN30QXmlStreamNamespaceDeclarationC2Ev@Qt_6 6.1.2
 _ZN31QRegularExpressionMatchIterator4nextEv@Qt_6 6.1.2
 _ZN31QRegularExpressionMatchIteratorC1ER38QRegularExpressionMatchIteratorPrivate@Qt_6 6.1.2
 _ZN31QRegularExpressionMatchIteratorC1ERKS_@Qt_6 6.1.2
 _ZN31QRegularExpressionMatchIteratorC1Ev@Qt_6 6.1.2
 _ZN31QRegularExpressionMatchIteratorC2ER38QRegularExpressionMatchIteratorPrivate@Qt_6 6.1.2
 _ZN31QRegularExpressionMatchIteratorC2ERKS_@Qt_6 6.1.2
 _ZN31QRegularExpressionMatchIteratorC2Ev@Qt_6 6.1.2
 _ZN31QRegularExpressionMatchIteratorD1Ev@Qt_6 6.1.2
 _ZN31QRegularExpressionMatchIteratorD2Ev@Qt_6 6.1.2
 _ZN31QRegularExpressionMatchIteratoraSERKS_@Qt_6 6.1.2
 _ZN4QDir10setCurrentERK7QString@Qt_6 6.1.2
 _ZN4QDir10setSortingE6QFlagsINS_8SortFlagEE@Qt_6 6.1.2
 _ZN4QDir11currentPathEv@Qt_6 6.1.2
 _ZN4QDir11searchPathsERK7QString@Qt_6 6.1.2
 _ZN4QDir12makeAbsoluteEv@Qt_6 6.1.2
 _ZN4QDir13addSearchPathERK7QStringS2_@Qt_6 6.1.2
 _ZN4QDir14isRelativePathERK7QString@Qt_6 6.1.2
 _ZN4QDir14setNameFiltersERK5QListI7QStringE@Qt_6 6.1.2
 _ZN4QDir14setSearchPathsERK7QStringRK5QListIS0_E@Qt_6 6.1.2
 _ZN4QDir17removeRecursivelyEv@Qt_6 6.1.2
 _ZN4QDir18toNativeSeparatorsERK7QString@Qt_6 6.1.2
 _ZN4QDir20fromNativeSeparatorsERK7QString@Qt_6 6.1.2
 _ZN4QDir21nameFiltersFromStringERK7QString@Qt_6 6.1.2
 _ZN4QDir2cdERK7QString@Qt_6 6.1.2
 _ZN4QDir4cdUpEv@Qt_6 6.1.2
 _ZN4QDir5matchERK5QListI7QStringERKS1_@Qt_6 6.1.2
 _ZN4QDir5matchERK7QStringS2_@Qt_6 6.1.2
 _ZN4QDir6d_funcEv@Qt_6 6.1.2
 _ZN4QDir6drivesEv@Qt_6 6.1.2
 _ZN4QDir6removeERK7QString@Qt_6 6.1.2
 _ZN4QDir6renameERK7QStringS2_@Qt_6 6.1.2
 _ZN4QDir7setPathERK7QString@Qt_6 6.1.2
 _ZN4QDir8homePathEv@Qt_6 6.1.2
 _ZN4QDir8rootPathEv@Qt_6 6.1.2
 _ZN4QDir8tempPathEv@Qt_6 6.1.2
 _ZN4QDir9cleanPathERK7QString@Qt_6 6.1.2
 _ZN4QDir9setFilterE6QFlagsINS_6FilterEE@Qt_6 6.1.2
 _ZN4QDirC1ER11QDirPrivate@Qt_6 6.1.2
 _ZN4QDirC1ERK7QString@Qt_6 6.1.2
 _ZN4QDirC1ERK7QStringS2_6QFlagsINS_8SortFlagEES3_INS_6FilterEE@Qt_6 6.1.2
 _ZN4QDirC1ERKS_@Qt_6 6.1.2
 _ZN4QDirC2ER11QDirPrivate@Qt_6 6.1.2
 _ZN4QDirC2ERK7QString@Qt_6 6.1.2
 _ZN4QDirC2ERK7QStringS2_6QFlagsINS_8SortFlagEES3_INS_6FilterEE@Qt_6 6.1.2
 _ZN4QDirC2ERKS_@Qt_6 6.1.2
 _ZN4QDirD1Ev@Qt_6 6.1.2
 _ZN4QDirD2Ev@Qt_6 6.1.2
 _ZN4QDiraSERKS_@Qt_6 6.1.2
 _ZN4QUrl11fromEncodedERK10QByteArrayNS_11ParsingModeE@Qt_6 6.1.2
 _ZN4QUrl11setFragmentERK7QStringNS_11ParsingModeE@Qt_6 6.1.2
 _ZN4QUrl11setPasswordERK7QStringNS_11ParsingModeE@Qt_6 6.1.2
 _ZN4QUrl11setUserInfoERK7QStringNS_11ParsingModeE@Qt_6 6.1.2
 _ZN4QUrl11setUserNameERK7QStringNS_11ParsingModeE@Qt_6 6.1.2
 _ZN4QUrl12idnWhitelistEv@Qt_6 6.1.2
 _ZN4QUrl12setAuthorityERK7QStringNS_11ParsingModeE@Qt_6 6.1.2
 _ZN4QUrl12toStringListERK5QListIS_E12QUrlTwoFlagsINS_19UrlFormattingOptionENS_25ComponentFormattingOptionEE@Qt_6 6.1.2
 _ZN4QUrl13fromLocalFileERK7QString@Qt_6 6.1.2
 _ZN4QUrl13fromUserInputERK7QStringS2_6QFlagsINS_25UserInputResolutionOptionEE@Qt_6 6.1.2
 _ZN4QUrl14fromStringListERK5QListI7QStringENS_11ParsingModeE@Qt_6 6.1.2
 _ZN4QUrl15setIdnWhitelistERK5QListI7QStringE@Qt_6 6.1.2
 _ZN4QUrl17toPercentEncodingERK7QStringRK10QByteArrayS5_@Qt_6 6.1.2
 _ZN4QUrl19fromPercentEncodingERK10QByteArray@Qt_6 6.1.2
 _ZN4QUrl5clearEv@Qt_6 6.1.2
 _ZN4QUrl5toAceERK7QString6QFlagsINS_19AceProcessingOptionEE@Qt_6 6.3.0
 _ZN4QUrl5toAceERK7QString@Qt_6 6.1.2
 _ZN4QUrl6detachEv@Qt_6 6.1.2
 _ZN4QUrl6setUrlERK7QStringNS_11ParsingModeE@Qt_6 6.1.2
 _ZN4QUrl7fromAceERK10QByteArray6QFlagsINS_19AceProcessingOptionEE@Qt_6 6.3.0
 _ZN4QUrl7fromAceERK10QByteArray@Qt_6 6.1.2
 _ZN4QUrl7setHostERK7QStringNS_11ParsingModeE@Qt_6 6.1.2
 _ZN4QUrl7setPathERK7QStringNS_11ParsingModeE@Qt_6 6.1.2
 _ZN4QUrl7setPortEi@Qt_6 6.1.2
 _ZN4QUrl8setQueryERK7QStringNS_11ParsingModeE@Qt_6 6.1.2
 _ZN4QUrl8setQueryERK9QUrlQuery@Qt_6 6.1.2
 _ZN4QUrl9setSchemeERK7QString@Qt_6 6.1.2
 _ZN4QUrlC1ERK7QStringNS_11ParsingModeE@Qt_6 6.1.2
 _ZN4QUrlC1ERKS_@Qt_6 6.1.2
 _ZN4QUrlC1Ev@Qt_6 6.1.2
 _ZN4QUrlC2ERK7QStringNS_11ParsingModeE@Qt_6 6.1.2
 _ZN4QUrlC2ERKS_@Qt_6 6.1.2
 _ZN4QUrlC2Ev@Qt_6 6.1.2
 _ZN4QUrlD1Ev@Qt_6 6.1.2
 _ZN4QUrlD2Ev@Qt_6 6.1.2
 _ZN4QUrlaSERK7QString@Qt_6 6.1.2
 _ZN4QUrlaSERKS_@Qt_6 6.1.2
 _ZN5QChar10digitValueEDi@Qt_6 6.1.2
 _ZN5QChar11hasMirroredEDi@Qt_6 6.1.2
 _ZN5QChar11joiningTypeEDi@Qt_6 6.1.2
 _ZN5QChar11toTitleCaseEDi@Qt_6 6.1.2
 _ZN5QChar12mirroredCharEDi@Qt_6 6.1.2
 _ZN5QChar12toCaseFoldedEDi@Qt_6 6.1.2
 _ZN5QChar13decompositionEDi@Qt_6 6.1.2
 _ZN5QChar14combiningClassEDi@Qt_6 6.1.2
 _ZN5QChar14isSpace_helperEDi@Qt_6 6.1.2
 _ZN5QChar14unicodeVersionEDi@Qt_6 6.1.2
 _ZN5QChar15isLetter_helperEDi@Qt_6 6.1.2
 _ZN5QChar15isNumber_helperEDi@Qt_6 6.1.2
 _ZN5QChar16decompositionTagEDi@Qt_6 6.1.2
 _ZN5QChar21currentUnicodeVersionEv@Qt_6 6.1.2
 _ZN5QChar23isLetterOrNumber_helperEDi@Qt_6 6.1.2
 _ZN5QChar6isMarkEDi@Qt_6 6.1.2
 _ZN5QChar6scriptEDi@Qt_6 6.1.2
 _ZN5QChar7isPrintEDi@Qt_6 6.1.2
 _ZN5QChar7isPunctEDi@Qt_6 6.1.2
 _ZN5QChar7toLowerEDi@Qt_6 6.1.2
 _ZN5QChar7toUpperEDi@Qt_6 6.1.2
 _ZN5QChar8categoryEDi@Qt_6 6.1.2
 _ZN5QChar8isSymbolEDi@Qt_6 6.1.2
 _ZN5QChar9directionEDi@Qt_6 6.1.2
 _ZN5QDate10fromStringE11QStringViewN2Qt10DateFormatE@Qt_6 6.1.2
 _ZN5QDate10fromStringERK7QString11QStringView9QCalendar@Qt_6 6.1.2
 _ZN5QDate10isLeapYearEi@Qt_6 6.1.2
 _ZN5QDate11currentDateEv@Qt_6 6.1.2
 _ZN5QDate7isValidEiii@Qt_6 6.1.2
 _ZN5QDate7setDateEiii9QCalendar@Qt_6 6.1.2
 _ZN5QDate7setDateEiii@Qt_6 6.1.2
 _ZN5QDateC1Eiii9QCalendar@Qt_6 6.1.2
 _ZN5QDateC1Eiii@Qt_6 6.1.2
 _ZN5QDateC2Eiii9QCalendar@Qt_6 6.1.2
 _ZN5QDateC2Eiii@Qt_6 6.1.2
 _ZN5QFile11moveToTrashERK7QStringPS0_@Qt_6 6.1.2
 _ZN5QFile11moveToTrashEv@Qt_6 6.1.2
 _ZN5QFile11permissionsERK7QString@Qt_6 6.1.2
 _ZN5QFile11qt_metacallEN11QMetaObject4CallEiPPv@Qt_6 6.1.2
 _ZN5QFile11qt_metacastEPKc@Qt_6 6.1.2
 _ZN5QFile11setFileNameERK7QString@Qt_6 6.1.2
 _ZN5QFile13symLinkTargetERK7QString@Qt_6 6.1.2
 _ZN5QFile14setPermissionsE6QFlagsIN11QFileDevice10PermissionEE@Qt_6 6.1.2
 _ZN5QFile14setPermissionsERK7QString6QFlagsIN11QFileDevice10PermissionEE@Qt_6 6.1.2
 _ZN5QFile16staticMetaObjectE@Qt_6 6.1.2
 _ZN5QFile4copyERK7QString@Qt_6 6.1.2
 _ZN5QFile4copyERK7QStringS2_@Qt_6 6.1.2
 _ZN5QFile4linkERK7QString@Qt_6 6.1.2
 _ZN5QFile4linkERK7QStringS2_@Qt_6 6.1.2
 _ZN5QFile4openE6QFlagsIN13QIODeviceBase12OpenModeFlagEE@Qt_6 6.1.2
 _ZN5QFile4openE6QFlagsIN13QIODeviceBase12OpenModeFlagEES0_IN11QFileDevice10PermissionEE@Qt_6 6.3.0
 _ZN5QFile4openEP8_IO_FILE6QFlagsIN13QIODeviceBase12OpenModeFlagEES2_IN11QFileDevice14FileHandleFlagEE@Qt_6 6.1.2
 _ZN5QFile4openEi6QFlagsIN13QIODeviceBase12OpenModeFlagEES0_IN11QFileDevice14FileHandleFlagEE@Qt_6 6.1.2
 _ZN5QFile6existsERK7QString@Qt_6 6.1.2
 _ZN5QFile6removeERK7QString@Qt_6 6.1.2
 _ZN5QFile6removeEv@Qt_6 6.1.2
 _ZN5QFile6renameERK7QString@Qt_6 6.1.2
 _ZN5QFile6renameERK7QStringS2_@Qt_6 6.1.2
 _ZN5QFile6resizeERK7QStringx@Qt_6 6.1.2
 _ZN5QFile6resizeEx@Qt_6 6.1.2
 _ZN5QFileC1EP7QObject@Qt_6 6.1.2
 _ZN5QFileC1ER12QFilePrivateP7QObject@Qt_6 6.1.2
 _ZN5QFileC1ERK7QString@Qt_6 6.1.2
 _ZN5QFileC1ERK7QStringP7QObject@Qt_6 6.1.2
 _ZN5QFileC1Ev@Qt_6 6.1.2
 _ZN5QFileC2EP7QObject@Qt_6 6.1.2
 _ZN5QFileC2ER12QFilePrivateP7QObject@Qt_6 6.1.2
 _ZN5QFileC2ERK7QString@Qt_6 6.1.2
 _ZN5QFileC2ERK7QStringP7QObject@Qt_6 6.1.2
 _ZN5QFileC2Ev@Qt_6 6.1.2
 _ZN5QFileD0Ev@Qt_6 6.1.2
 _ZN5QFileD1Ev@Qt_6 6.1.2
 _ZN5QFileD2Ev@Qt_6 6.1.2
 _ZN5QSize9transposeEv@Qt_6 6.1.2
 _ZN5QTest5qWaitEi@Qt_6 6.1.2
 _ZN5QTest6qSleepEi@Qt_6 6.1.2
 _ZN5QTime10fromStringE11QStringViewN2Qt10DateFormatE@Qt_6 6.1.2
 _ZN5QTime10fromStringERK7QString11QStringView@Qt_6 6.1.2
 _ZN5QTime11currentTimeEv@Qt_6 6.1.2
 _ZN5QTime6setHMSEiiii@Qt_6 6.1.2
 _ZN5QTime7isValidEiiii@Qt_6 6.1.2
 _ZN5QTimeC1Eiiii@Qt_6 6.1.2
 _ZN5QTimeC2Eiiii@Qt_6 6.1.2
 _ZN5QUtf816convertToUnicodeE14QByteArrayViewPN20QStringConverterBase5StateE@Qt_6 6.1.2
 _ZN5QUtf816convertToUnicodeEP5QChar14QByteArrayView@Qt_6 6.1.2
 _ZN5QUtf818convertFromUnicodeE11QStringView@Qt_6 6.1.2
 _ZN5QUtf818convertFromUnicodeE11QStringViewPN20QStringConverterBase5StateE@Qt_6 6.1.2
 _ZN5QUuid10createUuidEv@Qt_6 6.1.2
 _ZN5QUuid10fromStringE11QStringView@Qt_6 6.1.2
 _ZN5QUuid10fromStringE13QLatin1String@Qt_6 6.1.2
 _ZN5QUuid10fromStringE14QAnyStringView@Qt_6 6.3.0
 _ZN5QUuid11fromRfc4122E14QByteArrayView@Qt_6 6.3.0
 _ZN5QUuid11fromRfc4122ERK10QByteArray@Qt_6 6.1.2
 _ZN5QUuid12createUuidV3ERKS_RK10QByteArray@Qt_6 6.1.2
 _ZN5QUuid12createUuidV5ERKS_RK10QByteArray@Qt_6 6.1.2
 _ZN5QUuidC1EPKc@Qt_6 6.1.2
 _ZN5QUuidC1ERK10QByteArray@Qt_6 6.1.2
 _ZN5QUuidC1ERK7QString@Qt_6 6.1.2
 _ZN5QUuidC2EPKc@Qt_6 6.1.2
 _ZN5QUuidC2ERK10QByteArray@Qt_6 6.1.2
 _ZN5QUuidC2ERK7QString@Qt_6 6.1.2
 _ZN6QDebug11resetFormatEv@Qt_6 6.1.2
 (subst)_ZN6QDebug12putByteArrayEPKc{size_t}NS_13Latin1ContentE@Qt_6 6.1.2
 _ZN6QDebug7putUcs4Ej@Qt_6 6.1.2
 (subst)_ZN6QDebug9putStringEPK5QChar{size_t}@Qt_6 6.1.2
 _ZN6QDebugD1Ev@Qt_6 6.1.2
 _ZN6QDebugD2Ev@Qt_6 6.1.2
 _ZN6QEvent16staticMetaObjectE@Qt_6 6.1.2
 _ZN6QEvent17registerEventTypeEi@Qt_6 6.1.2
 _ZN6QEventC1ENS_4TypeE@Qt_6 6.1.2
 _ZN6QEventC2ENS_4TypeE@Qt_6 6.1.2
 _ZN6QEventD0Ev@Qt_6 6.1.2
 _ZN6QEventD1Ev@Qt_6 6.1.2
 _ZN6QEventD2Ev@Qt_6 6.1.2
 _ZN6QLineF8setAngleEd@Qt_6 6.1.2
 _ZN6QLineF9fromPolarEdd@Qt_6 6.1.2
 _ZN6QSizeF9transposeEv@Qt_6 6.1.2
 _ZN6QTimer10singleShotEiN2Qt9TimerTypeEPK7QObjectPKc@Qt_6 6.1.2
 _ZN6QTimer10singleShotEiPK7QObjectPKc@Qt_6 6.1.2
 _ZN6QTimer10timerEventEP11QTimerEvent@Qt_6 6.1.2
 _ZN6QTimer11qt_metacallEN11QMetaObject4CallEiPPv@Qt_6 6.1.2
 _ZN6QTimer11qt_metacastEPKc@Qt_6 6.1.2
 _ZN6QTimer11setIntervalEi@Qt_6 6.1.2
 _ZN6QTimer12setTimerTypeEN2Qt9TimerTypeE@Qt_6 6.1.2
 _ZN6QTimer13setSingleShotEb@Qt_6 6.1.2
 _ZN6QTimer14bindableActiveEv@Qt_6 6.1.2
 _ZN6QTimer14singleShotImplEiN2Qt9TimerTypeEPK7QObjectPN9QtPrivate15QSlotObjectBaseE@Qt_6 6.1.2
 _ZN6QTimer16bindableIntervalEv@Qt_6 6.2.0
 _ZN6QTimer16staticMetaObjectE@Qt_6 6.1.2
 _ZN6QTimer17bindableTimerTypeEv@Qt_6 6.1.2
 _ZN6QTimer18bindableSingleShotEv@Qt_6 6.1.2
 _ZN6QTimer4stopEv@Qt_6 6.1.2
 _ZN6QTimer5startEi@Qt_6 6.1.2
 _ZN6QTimer5startEv@Qt_6 6.1.2
 _ZN6QTimer7timeoutENS_14QPrivateSignalE@Qt_6 6.1.2
 _ZN6QTimerC1EP7QObject@Qt_6 6.1.2
 _ZN6QTimerC2EP7QObject@Qt_6 6.1.2
 _ZN6QTimerD0Ev@Qt_6 6.1.2
 _ZN6QTimerD1Ev@Qt_6 6.1.2
 _ZN6QTimerD2Ev@Qt_6 6.1.2
 _ZN6QUtf1616convertToUnicodeE14QByteArrayViewPN20QStringConverterBase5StateE14DataEndianness@Qt_6 6.1.2
 _ZN6QUtf1618convertFromUnicodeE11QStringViewPN20QStringConverterBase5StateE14DataEndianness@Qt_6 6.1.2
 _ZN6QUtf3216convertToUnicodeE14QByteArrayViewPN20QStringConverterBase5StateE14DataEndianness@Qt_6 6.1.2
 _ZN6QUtf3218convertFromUnicodeE11QStringViewPN20QStringConverterBase5StateE14DataEndianness@Qt_6 6.1.2
 _ZN7QBuffer11qt_metacallEN11QMetaObject4CallEiPPv@Qt_6 6.1.2
 _ZN7QBuffer11qt_metacastEPKc@Qt_6 6.1.2
 _ZN7QBuffer13connectNotifyERK11QMetaMethod@Qt_6 6.1.2
 _ZN7QBuffer16disconnectNotifyERK11QMetaMethod@Qt_6 6.1.2
 _ZN7QBuffer16staticMetaObjectE@Qt_6 6.1.2
 _ZN7QBuffer4openE6QFlagsIN13QIODeviceBase12OpenModeFlagEE@Qt_6 6.1.2
 _ZN7QBuffer4seekEx@Qt_6 6.1.2
 _ZN7QBuffer5closeEv@Qt_6 6.1.2
 _ZN7QBuffer6bufferEv@Qt_6 6.1.2
 _ZN7QBuffer7setDataERK10QByteArray@Qt_6 6.1.2
 _ZN7QBuffer8readDataEPcx@Qt_6 6.1.2
 _ZN7QBuffer9setBufferEP10QByteArray@Qt_6 6.1.2
 _ZN7QBuffer9writeDataEPKcx@Qt_6 6.1.2
 _ZN7QBufferC1EP10QByteArrayP7QObject@Qt_6 6.1.2
 _ZN7QBufferC1EP7QObject@Qt_6 6.1.2
 _ZN7QBufferC2EP10QByteArrayP7QObject@Qt_6 6.1.2
 _ZN7QBufferC2EP7QObject@Qt_6 6.1.2
 _ZN7QBufferD0Ev@Qt_6 6.1.2
 _ZN7QBufferD1Ev@Qt_6 6.1.2
 _ZN7QBufferD2Ev@Qt_6 6.1.2
 _ZN7QLocale10setDefaultERKS_@Qt_6 6.1.2
 _ZN7QLocale12codeToScriptE11QStringView@Qt_6 6.1.2
 _ZN7QLocale12scriptToCodeENS_6ScriptE@Qt_6 6.1.2
 _ZN7QLocale13codeToCountryE11QStringView@Qt_6 6.1.2
 _ZN7QLocale13countryToCodeENS_7CountryE@Qt_6 6.1.2
 _ZN7QLocale14codeToLanguageE11QStringView6QFlagsINS_16LanguageCodeTypeEE@Qt_6 6.3.0
 _ZN7QLocale14codeToLanguageE11QStringView@Qt_6 6.1.2
 _ZN7QLocale14languageToCodeENS_8LanguageE6QFlagsINS_16LanguageCodeTypeEE@Qt_6 6.3.0
 _ZN7QLocale14languageToCodeENS_8LanguageE@Qt_6 6.1.2
 _ZN7QLocale14scriptToStringENS_6ScriptE@Qt_6 6.1.2
 _ZN7QLocale15codeToTerritoryE11QStringView@Qt_6 6.2.0
 _ZN7QLocale15countryToStringENS_7CountryE@Qt_6 6.1.2
 _ZN7QLocale15matchingLocalesENS_8LanguageENS_6ScriptENS_7CountryE@Qt_6 6.1.2
 _ZN7QLocale15territoryToCodeENS_7CountryE@Qt_6 6.2.0
 _ZN7QLocale16languageToStringENS_8LanguageE@Qt_6 6.1.2
 _ZN7QLocale16setNumberOptionsE6QFlagsINS_12NumberOptionEE@Qt_6 6.1.2
 _ZN7QLocale16staticMetaObjectE@Qt_6 6.1.2
 _ZN7QLocale17territoryToStringENS_7CountryE@Qt_6 6.2.0
 _ZN7QLocale20countriesForLanguageENS_8LanguageE@Qt_6 6.1.2
 _ZN7QLocale6systemEv@Qt_6 6.1.2
 _ZN7QLocaleC1E11QStringView@Qt_6 6.3.0
 _ZN7QLocaleC1ENS_8LanguageENS_6ScriptENS_7CountryE@Qt_6 6.1.2
 _ZN7QLocaleC1ENS_8LanguageENS_7CountryE@Qt_6 6.1.2
 _ZN7QLocaleC1ER14QLocalePrivate@Qt_6 6.3.0
 _ZN7QLocaleC1ERK7QString@Qt_6 6.1.2
 _ZN7QLocaleC1ERKS_@Qt_6 6.1.2
 _ZN7QLocaleC1Ev@Qt_6 6.1.2
 _ZN7QLocaleC2E11QStringView@Qt_6 6.3.0
 _ZN7QLocaleC2ENS_8LanguageENS_6ScriptENS_7CountryE@Qt_6 6.1.2
 _ZN7QLocaleC2ENS_8LanguageENS_7CountryE@Qt_6 6.1.2
 _ZN7QLocaleC2ER14QLocalePrivate@Qt_6 6.3.0
 _ZN7QLocaleC2ERK7QString@Qt_6 6.1.2
 _ZN7QLocaleC2ERKS_@Qt_6 6.1.2
 _ZN7QLocaleC2Ev@Qt_6 6.1.2
 _ZN7QLocaleD1Ev@Qt_6 6.1.2
 _ZN7QLocaleD2Ev@Qt_6 6.1.2
 _ZN7QLocaleaSERKS_@Qt_6 6.1.2
 _ZN7QObject10childEventEP11QChildEvent@Qt_6 6.1.2
 _ZN7QObject10disconnectEPKS_PKcS1_S3_@Qt_6 6.1.2
 _ZN7QObject10disconnectEPKS_RK11QMetaMethodS1_S4_@Qt_6 6.1.2
 _ZN7QObject10disconnectERKN11QMetaObject10ConnectionE@Qt_6 6.1.2
 _ZN7QObject10startTimerEiN2Qt9TimerTypeE@Qt_6 6.1.2
 _ZN7QObject10timerEventEP11QTimerEvent@Qt_6 6.1.2
 _ZN7QObject11connectImplEPKS_PPvS1_S3_PN9QtPrivate15QSlotObjectBaseEN2Qt14ConnectionTypeEPKiPK11QMetaObject@Qt_6 6.1.2
 _ZN7QObject11customEventEP6QEvent@Qt_6 6.1.2
 _ZN7QObject11deleteLaterEv@Qt_6 6.1.2
 _ZN7QObject11eventFilterEPS_P6QEvent@Qt_6 6.1.2
 _ZN7QObject11qt_metacallEN11QMetaObject4CallEiPPv@Qt_6 6.1.2
 _ZN7QObject11qt_metacastEPKc@Qt_6 6.1.2
 _ZN7QObject11setPropertyEPKcRK8QVariant@Qt_6 6.1.2
 _ZN7QObject12blockSignalsEb@Qt_6 6.1.2
 _ZN7QObject12moveToThreadEP7QThread@Qt_6 6.1.2
 _ZN7QObject13connectNotifyERK11QMetaMethod@Qt_6 6.1.2
 _ZN7QObject13setObjectNameE14QAnyStringView@Qt_6 6.4.0
 _ZN7QObject13setObjectNameERK7QString@Qt_6 6.1.2
 _ZN7QObject14disconnectImplEPKS_PPvS1_S3_PK11QMetaObject@Qt_6 6.1.2
 _ZN7QObject15doSetObjectNameERK7QString@Qt_6 6.4.0
 _ZN7QObject16disconnectNotifyERK11QMetaMethod@Qt_6 6.1.2
 _ZN7QObject16staticMetaObjectE@Qt_6 6.1.2
 _ZN7QObject17objectNameChangedERK7QStringNS_14QPrivateSignalE@Qt_6 6.1.2
 _ZN7QObject17removeEventFilterEPS_@Qt_6 6.1.2
 _ZN7QObject18bindableObjectNameEv@Qt_6 6.2.0
 _ZN7QObject18installEventFilterEPS_@Qt_6 6.1.2
 _ZN7QObject5eventEP6QEvent@Qt_6 6.1.2
 _ZN7QObject7connectEPKS_PKcS1_S3_N2Qt14ConnectionTypeE@Qt_6 6.1.2
 _ZN7QObject7connectEPKS_RK11QMetaMethodS1_S4_N2Qt14ConnectionTypeE@Qt_6 6.1.2
 _ZN7QObject9destroyedEPS_@Qt_6 6.1.2
 _ZN7QObject9killTimerEi@Qt_6 6.1.2
 _ZN7QObject9setParentEPS_@Qt_6 6.1.2
 _ZN7QObjectC1EPS_@Qt_6 6.1.2
 _ZN7QObjectC2EPS_@Qt_6 6.1.2
 _ZN7QObjectD0Ev@Qt_6 6.1.2
 _ZN7QObjectD1Ev@Qt_6 6.1.2
 _ZN7QObjectD2Ev@Qt_6 6.1.2
 _ZN7QString10fromLatin1E14QByteArrayView@Qt_6 6.1.2
 (subst)_ZN7QString10setRawDataEPK5QChar{qptrdiff}@Qt_6 6.1.2
 (subst)_ZN7QString10setUnicodeEPK5QChar{qptrdiff}@Qt_6 6.1.2
 (subst)_ZN7QString11fromRawDataEPK5QChar{qptrdiff}@Qt_6 6.1.2
 (subst)_ZN7QString11reallocDataE{qptrdiff}N10QArrayData16AllocationOptionE@Qt_6 6.1.2
 _ZN7QString13fromLocal8BitE14QByteArrayView@Qt_6 6.1.2
 (subst)_ZN7QString13toUcs4_helperEPKt{qptrdiff}Pj@Qt_6 6.1.2
 _ZN7QString13toUtf8_helperERKS_@Qt_6 6.1.2
 (subst)_ZN7QString14compare_helperEPK5QChar{qptrdiff}PKc{qptrdiff}N2Qt15CaseSensitivityE@Qt_6 6.1.2
 (subst)_ZN7QString14compare_helperEPK5QChar{qptrdiff}S2_{qptrdiff}N2Qt15CaseSensitivityE@Qt_6 6.1.2
 (subst)_ZN7QString14replace_helperEP{size_t}{qptrdiff}{qptrdiff}PK5QChar{qptrdiff}@Qt_6 6.1.2
 _ZN7QString14toLower_helperERKS_@Qt_6 6.1.2
 _ZN7QString14toLower_helperERS_@Qt_6 6.1.2
 _ZN7QString14toUpper_helperERKS_@Qt_6 6.1.2
 _ZN7QString14toUpper_helperERS_@Qt_6 6.1.2
 _ZN7QString14trimmed_helperERKS_@Qt_6 6.1.2
 _ZN7QString14trimmed_helperERS_@Qt_6 6.1.2
 (subst)_ZN7QString15reallocGrowDataE{qptrdiff}@Qt_6 6.1.2
 _ZN7QString15toLatin1_helperERKS_@Qt_6 6.1.2
 _ZN7QString17simplified_helperERKS_@Qt_6 6.1.2
 _ZN7QString17simplified_helperERS_@Qt_6 6.1.2
 _ZN7QString17toIntegral_helperE11QStringViewPbi@Qt_6 6.1.2
 _ZN7QString17toIntegral_helperE11QStringViewPbj@Qt_6 6.1.2
 (subst)_ZN7QString18toLocal8Bit_helperEPK5QChar{qptrdiff}@Qt_6 6.1.2
 _ZN7QString19toCaseFolded_helperERKS_@Qt_6 6.1.2
 _ZN7QString19toCaseFolded_helperERS_@Qt_6 6.1.2
 _ZN7QString23toLatin1_helper_inplaceERS_@Qt_6 6.1.2
 (subst)_ZN7QString25localeAwareCompare_helperEPK5QChar{qptrdiff}S2_{qptrdiff}@Qt_6 6.1.2
 (subst)_ZN7QString4chopE{qptrdiff}@Qt_6 6.1.2
 (subst)_ZN7QString4fillE5QChar{qptrdiff}@Qt_6 6.1.2
 _ZN7QString5eraseEPK5QCharS2_@Qt_6 6.1.2
 _ZN7QString6_emptyE@Qt_6 6.1.2
 _ZN7QString6appendE13QLatin1String@Qt_6 6.1.2
 _ZN7QString6appendE5QChar@Qt_6 6.1.2
 (subst)_ZN7QString6appendEPK5QChar{qptrdiff}@Qt_6 6.1.2
 _ZN7QString6appendERKS_@Qt_6 6.1.2
 (subst)_ZN7QString6insertE{qptrdiff}13QLatin1String@Qt_6 6.1.2
 (subst)_ZN7QString6insertE{qptrdiff}5QChar@Qt_6 6.1.2
 (subst)_ZN7QString6insertE{qptrdiff}PK5QChar{qptrdiff}@Qt_6 6.1.2
 _ZN7QString6numberEdci@Qt_6 6.1.2
 _ZN7QString6numberEii@Qt_6 6.1.2
 _ZN7QString6numberEji@Qt_6 6.1.2
 _ZN7QString6numberEli@Qt_6 6.1.2
 _ZN7QString6numberEmi@Qt_6 6.1.2
 _ZN7QString6numberExi@Qt_6 6.1.2
 _ZN7QString6numberEyi@Qt_6 6.1.2
 _ZN7QString6removeE13QLatin1StringN2Qt15CaseSensitivityE@Qt_6 6.1.2
 _ZN7QString6removeE5QCharN2Qt15CaseSensitivityE@Qt_6 6.1.2
 _ZN7QString6removeERKS_N2Qt15CaseSensitivityE@Qt_6 6.1.2
 (subst)_ZN7QString6removeE{qptrdiff}{qptrdiff}@Qt_6 6.1.2
 (subst)_ZN7QString6resizeE{qptrdiff}5QChar@Qt_6 6.1.2
 (subst)_ZN7QString6resizeE{qptrdiff}@Qt_6 6.1.2
 _ZN7QString6setNumEdci@Qt_6 6.1.2
 _ZN7QString6setNumExi@Qt_6 6.1.2
 _ZN7QString6setNumEyi@Qt_6 6.1.2
 _ZN7QString7replaceE13QLatin1StringRKS_N2Qt15CaseSensitivityE@Qt_6 6.1.2
 _ZN7QString7replaceE13QLatin1StringS0_N2Qt15CaseSensitivityE@Qt_6 6.1.2
 _ZN7QString7replaceE5QChar13QLatin1StringN2Qt15CaseSensitivityE@Qt_6 6.1.2
 _ZN7QString7replaceE5QCharRKS_N2Qt15CaseSensitivityE@Qt_6 6.1.2
 _ZN7QString7replaceE5QCharS0_N2Qt15CaseSensitivityE@Qt_6 6.1.2
 (subst)_ZN7QString7replaceEPK5QChar{qptrdiff}S2_{qptrdiff}N2Qt15CaseSensitivityE@Qt_6 6.1.2
 _ZN7QString7replaceERK18QRegularExpressionRKS_@Qt_6 6.1.2
 _ZN7QString7replaceERKS_13QLatin1StringN2Qt15CaseSensitivityE@Qt_6 6.1.2
 _ZN7QString7replaceERKS_S1_N2Qt15CaseSensitivityE@Qt_6 6.1.2
 (subst)_ZN7QString7replaceE{qptrdiff}{qptrdiff}5QChar@Qt_6 6.1.2
 (subst)_ZN7QString7replaceE{qptrdiff}{qptrdiff}PK5QChar{qptrdiff}@Qt_6 6.1.2
 (subst)_ZN7QString7replaceE{qptrdiff}{qptrdiff}RKS_@Qt_6 6.1.2
 _ZN7QString8asprintfEPKcz@Qt_6 6.1.2
 (subst)_ZN7QString8fromUcs4EPKDi{qptrdiff}@Qt_6 6.1.2
 _ZN7QString8fromUtf8E14QByteArrayView@Qt_6 6.1.2
 (subst)_ZN7QString8truncateE{qptrdiff}@Qt_6 6.1.2
 (subst)_ZN7QString9fromUtf16EPKDs{qptrdiff}@Qt_6 6.1.2
 (arch=alpha sh4)_ZN7QString9vasprintfEPKc13__va_list_tag@Qt_6 6.1.2
 (arch=amd64 powerpc s390x)_ZN7QString9vasprintfEPKcP13__va_list_tag@Qt_6 6.1.2
 (arch=hurd-i386 i386 ppc64 ppc64el)_ZN7QString9vasprintfEPKcPc@Qt_6 6.1.2
 (arch=hppa ia64 m68k mips64el mipsel riscv64 sparc64)_ZN7QString9vasprintfEPKcPv@Qt_6 6.1.2
 (arch=arm64 armel armhf)_ZN7QString9vasprintfEPKcSt9__va_list@Qt_6 6.1.2
 _ZN7QStringC1E5QChar@Qt_6 6.1.2
 (subst)_ZN7QStringC1EPK5QChar{qptrdiff}@Qt_6 6.1.2
 (subst)_ZN7QStringC1E{qptrdiff}5QChar@Qt_6 6.1.2
 (subst)_ZN7QStringC1E{qptrdiff}N2Qt14InitializationE@Qt_6 6.1.2
 _ZN7QStringC2E5QChar@Qt_6 6.1.2
 (subst)_ZN7QStringC2EPK5QChar{qptrdiff}@Qt_6 6.1.2
 (subst)_ZN7QStringC2E{qptrdiff}5QChar@Qt_6 6.1.2
 (subst)_ZN7QStringC2E{qptrdiff}N2Qt14InitializationE@Qt_6 6.1.2
 _ZN7QStringaSE13QLatin1String@Qt_6 6.1.2
 _ZN7QStringaSE5QChar@Qt_6 6.1.2
 _ZN7QStringaSERKS_@Qt_6 6.1.2
 _ZN7QThread11qt_metacallEN11QMetaObject4CallEiPPv@Qt_6 6.1.2
 _ZN7QThread11qt_metacastEPKc@Qt_6 6.1.2
 _ZN7QThread11setPriorityENS_8PriorityE@Qt_6 6.1.2
 _ZN7QThread12setStackSizeEj@Qt_6 6.1.2
 _ZN7QThread13currentThreadEv@Qt_6 6.1.2
 _ZN7QThread16createThreadImplEOSt6futureIvE@Qt_6 6.1.2
 _ZN7QThread16idealThreadCountEv@Qt_6 6.1.2
 _ZN7QThread16staticMetaObjectE@Qt_6 6.1.2
 _ZN7QThread18setEventDispatcherEP24QAbstractEventDispatcher@Qt_6 6.1.2
 _ZN7QThread18yieldCurrentThreadEv@Qt_6 6.1.2
 _ZN7QThread19currentThreadIdImplEv@Qt_6 6.1.2
 _ZN7QThread19requestInterruptionEv@Qt_6 6.1.2
 _ZN7QThread21setTerminationEnabledEb@Qt_6 6.1.2
 _ZN7QThread3runEv@Qt_6 6.1.2
 _ZN7QThread4execEv@Qt_6 6.1.2
 _ZN7QThread4exitEi@Qt_6 6.1.2
 _ZN7QThread4quitEv@Qt_6 6.1.2
 _ZN7QThread4waitE14QDeadlineTimer@Qt_6 6.1.2
 _ZN7QThread5eventEP6QEvent@Qt_6 6.1.2
 _ZN7QThread5sleepEm@Qt_6 6.1.2
 _ZN7QThread5startENS_8PriorityE@Qt_6 6.1.2
 _ZN7QThread6msleepEm@Qt_6 6.1.2
 _ZN7QThread6usleepEm@Qt_6 6.1.2
 _ZN7QThread7startedENS_14QPrivateSignalE@Qt_6 6.1.2
 _ZN7QThread8finishedENS_14QPrivateSignalE@Qt_6 6.1.2
 _ZN7QThread9terminateEv@Qt_6 6.1.2
 _ZN7QThreadC1EP7QObject@Qt_6 6.1.2
 _ZN7QThreadC1ER14QThreadPrivateP7QObject@Qt_6 6.1.2
 _ZN7QThreadC2EP7QObject@Qt_6 6.1.2
 _ZN7QThreadC2ER14QThreadPrivateP7QObject@Qt_6 6.1.2
 _ZN7QThreadD0Ev@Qt_6 6.1.2
 _ZN7QThreadD1Ev@Qt_6 6.1.2
 _ZN7QThreadD2Ev@Qt_6 6.1.2
 _ZN8QCborMap14fromJsonObjectEO11QJsonObject@Qt_6 6.3.0
 _ZN8QCborMap14fromJsonObjectERK11QJsonObject@Qt_6 6.1.2
 _ZN8QCborMap14fromVariantMapERK4QMapI7QString8QVariantE@Qt_6 6.1.2
 _ZN8QCborMap15fromVariantHashERK5QHashI7QString8QVariantE@Qt_6 6.1.2
 _ZN8QCborMap4findE13QLatin1String@Qt_6 6.1.2
 _ZN8QCborMap4findERK10QCborValue@Qt_6 6.1.2
 _ZN8QCborMap4findERK7QString@Qt_6 6.1.2
 _ZN8QCborMap4findEx@Qt_6 6.1.2
 _ZN8QCborMap5clearEv@Qt_6 6.1.2
 _ZN8QCborMap5eraseENS_8IteratorE@Qt_6 6.1.2
 (subst)_ZN8QCborMap6detachE{qptrdiff}@Qt_6 6.1.2
 _ZN8QCborMap7extractENS_8IteratorE@Qt_6 6.1.2
 _ZN8QCborMapC1ERKS_@Qt_6 6.1.2
 _ZN8QCborMapC1Ev@Qt_6 6.1.2
 _ZN8QCborMapC2ERKS_@Qt_6 6.1.2
 _ZN8QCborMapC2Ev@Qt_6 6.1.2
 _ZN8QCborMapD1Ev@Qt_6 6.1.2
 _ZN8QCborMapD2Ev@Qt_6 6.1.2
 _ZN8QCborMapaSERKS_@Qt_6 6.1.2
 _ZN8QCborMapixE13QLatin1String@Qt_6 6.1.2
 _ZN8QCborMapixERK10QCborValue@Qt_6 6.1.2
 _ZN8QCborMapixERK7QString@Qt_6 6.1.2
 _ZN8QCborMapixEx@Qt_6 6.1.2
 _ZN8QLibrary11qt_metacallEN11QMetaObject4CallEiPPv@Qt_6 6.1.2
 _ZN8QLibrary11qt_metacastEPKc@Qt_6 6.1.2
 _ZN8QLibrary11setFileNameERK7QString@Qt_6 6.1.2
 _ZN8QLibrary12setLoadHintsE6QFlagsINS_8LoadHintEE@Qt_6 6.1.2
 _ZN8QLibrary16staticMetaObjectE@Qt_6 6.1.2
 _ZN8QLibrary21setFileNameAndVersionERK7QStringS2_@Qt_6 6.1.2
 _ZN8QLibrary21setFileNameAndVersionERK7QStringi@Qt_6 6.1.2
 _ZN8QLibrary4loadEv@Qt_6 6.1.2
 _ZN8QLibrary6unloadEv@Qt_6 6.1.2
 _ZN8QLibrary7resolveEPKc@Qt_6 6.1.2
 _ZN8QLibrary7resolveERK7QStringPKc@Qt_6 6.1.2
 _ZN8QLibrary7resolveERK7QStringS2_PKc@Qt_6 6.1.2
 _ZN8QLibrary7resolveERK7QStringiPKc@Qt_6 6.1.2
 _ZN8QLibrary9isLibraryERK7QString@Qt_6 6.1.2
 _ZN8QLibraryC1EP7QObject@Qt_6 6.1.2
 _ZN8QLibraryC1ERK7QStringP7QObject@Qt_6 6.1.2
 _ZN8QLibraryC1ERK7QStringS2_P7QObject@Qt_6 6.1.2
 _ZN8QLibraryC1ERK7QStringiP7QObject@Qt_6 6.1.2
 _ZN8QLibraryC2EP7QObject@Qt_6 6.1.2
 _ZN8QLibraryC2ERK7QStringP7QObject@Qt_6 6.1.2
 _ZN8QLibraryC2ERK7QStringS2_P7QObject@Qt_6 6.1.2
 _ZN8QLibraryC2ERK7QStringiP7QObject@Qt_6 6.1.2
 _ZN8QLibraryD0Ev@Qt_6 6.1.2
 _ZN8QLibraryD1Ev@Qt_6 6.1.2
 _ZN8QLibraryD2Ev@Qt_6 6.1.2
 _ZN8QProcess10nullDeviceEv@Qt_6 6.1.2
 _ZN8QProcess10setProgramERK7QString@Qt_6 6.1.2
 _ZN8QProcess11qt_metacallEN11QMetaObject4CallEiPPv@Qt_6 6.1.2
 _ZN8QProcess11qt_metacastEPKc@Qt_6 6.1.2
 _ZN8QProcess12setArgumentsERK5QListI7QStringE@Qt_6 6.1.2
 _ZN8QProcess12splitCommandE11QStringView@Qt_6 6.1.2
 _ZN8QProcess12startCommandERK7QString6QFlagsIN13QIODeviceBase12OpenModeFlagEE@Qt_6 6.1.2
 _ZN8QProcess12stateChangedENS_12ProcessStateENS_14QPrivateSignalE@Qt_6 6.1.2
 _ZN8QProcess13errorOccurredENS_12ProcessErrorE@Qt_6 6.1.2
 _ZN8QProcess13startDetachedEPx@Qt_6 6.1.2
 _ZN8QProcess13startDetachedERK7QStringRK5QListIS0_ES2_Px@Qt_6 6.1.2
 _ZN8QProcess14setEnvironmentERK5QListI7QStringE@Qt_6 6.1.2
 _ZN8QProcess14setReadChannelENS_14ProcessChannelE@Qt_6 6.1.2
 _ZN8QProcess14waitForStartedEi@Qt_6 6.1.2
 _ZN8QProcess15setProcessStateENS_12ProcessStateE@Qt_6 6.1.2
 _ZN8QProcess15waitForFinishedEi@Qt_6 6.1.2
 _ZN8QProcess16closeReadChannelENS_14ProcessChannelE@Qt_6 6.1.2
 _ZN8QProcess16staticMetaObjectE@Qt_6 6.1.2
 _ZN8QProcess16waitForReadyReadEi@Qt_6 6.1.2
 _ZN8QProcess17closeWriteChannelEv@Qt_6 6.1.2
 _ZN8QProcess17setupChildProcessEv@Qt_6 6.1.2
 _ZN8QProcess17systemEnvironmentEv@Qt_6 6.1.2
 _ZN8QProcess19setInputChannelModeENS_16InputChannelModeE@Qt_6 6.1.2
 _ZN8QProcess19setWorkingDirectoryERK7QString@Qt_6 6.1.2
 _ZN8QProcess19waitForBytesWrittenEi@Qt_6 6.1.2
 _ZN8QProcess20readAllStandardErrorEv@Qt_6 6.1.2
 _ZN8QProcess20setStandardErrorFileERK7QString6QFlagsIN13QIODeviceBase12OpenModeFlagEE@Qt_6 6.1.2
 _ZN8QProcess20setStandardInputFileERK7QString@Qt_6 6.1.2
 _ZN8QProcess21readAllStandardOutputEv@Qt_6 6.1.2
 _ZN8QProcess21setProcessChannelModeENS_18ProcessChannelModeE@Qt_6 6.1.2
 _ZN8QProcess21setProcessEnvironmentERK19QProcessEnvironment@Qt_6 6.1.2
 _ZN8QProcess21setStandardOutputFileERK7QString6QFlagsIN13QIODeviceBase12OpenModeFlagEE@Qt_6 6.1.2
 _ZN8QProcess22readyReadStandardErrorENS_14QPrivateSignalE@Qt_6 6.1.2
 _ZN8QProcess23readyReadStandardOutputENS_14QPrivateSignalE@Qt_6 6.1.2
 _ZN8QProcess23setChildProcessModifierERKSt8functionIFvvEE@Qt_6 6.1.2
 _ZN8QProcess24setStandardOutputProcessEPS_@Qt_6 6.1.2
 _ZN8QProcess4killEv@Qt_6 6.1.2
 _ZN8QProcess4openE6QFlagsIN13QIODeviceBase12OpenModeFlagEE@Qt_6 6.1.2
 _ZN8QProcess5closeEv@Qt_6 6.1.2
 _ZN8QProcess5startE6QFlagsIN13QIODeviceBase12OpenModeFlagEE@Qt_6 6.1.2
 _ZN8QProcess5startERK7QStringRK5QListIS0_E6QFlagsIN13QIODeviceBase12OpenModeFlagEE@Qt_6 6.1.2
 _ZN8QProcess7executeERK7QStringRK5QListIS0_E@Qt_6 6.1.2
 _ZN8QProcess7startedENS_14QPrivateSignalE@Qt_6 6.1.2
 _ZN8QProcess8finishedEiNS_10ExitStatusE@Qt_6 6.1.2
 _ZN8QProcess8readDataEPcx@Qt_6 6.1.2
 _ZN8QProcess9terminateEv@Qt_6 6.1.2
 _ZN8QProcess9writeDataEPKcx@Qt_6 6.1.2
 _ZN8QProcessC1EP7QObject@Qt_6 6.1.2
 _ZN8QProcessC2EP7QObject@Qt_6 6.1.2
 _ZN8QProcessD0Ev@Qt_6 6.1.2
 _ZN8QProcessD1Ev@Qt_6 6.1.2
 _ZN8QProcessD2Ev@Qt_6 6.1.2
 _ZN8QSysInfo10kernelTypeEv@Qt_6 6.1.2
 _ZN8QSysInfo11productTypeEv@Qt_6 6.1.2
 _ZN8QSysInfo12bootUniqueIdEv@Qt_6 6.1.2
 _ZN8QSysInfo13kernelVersionEv@Qt_6 6.1.2
 _ZN8QSysInfo14productVersionEv@Qt_6 6.1.2
 _ZN8QSysInfo15machineHostNameEv@Qt_6 6.1.2
 _ZN8QSysInfo15machineUniqueIdEv@Qt_6 6.1.2
 _ZN8QSysInfo17prettyProductNameEv@Qt_6 6.1.2
 _ZN8QSysInfo20buildCpuArchitectureEv@Qt_6 6.1.2
 _ZN8QSysInfo22currentCpuArchitectureEv@Qt_6 6.1.2
 _ZN8QSysInfo8buildAbiEv@Qt_6 6.1.2
 _ZN8QVariant4dataEv@Qt_6 6.1.2
 _ZN8QVariant4loadER11QDataStream@Qt_6 6.1.2
 _ZN8QVariant4viewEiPv@Qt_6 6.1.2
 _ZN8QVariant5clearEv@Qt_6 6.1.2
 _ZN8QVariant6createE9QMetaTypePKv@Qt_6 6.1.2
 _ZN8QVariant6createEiPKv@Qt_6 6.1.2
 _ZN8QVariant6detachEv@Qt_6 6.1.2
 _ZN8QVariant7compareERKS_S1_@Qt_6 6.1.2
 _ZN8QVariant7convertE9QMetaType@Qt_6 6.1.2
 _ZN8QVariantC1E13QLatin1String@Qt_6 6.1.2
 _ZN8QVariantC1E5QChar@Qt_6 6.1.2
 _ZN8QVariantC1E5QDate@Qt_6 6.1.2
 _ZN8QVariantC1E5QTime@Qt_6 6.1.2
 _ZN8QVariantC1E9QMetaTypePKv@Qt_6 6.1.2
 _ZN8QVariantC1ERK10QByteArray@Qt_6 6.1.2
 _ZN8QVariantC1ERK10QJsonArray@Qt_6 6.1.2
 _ZN8QVariantC1ERK10QJsonValue@Qt_6 6.1.2
 _ZN8QVariantC1ERK11QJsonObject@Qt_6 6.1.2
 _ZN8QVariantC1ERK11QModelIndex@Qt_6 6.1.2
 _ZN8QVariantC1ERK12QEasingCurve@Qt_6 6.1.2
 _ZN8QVariantC1ERK13QJsonDocument@Qt_6 6.1.2
 _ZN8QVariantC1ERK18QRegularExpression@Qt_6 6.1.2
 _ZN8QVariantC1ERK21QPersistentModelIndex@Qt_6 6.1.2
 _ZN8QVariantC1ERK4QMapI7QStringS_E@Qt_6 6.1.2
 _ZN8QVariantC1ERK4QUrl@Qt_6 6.1.2
 _ZN8QVariantC1ERK5QHashI7QStringS_E@Qt_6 6.1.2
 _ZN8QVariantC1ERK5QLine@Qt_6 6.1.2
 _ZN8QVariantC1ERK5QListI7QStringE@Qt_6 6.1.2
 _ZN8QVariantC1ERK5QListIS_E@Qt_6 6.1.2
 _ZN8QVariantC1ERK5QRect@Qt_6 6.1.2
 _ZN8QVariantC1ERK5QSize@Qt_6 6.1.2
 _ZN8QVariantC1ERK5QUuid@Qt_6 6.1.2
 _ZN8QVariantC1ERK6QLineF@Qt_6 6.1.2
 _ZN8QVariantC1ERK6QPoint@Qt_6 6.1.2
 _ZN8QVariantC1ERK6QRectF@Qt_6 6.1.2
 _ZN8QVariantC1ERK6QSizeF@Qt_6 6.1.2
 _ZN8QVariantC1ERK7QLocale@Qt_6 6.1.2
 _ZN8QVariantC1ERK7QPointF@Qt_6 6.1.2
 _ZN8QVariantC1ERK7QString@Qt_6 6.1.2
 _ZN8QVariantC1ERK9QBitArray@Qt_6 6.1.2
 _ZN8QVariantC1ERK9QDateTime@Qt_6 6.1.2
 _ZN8QVariantC1ERKS_@Qt_6 6.1.2
 _ZN8QVariantC1Eb@Qt_6 6.1.2
 _ZN8QVariantC1Ed@Qt_6 6.1.2
 _ZN8QVariantC1Ef@Qt_6 6.1.2
 _ZN8QVariantC1Ei@Qt_6 6.1.2
 _ZN8QVariantC1Ej@Qt_6 6.1.2
 _ZN8QVariantC1Ex@Qt_6 6.1.2
 _ZN8QVariantC1Ey@Qt_6 6.1.2
 _ZN8QVariantC2E13QLatin1String@Qt_6 6.1.2
 _ZN8QVariantC2E5QChar@Qt_6 6.1.2
 _ZN8QVariantC2E5QDate@Qt_6 6.1.2
 _ZN8QVariantC2E5QTime@Qt_6 6.1.2
 _ZN8QVariantC2E9QMetaTypePKv@Qt_6 6.1.2
 _ZN8QVariantC2ERK10QByteArray@Qt_6 6.1.2
 _ZN8QVariantC2ERK10QJsonArray@Qt_6 6.1.2
 _ZN8QVariantC2ERK10QJsonValue@Qt_6 6.1.2
 _ZN8QVariantC2ERK11QJsonObject@Qt_6 6.1.2
 _ZN8QVariantC2ERK11QModelIndex@Qt_6 6.1.2
 _ZN8QVariantC2ERK12QEasingCurve@Qt_6 6.1.2
 _ZN8QVariantC2ERK13QJsonDocument@Qt_6 6.1.2
 _ZN8QVariantC2ERK18QRegularExpression@Qt_6 6.1.2
 _ZN8QVariantC2ERK21QPersistentModelIndex@Qt_6 6.1.2
 _ZN8QVariantC2ERK4QMapI7QStringS_E@Qt_6 6.1.2
 _ZN8QVariantC2ERK4QUrl@Qt_6 6.1.2
 _ZN8QVariantC2ERK5QHashI7QStringS_E@Qt_6 6.1.2
 _ZN8QVariantC2ERK5QLine@Qt_6 6.1.2
 _ZN8QVariantC2ERK5QListI7QStringE@Qt_6 6.1.2
 _ZN8QVariantC2ERK5QListIS_E@Qt_6 6.1.2
 _ZN8QVariantC2ERK5QRect@Qt_6 6.1.2
 _ZN8QVariantC2ERK5QSize@Qt_6 6.1.2
 _ZN8QVariantC2ERK5QUuid@Qt_6 6.1.2
 _ZN8QVariantC2ERK6QLineF@Qt_6 6.1.2
 _ZN8QVariantC2ERK6QPoint@Qt_6 6.1.2
 _ZN8QVariantC2ERK6QRectF@Qt_6 6.1.2
 _ZN8QVariantC2ERK6QSizeF@Qt_6 6.1.2
 _ZN8QVariantC2ERK7QLocale@Qt_6 6.1.2
 _ZN8QVariantC2ERK7QPointF@Qt_6 6.1.2
 _ZN8QVariantC2ERK7QString@Qt_6 6.1.2
 _ZN8QVariantC2ERK9QBitArray@Qt_6 6.1.2
 _ZN8QVariantC2ERK9QDateTime@Qt_6 6.1.2
 _ZN8QVariantC2ERKS_@Qt_6 6.1.2
 _ZN8QVariantC2Eb@Qt_6 6.1.2
 _ZN8QVariantC2Ed@Qt_6 6.1.2
 _ZN8QVariantC2Ef@Qt_6 6.1.2
 _ZN8QVariantC2Ei@Qt_6 6.1.2
 _ZN8QVariantC2Ej@Qt_6 6.1.2
 _ZN8QVariantC2Ex@Qt_6 6.1.2
 _ZN8QVariantC2Ey@Qt_6 6.1.2
 _ZN8QVariantD1Ev@Qt_6 6.1.2
 _ZN8QVariantD2Ev@Qt_6 6.1.2
 _ZN8QVariantaSERKS_@Qt_6 6.1.2
 (arch=!arm64)_ZN8qfloat1610roundtableE@Qt_6 6.1.2
 (arch=!arm64)_ZN8qfloat1610shifttableE@Qt_6 6.1.2
 (arch=!arm64)_ZN8qfloat1611offsettableE@Qt_6 6.1.2
 (arch=!arm64)_ZN8qfloat1613exponenttableE@Qt_6 6.1.2
 (arch=!arm64)_ZN8qfloat1613mantissatableE@Qt_6 6.1.2
 (arch=!arm64)_ZN8qfloat169basetableE@Qt_6 6.1.2
 (subst)_ZN9QBitArray4fillEb{qptrdiff}{qptrdiff}@Qt_6 6.1.2
 (subst)_ZN9QBitArray6resizeE{qptrdiff}@Qt_6 6.1.2
 (subst)_ZN9QBitArray8fromBitsEPKc{qptrdiff}@Qt_6 6.1.2
 (subst)_ZN9QBitArrayC1E{qptrdiff}b@Qt_6 6.1.2
 (subst)_ZN9QBitArrayC2E{qptrdiff}b@Qt_6 6.1.2
 _ZN9QBitArrayaNERKS_@Qt_6 6.1.2
 _ZN9QBitArrayeOERKS_@Qt_6 6.1.2
 _ZN9QBitArrayoRERKS_@Qt_6 6.1.2
 _ZN9QCalendar16staticMetaObjectE@Qt_6 6.1.2
 _ZN9QCalendar18availableCalendarsEv@Qt_6 6.1.2
 _ZN9QCalendarC1E11QStringView@Qt_6 6.1.2
 _ZN9QCalendarC1E13QLatin1String@Qt_6 6.1.2
 _ZN9QCalendarC1E14QAnyStringView@Qt_6 6.4.0
 _ZN9QCalendarC1ENS_6SystemE@Qt_6 6.1.2
 _ZN9QCalendarC1ENS_8SystemIdE@Qt_6 6.2.0
 _ZN9QCalendarC1Ev@Qt_6 6.1.2
 _ZN9QCalendarC2E11QStringView@Qt_6 6.1.2
 _ZN9QCalendarC2E13QLatin1String@Qt_6 6.1.2
 _ZN9QCalendarC2E14QAnyStringView@Qt_6 6.4.0
 _ZN9QCalendarC2ENS_6SystemE@Qt_6 6.1.2
 _ZN9QCalendarC2ENS_8SystemIdE@Qt_6 6.2.0
 _ZN9QCalendarC2Ev@Qt_6 6.1.2
 _ZN9QCollator14defaultCompareE11QStringViewS0_@Qt_6 6.3.0
 _ZN9QCollator14defaultSortKeyE11QStringView@Qt_6 6.3.0
 _ZN9QCollator14setNumericModeEb@Qt_6 6.1.2
 _ZN9QCollator18setCaseSensitivityEN2Qt15CaseSensitivityE@Qt_6 6.1.2
 _ZN9QCollator20setIgnorePunctuationEb@Qt_6 6.1.2
 _ZN9QCollator6detachEv@Qt_6 6.1.2
 _ZN9QCollator9setLocaleERK7QLocale@Qt_6 6.1.2
 _ZN9QCollatorC1ERK7QLocale@Qt_6 6.1.2
 _ZN9QCollatorC1ERKS_@Qt_6 6.1.2
 _ZN9QCollatorC1Ev@Qt_6 6.1.2
 _ZN9QCollatorC2ERK7QLocale@Qt_6 6.1.2
 _ZN9QCollatorC2ERKS_@Qt_6 6.1.2
 _ZN9QCollatorC2Ev@Qt_6 6.1.2
 _ZN9QCollatorD1Ev@Qt_6 6.1.2
 _ZN9QCollatorD2Ev@Qt_6 6.1.2
 _ZN9QCollatoraSERKS_@Qt_6 6.1.2
 _ZN9QDateTime10fromStringE11QStringViewN2Qt10DateFormatE@Qt_6 6.1.2
 _ZN9QDateTime10fromStringERK7QString11QStringView9QCalendar@Qt_6 6.1.2
 _ZN9QDateTime11setTimeSpecEN2Qt8TimeSpecE@Qt_6 6.1.2
 _ZN9QDateTime11setTimeZoneERK9QTimeZone@Qt_6 6.1.2
 _ZN9QDateTime15currentDateTimeEv@Qt_6 6.1.2
 _ZN9QDateTime16setOffsetFromUtcEi@Qt_6 6.1.2
 _ZN9QDateTime17setSecsSinceEpochEx@Qt_6 6.1.2
 _ZN9QDateTime18currentDateTimeUtcEv@Qt_6 6.1.2
 _ZN9QDateTime18fromSecsSinceEpochExN2Qt8TimeSpecEi@Qt_6 6.1.2
 _ZN9QDateTime18fromSecsSinceEpochExRK9QTimeZone@Qt_6 6.1.2
 _ZN9QDateTime18setMSecsSinceEpochEx@Qt_6 6.1.2
 _ZN9QDateTime19fromMSecsSinceEpochExN2Qt8TimeSpecEi@Qt_6 6.1.2
 _ZN9QDateTime19fromMSecsSinceEpochExRK9QTimeZone@Qt_6 6.1.2
 _ZN9QDateTime21currentSecsSinceEpochEv@Qt_6 6.1.2
 _ZN9QDateTime22currentMSecsSinceEpochEv@Qt_6 6.1.2
 _ZN9QDateTime7setDateE5QDate@Qt_6 6.1.2
 _ZN9QDateTime7setTimeE5QTime@Qt_6 6.1.2
 _ZN9QDateTimeC1E5QDate5QTimeN2Qt8TimeSpecEi@Qt_6 6.1.2
 _ZN9QDateTimeC1E5QDate5QTimeRK9QTimeZone@Qt_6 6.1.2
 _ZN9QDateTimeC1EOS_@Qt_6 6.1.2
 _ZN9QDateTimeC1ERKS_@Qt_6 6.1.2
 _ZN9QDateTimeC1Ev@Qt_6 6.1.2
 _ZN9QDateTimeC2E5QDate5QTimeN2Qt8TimeSpecEi@Qt_6 6.1.2
 _ZN9QDateTimeC2E5QDate5QTimeRK9QTimeZone@Qt_6 6.1.2
 _ZN9QDateTimeC2EOS_@Qt_6 6.1.2
 _ZN9QDateTimeC2ERKS_@Qt_6 6.1.2
 _ZN9QDateTimeC2Ev@Qt_6 6.1.2
 _ZN9QDateTimeD1Ev@Qt_6 6.1.2
 _ZN9QDateTimeD2Ev@Qt_6 6.1.2
 _ZN9QDateTimeaSERKS_@Qt_6 6.1.2
 _ZN9QFileInfo10setCachingEb@Qt_6 6.1.2
 _ZN9QFileInfo12makeAbsoluteEv@Qt_6 6.1.2
 _ZN9QFileInfo4statEv@Qt_6 6.1.2
 _ZN9QFileInfo6d_funcEv@Qt_6 6.1.2
 _ZN9QFileInfo6existsERK7QString@Qt_6 6.1.2
 _ZN9QFileInfo7refreshEv@Qt_6 6.1.2
 _ZN9QFileInfo7setFileERK11QFileDevice@Qt_6 6.1.2
 _ZN9QFileInfo7setFileERK4QDirRK7QString@Qt_6 6.1.2
 _ZN9QFileInfo7setFileERK7QString@Qt_6 6.1.2
 _ZN9QFileInfoC1EP16QFileInfoPrivate@Qt_6 6.1.2
 _ZN9QFileInfoC1ERK11QFileDevice@Qt_6 6.1.2
 _ZN9QFileInfoC1ERK4QDirRK7QString@Qt_6 6.1.2
 _ZN9QFileInfoC1ERK7QString@Qt_6 6.1.2
 _ZN9QFileInfoC1ERKS_@Qt_6 6.1.2
 _ZN9QFileInfoC1Ev@Qt_6 6.1.2
 _ZN9QFileInfoC2EP16QFileInfoPrivate@Qt_6 6.1.2
 _ZN9QFileInfoC2ERK11QFileDevice@Qt_6 6.1.2
 _ZN9QFileInfoC2ERK4QDirRK7QString@Qt_6 6.1.2
 _ZN9QFileInfoC2ERK7QString@Qt_6 6.1.2
 _ZN9QFileInfoC2ERKS_@Qt_6 6.1.2
 _ZN9QFileInfoC2Ev@Qt_6 6.1.2
 _ZN9QFileInfoD1Ev@Qt_6 6.1.2
 _ZN9QFileInfoD2Ev@Qt_6 6.1.2
 _ZN9QFileInfoaSERKS_@Qt_6 6.1.2
 _ZN9QHashSeed10globalSeedEv@Qt_6 6.2.0
 _ZN9QHashSeed21resetRandomGlobalSeedEv@Qt_6 6.2.0
 _ZN9QHashSeed26setDeterministicGlobalSeedEv@Qt_6 6.2.0
 _ZN9QIODevice11qt_metacallEN11QMetaObject4CallEiPPv@Qt_6 6.1.2
 _ZN9QIODevice11qt_metacastEPKc@Qt_6 6.1.2
 _ZN9QIODevice11setOpenModeE6QFlagsIN13QIODeviceBase12OpenModeFlagEE@Qt_6 6.1.2
 _ZN9QIODevice12aboutToCloseEv@Qt_6 6.1.2
 _ZN9QIODevice12bytesWrittenEx@Qt_6 6.1.2
 _ZN9QIODevice12readLineDataEPcx@Qt_6 6.1.2
 _ZN9QIODevice14setErrorStringERK7QString@Qt_6 6.1.2
 _ZN9QIODevice16channelReadyReadEi@Qt_6 6.1.2
 _ZN9QIODevice16startTransactionEv@Qt_6 6.1.2
 _ZN9QIODevice16staticMetaObjectE@Qt_6 6.1.2
 _ZN9QIODevice16waitForReadyReadEi@Qt_6 6.1.2
 _ZN9QIODevice17commitTransactionEv@Qt_6 6.1.2
 _ZN9QIODevice18setTextModeEnabledEb@Qt_6 6.1.2
 _ZN9QIODevice19channelBytesWrittenEix@Qt_6 6.1.2
 _ZN9QIODevice19readChannelFinishedEv@Qt_6 6.1.2
 _ZN9QIODevice19rollbackTransactionEv@Qt_6 6.1.2
 _ZN9QIODevice19waitForBytesWrittenEi@Qt_6 6.1.2
 _ZN9QIODevice21setCurrentReadChannelEi@Qt_6 6.1.2
 _ZN9QIODevice22setCurrentWriteChannelEi@Qt_6 6.1.2
 _ZN9QIODevice4openE6QFlagsIN13QIODeviceBase12OpenModeFlagEE@Qt_6 6.1.2
 _ZN9QIODevice4peekEPcx@Qt_6 6.1.2
 _ZN9QIODevice4peekEx@Qt_6 6.1.2
 _ZN9QIODevice4readEPcx@Qt_6 6.1.2
 _ZN9QIODevice4readEx@Qt_6 6.1.2
 _ZN9QIODevice4seekEx@Qt_6 6.1.2
 _ZN9QIODevice4skipEx@Qt_6 6.1.2
 _ZN9QIODevice5closeEv@Qt_6 6.1.2
 _ZN9QIODevice5resetEv@Qt_6 6.1.2
 _ZN9QIODevice5writeEPKc@Qt_6 6.1.2
 _ZN9QIODevice5writeEPKcx@Qt_6 6.1.2
 _ZN9QIODevice5writeERK10QByteArray@Qt_6 6.1.2
 _ZN9QIODevice7getCharEPc@Qt_6 6.1.2
 _ZN9QIODevice7putCharEc@Qt_6 6.1.2
 _ZN9QIODevice7readAllEv@Qt_6 6.1.2
 _ZN9QIODevice8readLineEPcx@Qt_6 6.1.2
 _ZN9QIODevice8readLineEx@Qt_6 6.1.2
 _ZN9QIODevice8skipDataEx@Qt_6 6.1.2
 _ZN9QIODevice9readyReadEv@Qt_6 6.1.2
 _ZN9QIODevice9ungetCharEc@Qt_6 6.1.2
 _ZN9QIODeviceC1EP7QObject@Qt_6 6.1.2
 _ZN9QIODeviceC1Ev@Qt_6 6.1.2
 _ZN9QIODeviceC2EP7QObject@Qt_6 6.1.2
 _ZN9QIODeviceC2Ev@Qt_6 6.1.2
 _ZN9QIODeviceD0Ev@Qt_6 6.1.2
 _ZN9QIODeviceD1Ev@Qt_6 6.1.2
 _ZN9QIODeviceD2Ev@Qt_6 6.1.2
 _ZN9QInternal16registerCallbackENS_8CallbackEPFbPPvE@Qt_6 6.1.2
 _ZN9QInternal17activateCallbacksENS_8CallbackEPPv@Qt_6 6.1.2
 _ZN9QInternal18unregisterCallbackENS_8CallbackEPFbPPvE@Qt_6 6.1.2
 _ZN9QLockFile16setStaleLockTimeEi@Qt_6 6.1.2
 _ZN9QLockFile19removeStaleLockFileEv@Qt_6 6.1.2
 _ZN9QLockFile4lockEv@Qt_6 6.1.2
 _ZN9QLockFile6unlockEv@Qt_6 6.1.2
 _ZN9QLockFile7tryLockEi@Qt_6 6.1.2
 _ZN9QLockFileC1ERK7QString@Qt_6 6.1.2
 _ZN9QLockFileC2ERK7QString@Qt_6 6.1.2
 _ZN9QLockFileD1Ev@Qt_6 6.1.2
 _ZN9QLockFileD2Ev@Qt_6 6.1.2
 _ZN9QMetaEnumC1EPK11QMetaObjecti@Qt_6 6.1.2
 _ZN9QMetaEnumC2EPK11QMetaObjecti@Qt_6 6.1.2
 _ZN9QMetaType10canConvertES_S_@Qt_6 6.1.2
 _ZN9QMetaType11debugStreamER6QDebugPKv@Qt_6 6.1.2
 _ZN9QMetaType12isRegisteredEi@Qt_6 6.1.2
 _ZN9QMetaType18unregisterMetaTypeES_@Qt_6 6.1.2
 _ZN9QMetaType25registerConverterFunctionERKSt8functionIFbPKvPvEES_S_@Qt_6 6.1.2
 _ZN9QMetaType25registerNormalizedTypedefERK10QByteArrayS_@Qt_6 6.1.2
 _ZN9QMetaType27registerMutableViewFunctionERKSt8functionIFbPvS1_EES_S_@Qt_6 6.1.2
 _ZN9QMetaType27unregisterConverterFunctionES_S_@Qt_6 6.1.2
 _ZN9QMetaType29unregisterMutableViewFunctionES_S_@Qt_6 6.1.2
 _ZN9QMetaType30hasRegisteredConverterFunctionES_S_@Qt_6 6.1.2
 _ZN9QMetaType32hasRegisteredMutableViewFunctionES_S_@Qt_6 6.1.2
 _ZN9QMetaType4viewES_PvS_S0_@Qt_6 6.1.2
 _ZN9QMetaType7canViewES_S_@Qt_6 6.1.2
 _ZN9QMetaType7convertES_PKvS_Pv@Qt_6 6.1.2
 _ZN9QMetaType8fromNameE14QByteArrayView@Qt_6 6.1.2
 _ZN9QMetaTypeC1Ei@Qt_6 6.1.2
 _ZN9QMetaTypeC2Ei@Qt_6 6.1.2
 _ZN9QMimeData11qt_metacallEN11QMetaObject4CallEiPPv@Qt_6 6.1.2
 _ZN9QMimeData11qt_metacastEPKc@Qt_6 6.1.2
 _ZN9QMimeData12removeFormatERK7QString@Qt_6 6.1.2
 _ZN9QMimeData12setColorDataERK8QVariant@Qt_6 6.1.2
 _ZN9QMimeData12setImageDataERK8QVariant@Qt_6 6.1.2
 _ZN9QMimeData16staticMetaObjectE@Qt_6 6.1.2
 _ZN9QMimeData5clearEv@Qt_6 6.1.2
 _ZN9QMimeData7setDataERK7QStringRK10QByteArray@Qt_6 6.1.2
 _ZN9QMimeData7setHtmlERK7QString@Qt_6 6.1.2
 _ZN9QMimeData7setTextERK7QString@Qt_6 6.1.2
 _ZN9QMimeData7setUrlsERK5QListI4QUrlE@Qt_6 6.1.2
 _ZN9QMimeDataC1Ev@Qt_6 6.1.2
 _ZN9QMimeDataC2Ev@Qt_6 6.1.2
 _ZN9QMimeDataD0Ev@Qt_6 6.1.2
 _ZN9QMimeDataD1Ev@Qt_6 6.1.2
 _ZN9QMimeDataD2Ev@Qt_6 6.1.2
 _ZN9QMimeType16staticMetaObjectE@Qt_6 6.1.2
 _ZN9QMimeTypeC1ERKS_@Qt_6 6.1.2
 _ZN9QMimeTypeC1Ev@Qt_6 6.1.2
 _ZN9QMimeTypeC2ERKS_@Qt_6 6.1.2
 _ZN9QMimeTypeC2Ev@Qt_6 6.1.2
 _ZN9QMimeTypeD1Ev@Qt_6 6.1.2
 _ZN9QMimeTypeD2Ev@Qt_6 6.1.2
 _ZN9QMimeTypeaSERKS_@Qt_6 6.1.2
 _ZN9QResource11setFileNameERK7QString@Qt_6 6.1.2
 _ZN9QResource16registerResourceEPKhRK7QString@Qt_6 6.1.2
 _ZN9QResource16registerResourceERK7QStringS2_@Qt_6 6.1.2
 _ZN9QResource18unregisterResourceEPKhRK7QString@Qt_6 6.1.2
 _ZN9QResource18unregisterResourceERK7QStringS2_@Qt_6 6.1.2
 _ZN9QResource9setLocaleERK7QLocale@Qt_6 6.1.2
 _ZN9QResourceC1ERK7QStringRK7QLocale@Qt_6 6.1.2
 _ZN9QResourceC2ERK7QStringRK7QLocale@Qt_6 6.1.2
 _ZN9QResourceD1Ev@Qt_6 6.1.2
 _ZN9QResourceD2Ev@Qt_6 6.1.2
 _ZN9QRunnable6createESt8functionIFvvEE@Qt_6 6.1.2
 _ZN9QRunnableD0Ev@Qt_6 6.1.2
 _ZN9QRunnableD1Ev@Qt_6 6.1.2
 _ZN9QRunnableD2Ev@Qt_6 6.1.2
 _ZN9QSaveFile11qt_metacallEN11QMetaObject4CallEiPPv@Qt_6 6.1.2
 _ZN9QSaveFile11qt_metacastEPKc@Qt_6 6.1.2
 _ZN9QSaveFile11setFileNameERK7QString@Qt_6 6.1.2
 _ZN9QSaveFile13cancelWritingEv@Qt_6 6.1.2
 _ZN9QSaveFile16staticMetaObjectE@Qt_6 6.1.2
 _ZN9QSaveFile22setDirectWriteFallbackEb@Qt_6 6.1.2
 _ZN9QSaveFile4openE6QFlagsIN13QIODeviceBase12OpenModeFlagEE@Qt_6 6.1.2
 _ZN9QSaveFile5closeEv@Qt_6 6.1.2
 _ZN9QSaveFile6commitEv@Qt_6 6.1.2
 _ZN9QSaveFile9writeDataEPKcx@Qt_6 6.1.2
 _ZN9QSaveFileC1EP7QObject@Qt_6 6.1.2
 _ZN9QSaveFileC1ERK7QString@Qt_6 6.1.2
 _ZN9QSaveFileC1ERK7QStringP7QObject@Qt_6 6.1.2
 _ZN9QSaveFileC2EP7QObject@Qt_6 6.1.2
 _ZN9QSaveFileC2ERK7QString@Qt_6 6.1.2
 _ZN9QSaveFileC2ERK7QStringP7QObject@Qt_6 6.1.2
 _ZN9QSaveFileD0Ev@Qt_6 6.1.2
 _ZN9QSaveFileD1Ev@Qt_6 6.1.2
 _ZN9QSaveFileD2Ev@Qt_6 6.1.2
 _ZN9QSettings10beginGroupE14QAnyStringView@Qt_6 6.4.0
 _ZN9QSettings10beginGroupERK7QString@Qt_6 6.1.2
 _ZN9QSettings11qt_metacallEN11QMetaObject4CallEiPPv@Qt_6 6.1.2
 _ZN9QSettings11qt_metacastEPKc@Qt_6 6.1.2
 _ZN9QSettings13defaultFormatEv@Qt_6 6.1.2
 _ZN9QSettings13setArrayIndexEi@Qt_6 6.1.2
 _ZN9QSettings14beginReadArrayE14QAnyStringView@Qt_6 6.4.0
 _ZN9QSettings14beginReadArrayERK7QString@Qt_6 6.1.2
 (optional=templinst)_ZN9QSettings14registerFormatERK7QStringPFbR9QIODeviceR4QMapIS0_8QVariantEEPFbS4_RKS7_EN2Qt15CaseSensitivityE@Qt_6 6.1.2
 _ZN9QSettings15beginWriteArrayE14QAnyStringViewi@Qt_6 6.4.0
 _ZN9QSettings15beginWriteArrayERK7QStringi@Qt_6 6.1.2
 _ZN9QSettings16setDefaultFormatENS_6FormatE@Qt_6 6.1.2
 _ZN9QSettings16staticMetaObjectE@Qt_6 6.1.2
 _ZN9QSettings19setFallbacksEnabledEb@Qt_6 6.1.2
 _ZN9QSettings21setAtomicSyncRequiredEb@Qt_6 6.1.2
 _ZN9QSettings4syncEv@Qt_6 6.1.2
 _ZN9QSettings5clearEv@Qt_6 6.1.2
 _ZN9QSettings5eventEP6QEvent@Qt_6 6.1.2
 _ZN9QSettings6removeE14QAnyStringView@Qt_6 6.4.0
 _ZN9QSettings6removeERK7QString@Qt_6 6.1.2
 _ZN9QSettings7setPathENS_6FormatENS_5ScopeERK7QString@Qt_6 6.1.2
 _ZN9QSettings8endArrayEv@Qt_6 6.1.2
 _ZN9QSettings8endGroupEv@Qt_6 6.1.2
 _ZN9QSettings8setValueE14QAnyStringViewRK8QVariant@Qt_6 6.4.0
 _ZN9QSettings8setValueERK7QStringRK8QVariant@Qt_6 6.1.2
 _ZN9QSettingsC1ENS_5ScopeEP7QObject@Qt_6 6.1.2
 _ZN9QSettingsC1ENS_5ScopeERK7QStringS3_P7QObject@Qt_6 6.1.2
 _ZN9QSettingsC1ENS_6FormatENS_5ScopeERK7QStringS4_P7QObject@Qt_6 6.1.2
 _ZN9QSettingsC1EP7QObject@Qt_6 6.1.2
 _ZN9QSettingsC1ERK7QStringNS_6FormatEP7QObject@Qt_6 6.1.2
 _ZN9QSettingsC1ERK7QStringS2_P7QObject@Qt_6 6.1.2
 _ZN9QSettingsC2ENS_5ScopeEP7QObject@Qt_6 6.1.2
 _ZN9QSettingsC2ENS_5ScopeERK7QStringS3_P7QObject@Qt_6 6.1.2
 _ZN9QSettingsC2ENS_6FormatENS_5ScopeERK7QStringS4_P7QObject@Qt_6 6.1.2
 _ZN9QSettingsC2EP7QObject@Qt_6 6.1.2
 _ZN9QSettingsC2ERK7QStringNS_6FormatEP7QObject@Qt_6 6.1.2
 _ZN9QSettingsC2ERK7QStringS2_P7QObject@Qt_6 6.1.2
 _ZN9QSettingsD0Ev@Qt_6 6.1.2
 _ZN9QSettingsD1Ev@Qt_6 6.1.2
 _ZN9QSettingsD2Ev@Qt_6 6.1.2
 _ZN9QTimeLine10timerEventEP11QTimerEvent@Qt_6 6.1.2
 _ZN9QTimeLine11qt_metacallEN11QMetaObject4CallEiPPv@Qt_6 6.1.2
 _ZN9QTimeLine11qt_metacastEPKc@Qt_6 6.1.2
 _ZN9QTimeLine11setDurationEi@Qt_6 6.1.2
 _ZN9QTimeLine11setEndFrameEi@Qt_6 6.1.2
 _ZN9QTimeLine12frameChangedEiNS_14QPrivateSignalE@Qt_6 6.1.2
 _ZN9QTimeLine12setDirectionENS_9DirectionE@Qt_6 6.1.2
 _ZN9QTimeLine12setLoopCountEi@Qt_6 6.1.2
 _ZN9QTimeLine12stateChangedENS_5StateENS_14QPrivateSignalE@Qt_6 6.1.2
 _ZN9QTimeLine12valueChangedEdNS_14QPrivateSignalE@Qt_6 6.1.2
 _ZN9QTimeLine13setFrameRangeEii@Qt_6 6.1.2
 _ZN9QTimeLine13setStartFrameEi@Qt_6 6.1.2
 _ZN9QTimeLine14setCurrentTimeEi@Qt_6 6.1.2
 _ZN9QTimeLine14setEasingCurveERK12QEasingCurve@Qt_6 6.1.2
 _ZN9QTimeLine15toggleDirectionEv@Qt_6 6.1.2
 _ZN9QTimeLine16bindableDurationEv@Qt_6 6.2.0
 _ZN9QTimeLine16staticMetaObjectE@Qt_6 6.1.2
 _ZN9QTimeLine17bindableDirectionEv@Qt_6 6.2.0
 _ZN9QTimeLine17bindableLoopCountEv@Qt_6 6.2.0
 _ZN9QTimeLine17setUpdateIntervalEi@Qt_6 6.1.2
 _ZN9QTimeLine19bindableCurrentTimeEv@Qt_6 6.2.0
 _ZN9QTimeLine19bindableEasingCurveEv@Qt_6 6.2.0
 _ZN9QTimeLine22bindableUpdateIntervalEv@Qt_6 6.2.0
 _ZN9QTimeLine4stopEv@Qt_6 6.1.2
 _ZN9QTimeLine5startEv@Qt_6 6.1.2
 _ZN9QTimeLine6resumeEv@Qt_6 6.1.2
 _ZN9QTimeLine8finishedENS_14QPrivateSignalE@Qt_6 6.1.2
 _ZN9QTimeLine9setPausedEb@Qt_6 6.1.2
 _ZN9QTimeLineC1EiP7QObject@Qt_6 6.1.2
 _ZN9QTimeLineC2EiP7QObject@Qt_6 6.1.2
 _ZN9QTimeLineD0Ev@Qt_6 6.1.2
 _ZN9QTimeLineD1Ev@Qt_6 6.1.2
 _ZN9QTimeLineD2Ev@Qt_6 6.1.2
 _ZN9QTimeZone14systemTimeZoneEv@Qt_6 6.1.2
 _ZN9QTimeZone16systemTimeZoneIdEv@Qt_6 6.1.2
 _ZN9QTimeZone17ianaIdToWindowsIdERK10QByteArray@Qt_6 6.1.2
 _ZN9QTimeZone18windowsIdToIanaIdsERK10QByteArray@Qt_6 6.1.2
 _ZN9QTimeZone18windowsIdToIanaIdsERK10QByteArrayN7QLocale7CountryE@Qt_6 6.1.2
 _ZN9QTimeZone20availableTimeZoneIdsEN7QLocale7CountryE@Qt_6 6.1.2
 _ZN9QTimeZone20availableTimeZoneIdsEi@Qt_6 6.1.2
 _ZN9QTimeZone20availableTimeZoneIdsEv@Qt_6 6.1.2
 _ZN9QTimeZone21isTimeZoneIdAvailableERK10QByteArray@Qt_6 6.1.2
 _ZN9QTimeZone24windowsIdToDefaultIanaIdERK10QByteArray@Qt_6 6.1.2
 _ZN9QTimeZone24windowsIdToDefaultIanaIdERK10QByteArrayN7QLocale7CountryE@Qt_6 6.1.2
 _ZN9QTimeZone3utcEv@Qt_6 6.1.2
 _ZN9QTimeZoneC1ERK10QByteArray@Qt_6 6.1.2
 _ZN9QTimeZoneC1ERK10QByteArrayiRK7QStringS5_N7QLocale7CountryES5_@Qt_6 6.1.2
 _ZN9QTimeZoneC1ERKS_@Qt_6 6.1.2
 _ZN9QTimeZoneC1Ei@Qt_6 6.1.2
 _ZN9QTimeZoneC1Ev@Qt_6 6.1.2
 _ZN9QTimeZoneC2ERK10QByteArray@Qt_6 6.1.2
 _ZN9QTimeZoneC2ERK10QByteArrayiRK7QStringS5_N7QLocale7CountryES5_@Qt_6 6.1.2
 _ZN9QTimeZoneC2ERKS_@Qt_6 6.1.2
 _ZN9QTimeZoneC2Ei@Qt_6 6.1.2
 _ZN9QTimeZoneC2Ev@Qt_6 6.1.2
 _ZN9QTimeZoneD1Ev@Qt_6 6.1.2
 _ZN9QTimeZoneD2Ev@Qt_6 6.1.2
 _ZN9QTimeZoneaSERKS_@Qt_6 6.1.2
 _ZN9QUrlQuery12addQueryItemERK7QStringS2_@Qt_6 6.1.2
 _ZN9QUrlQuery13setQueryItemsERK5QListISt4pairI7QStringS2_EE@Qt_6 6.1.2
 _ZN9QUrlQuery15removeQueryItemERK7QString@Qt_6 6.1.2
 _ZN9QUrlQuery18setQueryDelimitersE5QCharS0_@Qt_6 6.1.2
 _ZN9QUrlQuery19removeAllQueryItemsERK7QString@Qt_6 6.1.2
 _ZN9QUrlQuery5clearEv@Qt_6 6.1.2
 _ZN9QUrlQuery8setQueryERK7QString@Qt_6 6.1.2
 _ZN9QUrlQueryC1ERK4QUrl@Qt_6 6.1.2
 _ZN9QUrlQueryC1ERK7QString@Qt_6 6.1.2
 _ZN9QUrlQueryC1ERKS_@Qt_6 6.1.2
 _ZN9QUrlQueryC1Ev@Qt_6 6.1.2
 _ZN9QUrlQueryC2ERK4QUrl@Qt_6 6.1.2
 _ZN9QUrlQueryC2ERK7QString@Qt_6 6.1.2
 _ZN9QUrlQueryC2ERKS_@Qt_6 6.1.2
 _ZN9QUrlQueryC2Ev@Qt_6 6.1.2
 _ZN9QUrlQueryD1Ev@Qt_6 6.1.2
 _ZN9QUrlQueryD2Ev@Qt_6 6.1.2
 _ZN9QUrlQueryaSERKS_@Qt_6 6.1.2
 (subst)_ZN9QtPrivate10findStringE11QStringView{qptrdiff}13QLatin1StringN2Qt15CaseSensitivityE@Qt_6 6.1.2
 (subst)_ZN9QtPrivate10findStringE11QStringView{qptrdiff}S0_N2Qt15CaseSensitivityE@Qt_6 6.1.2
 (subst)_ZN9QtPrivate10findStringE13QLatin1String{qptrdiff}11QStringViewN2Qt15CaseSensitivityE@Qt_6 6.1.2
 (subst)_ZN9QtPrivate10findStringE13QLatin1String{qptrdiff}S0_N2Qt15CaseSensitivityE@Qt_6 6.1.2
 _ZN9QtPrivate10startsWithE11QStringView13QLatin1StringN2Qt15CaseSensitivityE@Qt_6 6.1.2
 _ZN9QtPrivate10startsWithE11QStringViewS0_N2Qt15CaseSensitivityE@Qt_6 6.1.2
 _ZN9QtPrivate10startsWithE13QLatin1String11QStringViewN2Qt15CaseSensitivityE@Qt_6 6.1.2
 _ZN9QtPrivate10startsWithE13QLatin1StringS0_N2Qt15CaseSensitivityE@Qt_6 6.1.2
 _ZN9QtPrivate10startsWithE14QByteArrayViewS0_@Qt_6 6.1.2
 _ZN9QtPrivate11isValidUtf8E14QByteArrayView@Qt_6 6.3.0
 (subst)_ZN9QtPrivate11lastIndexOfE11QStringViewRK18QRegularExpression{qptrdiff}P23QRegularExpressionMatch@Qt_6 6.1.2
 (subst)_ZN9QtPrivate11lastIndexOfE11QStringView{qptrdiff}13QLatin1StringN2Qt15CaseSensitivityE@Qt_6 6.1.2
 (subst)_ZN9QtPrivate11lastIndexOfE11QStringView{qptrdiff}S0_N2Qt15CaseSensitivityE@Qt_6 6.1.2
 (subst)_ZN9QtPrivate11lastIndexOfE13QLatin1String{qptrdiff}11QStringViewN2Qt15CaseSensitivityE@Qt_6 6.1.2
 (subst)_ZN9QtPrivate11lastIndexOfE13QLatin1String{qptrdiff}S0_N2Qt15CaseSensitivityE@Qt_6 6.1.2
 (subst)_ZN9QtPrivate11lastIndexOfE14QByteArrayView{qptrdiff}S0_@Qt_6 6.1.2
 (subst)_ZN9QtPrivate12argToQStringE11QStringView{size_t}PPKNS_7ArgBaseE@Qt_6 6.1.2
 (subst)_ZN9QtPrivate12argToQStringE13QLatin1String{size_t}PPKNS_7ArgBaseE@Qt_6 6.1.2
 _ZN9QtPrivate12equalStringsE11QStringView13QLatin1String@Qt_6 6.1.2
 _ZN9QtPrivate12equalStringsE11QStringView20QBasicUtf8StringViewILb0EE@Qt_6 6.1.2
 _ZN9QtPrivate12equalStringsE11QStringViewS0_@Qt_6 6.1.2
 _ZN9QtPrivate12equalStringsE13QLatin1String11QStringView@Qt_6 6.1.2
 _ZN9QtPrivate12equalStringsE13QLatin1String20QBasicUtf8StringViewILb0EE@Qt_6 6.1.2
 _ZN9QtPrivate12equalStringsE13QLatin1StringS0_@Qt_6 6.1.2
 _ZN9QtPrivate12equalStringsE20QBasicUtf8StringViewILb0EE11QStringView@Qt_6 6.1.2
 _ZN9QtPrivate12equalStringsE20QBasicUtf8StringViewILb0EE13QLatin1String@Qt_6 6.1.2
 _ZN9QtPrivate12equalStringsE20QBasicUtf8StringViewILb0EES1_@Qt_6 6.1.2
 _ZN9QtPrivate12isValidUtf16E11QStringView@Qt_6 6.1.2
 _ZN9QtPrivate13compareMemoryE14QByteArrayViewS0_@Qt_6 6.1.2
 _ZN9QtPrivate13convertToUcs4E11QStringView@Qt_6 6.1.2
 _ZN9QtPrivate13convertToUtf8E11QStringView@Qt_6 6.1.2
 (subst)_ZN9QtPrivate13findByteArrayE14QByteArrayView{qptrdiff}S0_@Qt_6 6.1.2
 _ZN9QtPrivate13isBuiltinTypeERK10QByteArray@Qt_6 6.1.2
 _ZN9QtPrivate13isRightToLeftE11QStringView@Qt_6 6.1.2
 _ZN9QtPrivate14ExceptionStore12setExceptionENSt15__exception_ptr13exception_ptrE@Qt_6 6.1.2
 _ZN9QtPrivate14ExceptionStore12setExceptionERK10QException@Qt_6 6.1.2
 _ZN9QtPrivate14ExceptionStore22throwPossibleExceptionEv@Qt_6 6.1.2
 _ZN9QtPrivate14compareStringsE11QStringView13QLatin1StringN2Qt15CaseSensitivityE@Qt_6 6.1.2
 _ZN9QtPrivate14compareStringsE11QStringView20QBasicUtf8StringViewILb0EEN2Qt15CaseSensitivityE@Qt_6 6.1.2
 _ZN9QtPrivate14compareStringsE11QStringViewS0_N2Qt15CaseSensitivityE@Qt_6 6.1.2
 _ZN9QtPrivate14compareStringsE13QLatin1String11QStringViewN2Qt15CaseSensitivityE@Qt_6 6.1.2
 _ZN9QtPrivate14compareStringsE13QLatin1String20QBasicUtf8StringViewILb0EEN2Qt15CaseSensitivityE@Qt_6 6.1.2
 _ZN9QtPrivate14compareStringsE13QLatin1StringS0_N2Qt15CaseSensitivityE@Qt_6 6.1.2
 _ZN9QtPrivate14compareStringsE20QBasicUtf8StringViewILb0EE11QStringViewN2Qt15CaseSensitivityE@Qt_6 6.1.2
 _ZN9QtPrivate14compareStringsE20QBasicUtf8StringViewILb0EE13QLatin1StringN2Qt15CaseSensitivityE@Qt_6 6.1.2
 _ZN9QtPrivate14compareStringsE20QBasicUtf8StringViewILb0EES1_N2Qt15CaseSensitivityE@Qt_6 6.1.2
 _ZN9QtPrivate15ResultStoreBase10addResultsEiPKvii@Qt_6 6.1.2
 _ZN9QtPrivate15ResultStoreBase13setFilterModeEb@Qt_6 6.1.2
 _ZN9QtPrivate15ResultStoreBase15syncResultCountEv@Qt_6 6.1.2
 _ZN9QtPrivate15ResultStoreBase16insertResultItemEiRNS_10ResultItemE@Qt_6 6.1.2
 _ZN9QtPrivate15ResultStoreBase17updateInsertIndexEii@Qt_6 6.1.2
 _ZN9QtPrivate15ResultStoreBase18syncPendingResultsEv@Qt_6 6.1.2
 _ZN9QtPrivate15ResultStoreBase23insertResultItemIfValidEiRNS_10ResultItemE@Qt_6 6.1.2
 _ZN9QtPrivate15ResultStoreBase9addResultEiPKv@Qt_6 6.1.2
 _ZN9QtPrivate15ResultStoreBaseC1Ev@Qt_6 6.1.2
 _ZN9QtPrivate15ResultStoreBaseC2Ev@Qt_6 6.1.2
 _ZN9QtPrivate15ResultStoreBaseD0Ev@Qt_6 6.1.2
 _ZN9QtPrivate15ResultStoreBaseD1Ev@Qt_6 6.1.2
 _ZN9QtPrivate15ResultStoreBaseD2Ev@Qt_6 6.1.2
 _ZN9QtPrivate15convertToLatin1E11QStringView@Qt_6 6.1.2
 _ZN9QtPrivate15toSignedIntegerE14QByteArrayViewi@Qt_6 6.3.0
 _ZN9QtPrivate16BindableWarnings21printMetaTypeMismatchE9QMetaTypeS1_@Qt_6 6.2.0
 _ZN9QtPrivate16BindableWarnings30printUnsuitableBindableWarningE14QAnyStringViewNS0_6ReasonE@Qt_6 6.2.0
 (optional=templinst)_ZN9QtPrivate16QMetaTypeForTypeI10QByteArrayE10getCopyCtrEv@Qt_6 6.4.0
 (optional=templinst)_ZN9QtPrivate16QMetaTypeForTypeI10QByteArrayE10getMoveCtrEv@Qt_6 6.4.0
 (optional=templinst)_ZN9QtPrivate16QMetaTypeForTypeI10QByteArrayE13getDefaultCtrEv@Qt_6 6.4.0
 (optional=templinst)_ZN9QtPrivate16QMetaTypeForTypeI10QByteArrayE17getLegacyRegisterEv@Qt_6 6.4.0
 _ZN9QtPrivate16QMetaTypeForTypeI10QByteArrayE4nameE@Qt_6 6.4.0
 (optional=templinst)_ZN9QtPrivate16QMetaTypeForTypeI10QByteArrayE7getDtorEv@Qt_6 6.4.0
 (optional=templinst)_ZN9QtPrivate16QMetaTypeForTypeI10QByteArrayE7getNameEv@Qt_6 6.4.0
 (optional=templinst)_ZN9QtPrivate16QMetaTypeForTypeI10QCborArrayE10getCopyCtrEv@Qt_6 6.4.0
 (optional=templinst)_ZN9QtPrivate16QMetaTypeForTypeI10QCborArrayE10getMoveCtrEv@Qt_6 6.4.0
 (optional=templinst)_ZN9QtPrivate16QMetaTypeForTypeI10QCborArrayE13getDefaultCtrEv@Qt_6 6.4.0
 (optional=templinst)_ZN9QtPrivate16QMetaTypeForTypeI10QCborArrayE17getLegacyRegisterEv@Qt_6 6.4.0
 _ZN9QtPrivate16QMetaTypeForTypeI10QCborArrayE4nameE@Qt_6 6.4.0
 (optional=templinst)_ZN9QtPrivate16QMetaTypeForTypeI10QCborArrayE7getDtorEv@Qt_6 6.4.0
 (optional=templinst)_ZN9QtPrivate16QMetaTypeForTypeI10QCborArrayE7getNameEv@Qt_6 6.4.0
 (optional=templinst)_ZN9QtPrivate16QMetaTypeForTypeI10QCborValueE10getCopyCtrEv@Qt_6 6.4.0
 (optional=templinst)_ZN9QtPrivate16QMetaTypeForTypeI10QCborValueE10getMoveCtrEv@Qt_6 6.4.0
 (optional=templinst)_ZN9QtPrivate16QMetaTypeForTypeI10QCborValueE13getDefaultCtrEv@Qt_6 6.4.0
 (optional=templinst)_ZN9QtPrivate16QMetaTypeForTypeI10QCborValueE17getLegacyRegisterEv@Qt_6 6.4.0
 _ZN9QtPrivate16QMetaTypeForTypeI10QCborValueE4nameE@Qt_6 6.4.0
 (optional=templinst)_ZN9QtPrivate16QMetaTypeForTypeI10QCborValueE7getDtorEv@Qt_6 6.4.0
 (optional=templinst)_ZN9QtPrivate16QMetaTypeForTypeI10QCborValueE7getNameEv@Qt_6 6.4.0
 (optional=templinst)_ZN9QtPrivate16QMetaTypeForTypeI10QJsonArrayE10getCopyCtrEv@Qt_6 6.4.0
 (optional=templinst)_ZN9QtPrivate16QMetaTypeForTypeI10QJsonArrayE10getMoveCtrEv@Qt_6 6.4.0
 (optional=templinst)_ZN9QtPrivate16QMetaTypeForTypeI10QJsonArrayE13getDefaultCtrEv@Qt_6 6.4.0
 (optional=templinst)_ZN9QtPrivate16QMetaTypeForTypeI10QJsonArrayE17getLegacyRegisterEv@Qt_6 6.4.0
 _ZN9QtPrivate16QMetaTypeForTypeI10QJsonArrayE4nameE@Qt_6 6.4.0
 (optional=templinst)_ZN9QtPrivate16QMetaTypeForTypeI10QJsonArrayE7getDtorEv@Qt_6 6.4.0
 (optional=templinst)_ZN9QtPrivate16QMetaTypeForTypeI10QJsonArrayE7getNameEv@Qt_6 6.4.0
 (optional=templinst)_ZN9QtPrivate16QMetaTypeForTypeI10QJsonValueE10getCopyCtrEv@Qt_6 6.4.0
 (optional=templinst)_ZN9QtPrivate16QMetaTypeForTypeI10QJsonValueE10getMoveCtrEv@Qt_6 6.4.0
 (optional=templinst)_ZN9QtPrivate16QMetaTypeForTypeI10QJsonValueE13getDefaultCtrEv@Qt_6 6.4.0
 (optional=templinst)_ZN9QtPrivate16QMetaTypeForTypeI10QJsonValueE17getLegacyRegisterEv@Qt_6 6.4.0
 _ZN9QtPrivate16QMetaTypeForTypeI10QJsonValueE4nameE@Qt_6 6.4.0
 (optional=templinst)_ZN9QtPrivate16QMetaTypeForTypeI10QJsonValueE7getDtorEv@Qt_6 6.4.0
 (optional=templinst)_ZN9QtPrivate16QMetaTypeForTypeI10QJsonValueE7getNameEv@Qt_6 6.4.0
 (optional=templinst)_ZN9QtPrivate16QMetaTypeForTypeI11QJsonObjectE10getCopyCtrEv@Qt_6 6.4.0
 (optional=templinst)_ZN9QtPrivate16QMetaTypeForTypeI11QJsonObjectE10getMoveCtrEv@Qt_6 6.4.0
 (optional=templinst)_ZN9QtPrivate16QMetaTypeForTypeI11QJsonObjectE13getDefaultCtrEv@Qt_6 6.4.0
 (optional=templinst)_ZN9QtPrivate16QMetaTypeForTypeI11QJsonObjectE17getLegacyRegisterEv@Qt_6 6.4.0
 _ZN9QtPrivate16QMetaTypeForTypeI11QJsonObjectE4nameE@Qt_6 6.4.0
 (optional=templinst)_ZN9QtPrivate16QMetaTypeForTypeI11QJsonObjectE7getDtorEv@Qt_6 6.4.0
 (optional=templinst)_ZN9QtPrivate16QMetaTypeForTypeI11QJsonObjectE7getNameEv@Qt_6 6.4.0
 (optional=templinst)_ZN9QtPrivate16QMetaTypeForTypeI11QModelIndexE10getCopyCtrEv@Qt_6 6.4.0
 (optional=templinst)_ZN9QtPrivate16QMetaTypeForTypeI11QModelIndexE10getMoveCtrEv@Qt_6 6.4.0
 (optional=templinst)_ZN9QtPrivate16QMetaTypeForTypeI11QModelIndexE13getDefaultCtrEv@Qt_6 6.4.0
 (optional=templinst)_ZN9QtPrivate16QMetaTypeForTypeI11QModelIndexE17getLegacyRegisterEv@Qt_6 6.4.0
 _ZN9QtPrivate16QMetaTypeForTypeI11QModelIndexE4nameE@Qt_6 6.4.0
 (optional=templinst)_ZN9QtPrivate16QMetaTypeForTypeI11QModelIndexE7getDtorEv@Qt_6 6.4.0
 (optional=templinst)_ZN9QtPrivate16QMetaTypeForTypeI11QModelIndexE7getNameEv@Qt_6 6.4.0
 (optional=templinst)_ZN9QtPrivate16QMetaTypeForTypeI12QEasingCurveE10getCopyCtrEv@Qt_6 6.4.0
 (optional=templinst)_ZN9QtPrivate16QMetaTypeForTypeI12QEasingCurveE10getMoveCtrEv@Qt_6 6.4.0
 (optional=templinst)_ZN9QtPrivate16QMetaTypeForTypeI12QEasingCurveE13getDefaultCtrEv@Qt_6 6.4.0
 (optional=templinst)_ZN9QtPrivate16QMetaTypeForTypeI12QEasingCurveE17getLegacyRegisterEv@Qt_6 6.4.0
 _ZN9QtPrivate16QMetaTypeForTypeI12QEasingCurveE4nameE@Qt_6 6.4.0
 (optional=templinst)_ZN9QtPrivate16QMetaTypeForTypeI12QEasingCurveE7getDtorEv@Qt_6 6.4.0
 (optional=templinst)_ZN9QtPrivate16QMetaTypeForTypeI12QEasingCurveE7getNameEv@Qt_6 6.4.0
 (optional=templinst)_ZN9QtPrivate16QMetaTypeForTypeI13QJsonDocumentE10getCopyCtrEv@Qt_6 6.4.0
 (optional=templinst)_ZN9QtPrivate16QMetaTypeForTypeI13QJsonDocumentE10getMoveCtrEv@Qt_6 6.4.0
 (optional=templinst)_ZN9QtPrivate16QMetaTypeForTypeI13QJsonDocumentE13getDefaultCtrEv@Qt_6 6.4.0
 (optional=templinst)_ZN9QtPrivate16QMetaTypeForTypeI13QJsonDocumentE17getLegacyRegisterEv@Qt_6 6.4.0
 _ZN9QtPrivate16QMetaTypeForTypeI13QJsonDocumentE4nameE@Qt_6 6.4.0
 (optional=templinst)_ZN9QtPrivate16QMetaTypeForTypeI13QJsonDocumentE7getDtorEv@Qt_6 6.4.0
 (optional=templinst)_ZN9QtPrivate16QMetaTypeForTypeI13QJsonDocumentE7getNameEv@Qt_6 6.4.0
 (optional=templinst)_ZN9QtPrivate16QMetaTypeForTypeI15QCborSimpleTypeE10getCopyCtrEv@Qt_6 6.4.0
 (optional=templinst)_ZN9QtPrivate16QMetaTypeForTypeI15QCborSimpleTypeE10getMoveCtrEv@Qt_6 6.4.0
 (optional=templinst)_ZN9QtPrivate16QMetaTypeForTypeI15QCborSimpleTypeE13getDefaultCtrEv@Qt_6 6.4.0
 (optional=templinst)_ZN9QtPrivate16QMetaTypeForTypeI15QCborSimpleTypeE17getLegacyRegisterEv@Qt_6 6.4.0
 _ZN9QtPrivate16QMetaTypeForTypeI15QCborSimpleTypeE4nameE@Qt_6 6.4.0
 (optional=templinst)_ZN9QtPrivate16QMetaTypeForTypeI15QCborSimpleTypeE7getDtorEv@Qt_6 6.4.0
 (optional=templinst)_ZN9QtPrivate16QMetaTypeForTypeI15QCborSimpleTypeE7getNameEv@Qt_6 6.4.0
 (optional=templinst)_ZN9QtPrivate16QMetaTypeForTypeI18QRegularExpressionE10getCopyCtrEv@Qt_6 6.4.0
 (optional=templinst)_ZN9QtPrivate16QMetaTypeForTypeI18QRegularExpressionE10getMoveCtrEv@Qt_6 6.4.0
 (optional=templinst)_ZN9QtPrivate16QMetaTypeForTypeI18QRegularExpressionE13getDefaultCtrEv@Qt_6 6.4.0
 (optional=templinst)_ZN9QtPrivate16QMetaTypeForTypeI18QRegularExpressionE17getLegacyRegisterEv@Qt_6 6.4.0
 _ZN9QtPrivate16QMetaTypeForTypeI18QRegularExpressionE4nameE@Qt_6 6.4.0
 (optional=templinst)_ZN9QtPrivate16QMetaTypeForTypeI18QRegularExpressionE7getDtorEv@Qt_6 6.4.0
 (optional=templinst)_ZN9QtPrivate16QMetaTypeForTypeI18QRegularExpressionE7getNameEv@Qt_6 6.4.0
 (optional=templinst)_ZN9QtPrivate16QMetaTypeForTypeI21QPersistentModelIndexE10getCopyCtrEv@Qt_6 6.4.0
 (optional=templinst)_ZN9QtPrivate16QMetaTypeForTypeI21QPersistentModelIndexE10getMoveCtrEv@Qt_6 6.4.0
 (optional=templinst)_ZN9QtPrivate16QMetaTypeForTypeI21QPersistentModelIndexE13getDefaultCtrEv@Qt_6 6.4.0
 (optional=templinst)_ZN9QtPrivate16QMetaTypeForTypeI21QPersistentModelIndexE17getLegacyRegisterEv@Qt_6 6.4.0
 _ZN9QtPrivate16QMetaTypeForTypeI21QPersistentModelIndexE4nameE@Qt_6 6.4.0
 (optional=templinst)_ZN9QtPrivate16QMetaTypeForTypeI21QPersistentModelIndexE7getDtorEv@Qt_6 6.4.0
 (optional=templinst)_ZN9QtPrivate16QMetaTypeForTypeI21QPersistentModelIndexE7getNameEv@Qt_6 6.4.0
 (optional=templinst)_ZN9QtPrivate16QMetaTypeForTypeI4QMapI7QString8QVariantEE10getCopyCtrEv@Qt_6 6.4.0
 (optional=templinst)_ZN9QtPrivate16QMetaTypeForTypeI4QMapI7QString8QVariantEE10getMoveCtrEv@Qt_6 6.4.0
 (optional=templinst)_ZN9QtPrivate16QMetaTypeForTypeI4QMapI7QString8QVariantEE13getDefaultCtrEv@Qt_6 6.4.0
 (optional=templinst)_ZN9QtPrivate16QMetaTypeForTypeI4QMapI7QString8QVariantEE17getLegacyRegisterEv@Qt_6 6.4.0
 _ZN9QtPrivate16QMetaTypeForTypeI4QMapI7QString8QVariantEE4nameE@Qt_6 6.4.0
 (optional=templinst)_ZN9QtPrivate16QMetaTypeForTypeI4QMapI7QString8QVariantEE7getDtorEv@Qt_6 6.4.0
 (optional=templinst)_ZN9QtPrivate16QMetaTypeForTypeI4QMapI7QString8QVariantEE7getNameEv@Qt_6 6.4.0
 (optional=templinst)_ZN9QtPrivate16QMetaTypeForTypeI4QUrlE10getCopyCtrEv@Qt_6 6.4.0
 (optional=templinst)_ZN9QtPrivate16QMetaTypeForTypeI4QUrlE10getMoveCtrEv@Qt_6 6.4.0
 (optional=templinst)_ZN9QtPrivate16QMetaTypeForTypeI4QUrlE13getDefaultCtrEv@Qt_6 6.4.0
 (optional=templinst)_ZN9QtPrivate16QMetaTypeForTypeI4QUrlE17getLegacyRegisterEv@Qt_6 6.4.0
 _ZN9QtPrivate16QMetaTypeForTypeI4QUrlE4nameE@Qt_6 6.4.0
 (optional=templinst)_ZN9QtPrivate16QMetaTypeForTypeI4QUrlE7getDtorEv@Qt_6 6.4.0
 (optional=templinst)_ZN9QtPrivate16QMetaTypeForTypeI4QUrlE7getNameEv@Qt_6 6.4.0
 (optional=templinst)_ZN9QtPrivate16QMetaTypeForTypeI5QCharE10getCopyCtrEv@Qt_6 6.4.0
 (optional=templinst)_ZN9QtPrivate16QMetaTypeForTypeI5QCharE10getMoveCtrEv@Qt_6 6.4.0
 (optional=templinst)_ZN9QtPrivate16QMetaTypeForTypeI5QCharE13getDefaultCtrEv@Qt_6 6.4.0
 (optional=templinst)_ZN9QtPrivate16QMetaTypeForTypeI5QCharE17getLegacyRegisterEv@Qt_6 6.4.0
 _ZN9QtPrivate16QMetaTypeForTypeI5QCharE4nameE@Qt_6 6.4.0
 (optional=templinst)_ZN9QtPrivate16QMetaTypeForTypeI5QCharE7getDtorEv@Qt_6 6.4.0
 (optional=templinst)_ZN9QtPrivate16QMetaTypeForTypeI5QCharE7getNameEv@Qt_6 6.4.0
 (optional=templinst)_ZN9QtPrivate16QMetaTypeForTypeI5QDateE10getCopyCtrEv@Qt_6 6.4.0
 (optional=templinst)_ZN9QtPrivate16QMetaTypeForTypeI5QDateE10getMoveCtrEv@Qt_6 6.4.0
 (optional=templinst)_ZN9QtPrivate16QMetaTypeForTypeI5QDateE13getDefaultCtrEv@Qt_6 6.4.0
 (optional=templinst)_ZN9QtPrivate16QMetaTypeForTypeI5QDateE17getLegacyRegisterEv@Qt_6 6.4.0
 _ZN9QtPrivate16QMetaTypeForTypeI5QDateE4nameE@Qt_6 6.4.0
 (optional=templinst)_ZN9QtPrivate16QMetaTypeForTypeI5QDateE7getDtorEv@Qt_6 6.4.0
 (optional=templinst)_ZN9QtPrivate16QMetaTypeForTypeI5QDateE7getNameEv@Qt_6 6.4.0
 (optional=templinst)_ZN9QtPrivate16QMetaTypeForTypeI5QHashI7QString8QVariantEE10getCopyCtrEv@Qt_6 6.4.0
 (optional=templinst)_ZN9QtPrivate16QMetaTypeForTypeI5QHashI7QString8QVariantEE10getMoveCtrEv@Qt_6 6.4.0
 (optional=templinst)_ZN9QtPrivate16QMetaTypeForTypeI5QHashI7QString8QVariantEE13getDefaultCtrEv@Qt_6 6.4.0
 (optional=templinst)_ZN9QtPrivate16QMetaTypeForTypeI5QHashI7QString8QVariantEE17getLegacyRegisterEv@Qt_6 6.4.0
 _ZN9QtPrivate16QMetaTypeForTypeI5QHashI7QString8QVariantEE4nameE@Qt_6 6.4.0
 (optional=templinst)_ZN9QtPrivate16QMetaTypeForTypeI5QHashI7QString8QVariantEE7getDtorEv@Qt_6 6.4.0
 (optional=templinst)_ZN9QtPrivate16QMetaTypeForTypeI5QHashI7QString8QVariantEE7getNameEv@Qt_6 6.4.0
 (optional=templinst)_ZN9QtPrivate16QMetaTypeForTypeI5QLineE10getCopyCtrEv@Qt_6 6.4.0
 (optional=templinst)_ZN9QtPrivate16QMetaTypeForTypeI5QLineE10getMoveCtrEv@Qt_6 6.4.0
 (optional=templinst)_ZN9QtPrivate16QMetaTypeForTypeI5QLineE13getDefaultCtrEv@Qt_6 6.4.0
 (optional=templinst)_ZN9QtPrivate16QMetaTypeForTypeI5QLineE17getLegacyRegisterEv@Qt_6 6.4.0
 _ZN9QtPrivate16QMetaTypeForTypeI5QLineE4nameE@Qt_6 6.4.0
 (optional=templinst)_ZN9QtPrivate16QMetaTypeForTypeI5QLineE7getDtorEv@Qt_6 6.4.0
 (optional=templinst)_ZN9QtPrivate16QMetaTypeForTypeI5QLineE7getNameEv@Qt_6 6.4.0
 (optional=templinst)_ZN9QtPrivate16QMetaTypeForTypeI5QListI10QByteArrayEE10getCopyCtrEv@Qt_6 6.4.0
 (optional=templinst)_ZN9QtPrivate16QMetaTypeForTypeI5QListI10QByteArrayEE10getMoveCtrEv@Qt_6 6.4.0
 (optional=templinst)_ZN9QtPrivate16QMetaTypeForTypeI5QListI10QByteArrayEE13getDefaultCtrEv@Qt_6 6.4.0
 (optional=templinst)_ZN9QtPrivate16QMetaTypeForTypeI5QListI10QByteArrayEE17getLegacyRegisterEv@Qt_6 6.4.0
 _ZN9QtPrivate16QMetaTypeForTypeI5QListI10QByteArrayEE4nameE@Qt_6 6.4.0
 (optional=templinst)_ZN9QtPrivate16QMetaTypeForTypeI5QListI10QByteArrayEE7getDtorEv@Qt_6 6.4.0
 (optional=templinst)_ZN9QtPrivate16QMetaTypeForTypeI5QListI10QByteArrayEE7getNameEv@Qt_6 6.4.0
 (optional=templinst)_ZN9QtPrivate16QMetaTypeForTypeI5QListI7QStringEE10getCopyCtrEv@Qt_6 6.4.0
 (optional=templinst)_ZN9QtPrivate16QMetaTypeForTypeI5QListI7QStringEE10getMoveCtrEv@Qt_6 6.4.0
 (optional=templinst)_ZN9QtPrivate16QMetaTypeForTypeI5QListI7QStringEE13getDefaultCtrEv@Qt_6 6.4.0
 (optional=templinst)_ZN9QtPrivate16QMetaTypeForTypeI5QListI7QStringEE17getLegacyRegisterEv@Qt_6 6.4.0
 _ZN9QtPrivate16QMetaTypeForTypeI5QListI7QStringEE4nameE@Qt_6 6.4.0
 (optional=templinst)_ZN9QtPrivate16QMetaTypeForTypeI5QListI7QStringEE7getDtorEv@Qt_6 6.4.0
 (optional=templinst)_ZN9QtPrivate16QMetaTypeForTypeI5QListI7QStringEE7getNameEv@Qt_6 6.4.0
 (optional=templinst)_ZN9QtPrivate16QMetaTypeForTypeI5QListI8QVariantEE10getCopyCtrEv@Qt_6 6.4.0
 (optional=templinst)_ZN9QtPrivate16QMetaTypeForTypeI5QListI8QVariantEE10getMoveCtrEv@Qt_6 6.4.0
 (optional=templinst)_ZN9QtPrivate16QMetaTypeForTypeI5QListI8QVariantEE13getDefaultCtrEv@Qt_6 6.4.0
 (optional=templinst)_ZN9QtPrivate16QMetaTypeForTypeI5QListI8QVariantEE17getLegacyRegisterEv@Qt_6 6.4.0
 _ZN9QtPrivate16QMetaTypeForTypeI5QListI8QVariantEE4nameE@Qt_6 6.4.0
 (optional=templinst)_ZN9QtPrivate16QMetaTypeForTypeI5QListI8QVariantEE7getDtorEv@Qt_6 6.4.0
 (optional=templinst)_ZN9QtPrivate16QMetaTypeForTypeI5QListI8QVariantEE7getNameEv@Qt_6 6.4.0
 (optional=templinst)_ZN9QtPrivate16QMetaTypeForTypeI5QRectE10getCopyCtrEv@Qt_6 6.4.0
 (optional=templinst)_ZN9QtPrivate16QMetaTypeForTypeI5QRectE10getMoveCtrEv@Qt_6 6.4.0
 (optional=templinst)_ZN9QtPrivate16QMetaTypeForTypeI5QRectE13getDefaultCtrEv@Qt_6 6.4.0
 (optional=templinst)_ZN9QtPrivate16QMetaTypeForTypeI5QRectE17getLegacyRegisterEv@Qt_6 6.4.0
 _ZN9QtPrivate16QMetaTypeForTypeI5QRectE4nameE@Qt_6 6.4.0
 (optional=templinst)_ZN9QtPrivate16QMetaTypeForTypeI5QRectE7getDtorEv@Qt_6 6.4.0
 (optional=templinst)_ZN9QtPrivate16QMetaTypeForTypeI5QRectE7getNameEv@Qt_6 6.4.0
 (optional=templinst)_ZN9QtPrivate16QMetaTypeForTypeI5QSizeE10getCopyCtrEv@Qt_6 6.4.0
 (optional=templinst)_ZN9QtPrivate16QMetaTypeForTypeI5QSizeE10getMoveCtrEv@Qt_6 6.4.0
 (optional=templinst)_ZN9QtPrivate16QMetaTypeForTypeI5QSizeE13getDefaultCtrEv@Qt_6 6.4.0
 (optional=templinst)_ZN9QtPrivate16QMetaTypeForTypeI5QSizeE17getLegacyRegisterEv@Qt_6 6.4.0
 _ZN9QtPrivate16QMetaTypeForTypeI5QSizeE4nameE@Qt_6 6.4.0
 (optional=templinst)_ZN9QtPrivate16QMetaTypeForTypeI5QSizeE7getDtorEv@Qt_6 6.4.0
 (optional=templinst)_ZN9QtPrivate16QMetaTypeForTypeI5QSizeE7getNameEv@Qt_6 6.4.0
 (optional=templinst)_ZN9QtPrivate16QMetaTypeForTypeI5QTimeE10getCopyCtrEv@Qt_6 6.4.0
 (optional=templinst)_ZN9QtPrivate16QMetaTypeForTypeI5QTimeE10getMoveCtrEv@Qt_6 6.4.0
 (optional=templinst)_ZN9QtPrivate16QMetaTypeForTypeI5QTimeE13getDefaultCtrEv@Qt_6 6.4.0
 (optional=templinst)_ZN9QtPrivate16QMetaTypeForTypeI5QTimeE17getLegacyRegisterEv@Qt_6 6.4.0
 _ZN9QtPrivate16QMetaTypeForTypeI5QTimeE4nameE@Qt_6 6.4.0
 (optional=templinst)_ZN9QtPrivate16QMetaTypeForTypeI5QTimeE7getDtorEv@Qt_6 6.4.0
 (optional=templinst)_ZN9QtPrivate16QMetaTypeForTypeI5QTimeE7getNameEv@Qt_6 6.4.0
 (optional=templinst)_ZN9QtPrivate16QMetaTypeForTypeI5QUuidE10getCopyCtrEv@Qt_6 6.4.0
 (optional=templinst)_ZN9QtPrivate16QMetaTypeForTypeI5QUuidE10getMoveCtrEv@Qt_6 6.4.0
 (optional=templinst)_ZN9QtPrivate16QMetaTypeForTypeI5QUuidE13getDefaultCtrEv@Qt_6 6.4.0
 (optional=templinst)_ZN9QtPrivate16QMetaTypeForTypeI5QUuidE17getLegacyRegisterEv@Qt_6 6.4.0
 _ZN9QtPrivate16QMetaTypeForTypeI5QUuidE4nameE@Qt_6 6.4.0
 (optional=templinst)_ZN9QtPrivate16QMetaTypeForTypeI5QUuidE7getDtorEv@Qt_6 6.4.0
 (optional=templinst)_ZN9QtPrivate16QMetaTypeForTypeI5QUuidE7getNameEv@Qt_6 6.4.0
 (optional=templinst)_ZN9QtPrivate16QMetaTypeForTypeI6QLineFE10getCopyCtrEv@Qt_6 6.4.0
 (optional=templinst)_ZN9QtPrivate16QMetaTypeForTypeI6QLineFE10getMoveCtrEv@Qt_6 6.4.0
 (optional=templinst)_ZN9QtPrivate16QMetaTypeForTypeI6QLineFE13getDefaultCtrEv@Qt_6 6.4.0
 (optional=templinst)_ZN9QtPrivate16QMetaTypeForTypeI6QLineFE17getLegacyRegisterEv@Qt_6 6.4.0
 _ZN9QtPrivate16QMetaTypeForTypeI6QLineFE4nameE@Qt_6 6.4.0
 (optional=templinst)_ZN9QtPrivate16QMetaTypeForTypeI6QLineFE7getDtorEv@Qt_6 6.4.0
 (optional=templinst)_ZN9QtPrivate16QMetaTypeForTypeI6QLineFE7getNameEv@Qt_6 6.4.0
 (optional=templinst)_ZN9QtPrivate16QMetaTypeForTypeI6QPointE10getCopyCtrEv@Qt_6 6.4.0
 (optional=templinst)_ZN9QtPrivate16QMetaTypeForTypeI6QPointE10getMoveCtrEv@Qt_6 6.4.0
 (optional=templinst)_ZN9QtPrivate16QMetaTypeForTypeI6QPointE13getDefaultCtrEv@Qt_6 6.4.0
 (optional=templinst)_ZN9QtPrivate16QMetaTypeForTypeI6QPointE17getLegacyRegisterEv@Qt_6 6.4.0
 _ZN9QtPrivate16QMetaTypeForTypeI6QPointE4nameE@Qt_6 6.4.0
 (optional=templinst)_ZN9QtPrivate16QMetaTypeForTypeI6QPointE7getDtorEv@Qt_6 6.4.0
 (optional=templinst)_ZN9QtPrivate16QMetaTypeForTypeI6QPointE7getNameEv@Qt_6 6.4.0
 (optional=templinst)_ZN9QtPrivate16QMetaTypeForTypeI6QRectFE10getCopyCtrEv@Qt_6 6.4.0
 (optional=templinst)_ZN9QtPrivate16QMetaTypeForTypeI6QRectFE10getMoveCtrEv@Qt_6 6.4.0
 (optional=templinst)_ZN9QtPrivate16QMetaTypeForTypeI6QRectFE13getDefaultCtrEv@Qt_6 6.4.0
 (optional=templinst)_ZN9QtPrivate16QMetaTypeForTypeI6QRectFE17getLegacyRegisterEv@Qt_6 6.4.0
 _ZN9QtPrivate16QMetaTypeForTypeI6QRectFE4nameE@Qt_6 6.4.0
 (optional=templinst)_ZN9QtPrivate16QMetaTypeForTypeI6QRectFE7getDtorEv@Qt_6 6.4.0
 (optional=templinst)_ZN9QtPrivate16QMetaTypeForTypeI6QRectFE7getNameEv@Qt_6 6.4.0
 (optional=templinst)_ZN9QtPrivate16QMetaTypeForTypeI6QSizeFE10getCopyCtrEv@Qt_6 6.4.0
 (optional=templinst)_ZN9QtPrivate16QMetaTypeForTypeI6QSizeFE10getMoveCtrEv@Qt_6 6.4.0
 (optional=templinst)_ZN9QtPrivate16QMetaTypeForTypeI6QSizeFE13getDefaultCtrEv@Qt_6 6.4.0
 (optional=templinst)_ZN9QtPrivate16QMetaTypeForTypeI6QSizeFE17getLegacyRegisterEv@Qt_6 6.4.0
 _ZN9QtPrivate16QMetaTypeForTypeI6QSizeFE4nameE@Qt_6 6.4.0
 (optional=templinst)_ZN9QtPrivate16QMetaTypeForTypeI6QSizeFE7getDtorEv@Qt_6 6.4.0
 (optional=templinst)_ZN9QtPrivate16QMetaTypeForTypeI6QSizeFE7getNameEv@Qt_6 6.4.0
 (optional=templinst)_ZN9QtPrivate16QMetaTypeForTypeI7QLocaleE10getCopyCtrEv@Qt_6 6.4.0
 (optional=templinst)_ZN9QtPrivate16QMetaTypeForTypeI7QLocaleE10getMoveCtrEv@Qt_6 6.4.0
 (optional=templinst)_ZN9QtPrivate16QMetaTypeForTypeI7QLocaleE13getDefaultCtrEv@Qt_6 6.4.0
 (optional=templinst)_ZN9QtPrivate16QMetaTypeForTypeI7QLocaleE17getLegacyRegisterEv@Qt_6 6.4.0
 _ZN9QtPrivate16QMetaTypeForTypeI7QLocaleE4nameE@Qt_6 6.4.0
 (optional=templinst)_ZN9QtPrivate16QMetaTypeForTypeI7QLocaleE7getDtorEv@Qt_6 6.4.0
 (optional=templinst)_ZN9QtPrivate16QMetaTypeForTypeI7QLocaleE7getNameEv@Qt_6 6.4.0
 (optional=templinst)_ZN9QtPrivate16QMetaTypeForTypeI7QPointFE10getCopyCtrEv@Qt_6 6.4.0
 (optional=templinst)_ZN9QtPrivate16QMetaTypeForTypeI7QPointFE10getMoveCtrEv@Qt_6 6.4.0
 (optional=templinst)_ZN9QtPrivate16QMetaTypeForTypeI7QPointFE13getDefaultCtrEv@Qt_6 6.4.0
 (optional=templinst)_ZN9QtPrivate16QMetaTypeForTypeI7QPointFE17getLegacyRegisterEv@Qt_6 6.4.0
 _ZN9QtPrivate16QMetaTypeForTypeI7QPointFE4nameE@Qt_6 6.4.0
 (optional=templinst)_ZN9QtPrivate16QMetaTypeForTypeI7QPointFE7getDtorEv@Qt_6 6.4.0
 (optional=templinst)_ZN9QtPrivate16QMetaTypeForTypeI7QPointFE7getNameEv@Qt_6 6.4.0
 (optional=templinst)_ZN9QtPrivate16QMetaTypeForTypeI7QStringE10getCopyCtrEv@Qt_6 6.4.0
 (optional=templinst)_ZN9QtPrivate16QMetaTypeForTypeI7QStringE10getMoveCtrEv@Qt_6 6.4.0
 (optional=templinst)_ZN9QtPrivate16QMetaTypeForTypeI7QStringE13getDefaultCtrEv@Qt_6 6.4.0
 (optional=templinst)_ZN9QtPrivate16QMetaTypeForTypeI7QStringE17getLegacyRegisterEv@Qt_6 6.4.0
 _ZN9QtPrivate16QMetaTypeForTypeI7QStringE4nameE@Qt_6 6.4.0
 (optional=templinst)_ZN9QtPrivate16QMetaTypeForTypeI7QStringE7getDtorEv@Qt_6 6.4.0
 (optional=templinst)_ZN9QtPrivate16QMetaTypeForTypeI7QStringE7getNameEv@Qt_6 6.4.0
 (optional=templinst)_ZN9QtPrivate16QMetaTypeForTypeI8QCborMapE10getCopyCtrEv@Qt_6 6.4.0
 (optional=templinst)_ZN9QtPrivate16QMetaTypeForTypeI8QCborMapE10getMoveCtrEv@Qt_6 6.4.0
 (optional=templinst)_ZN9QtPrivate16QMetaTypeForTypeI8QCborMapE13getDefaultCtrEv@Qt_6 6.4.0
 (optional=templinst)_ZN9QtPrivate16QMetaTypeForTypeI8QCborMapE17getLegacyRegisterEv@Qt_6 6.4.0
 _ZN9QtPrivate16QMetaTypeForTypeI8QCborMapE4nameE@Qt_6 6.4.0
 (optional=templinst)_ZN9QtPrivate16QMetaTypeForTypeI8QCborMapE7getDtorEv@Qt_6 6.4.0
 (optional=templinst)_ZN9QtPrivate16QMetaTypeForTypeI8QCborMapE7getNameEv@Qt_6 6.4.0
 (optional=templinst)_ZN9QtPrivate16QMetaTypeForTypeI8QVariantE10getCopyCtrEv@Qt_6 6.4.0
 (optional=templinst)_ZN9QtPrivate16QMetaTypeForTypeI8QVariantE10getMoveCtrEv@Qt_6 6.4.0
 (optional=templinst)_ZN9QtPrivate16QMetaTypeForTypeI8QVariantE13getDefaultCtrEv@Qt_6 6.4.0
 (optional=templinst)_ZN9QtPrivate16QMetaTypeForTypeI8QVariantE17getLegacyRegisterEv@Qt_6 6.4.0
 _ZN9QtPrivate16QMetaTypeForTypeI8QVariantE4nameE@Qt_6 6.4.0
 (optional=templinst)_ZN9QtPrivate16QMetaTypeForTypeI8QVariantE7getDtorEv@Qt_6 6.4.0
 (optional=templinst)_ZN9QtPrivate16QMetaTypeForTypeI8QVariantE7getNameEv@Qt_6 6.4.0
 (optional=templinst)_ZN9QtPrivate16QMetaTypeForTypeI9QBitArrayE10getCopyCtrEv@Qt_6 6.4.0
 (optional=templinst)_ZN9QtPrivate16QMetaTypeForTypeI9QBitArrayE10getMoveCtrEv@Qt_6 6.4.0
 (optional=templinst)_ZN9QtPrivate16QMetaTypeForTypeI9QBitArrayE13getDefaultCtrEv@Qt_6 6.4.0
 (optional=templinst)_ZN9QtPrivate16QMetaTypeForTypeI9QBitArrayE17getLegacyRegisterEv@Qt_6 6.4.0
 _ZN9QtPrivate16QMetaTypeForTypeI9QBitArrayE4nameE@Qt_6 6.4.0
 (optional=templinst)_ZN9QtPrivate16QMetaTypeForTypeI9QBitArrayE7getDtorEv@Qt_6 6.4.0
 (optional=templinst)_ZN9QtPrivate16QMetaTypeForTypeI9QBitArrayE7getNameEv@Qt_6 6.4.0
 (optional=templinst)_ZN9QtPrivate16QMetaTypeForTypeI9QDateTimeE10getCopyCtrEv@Qt_6 6.4.0
 (optional=templinst)_ZN9QtPrivate16QMetaTypeForTypeI9QDateTimeE10getMoveCtrEv@Qt_6 6.4.0
 (optional=templinst)_ZN9QtPrivate16QMetaTypeForTypeI9QDateTimeE13getDefaultCtrEv@Qt_6 6.4.0
 (optional=templinst)_ZN9QtPrivate16QMetaTypeForTypeI9QDateTimeE17getLegacyRegisterEv@Qt_6 6.4.0
 _ZN9QtPrivate16QMetaTypeForTypeI9QDateTimeE4nameE@Qt_6 6.4.0
 (optional=templinst)_ZN9QtPrivate16QMetaTypeForTypeI9QDateTimeE7getDtorEv@Qt_6 6.4.0
 (optional=templinst)_ZN9QtPrivate16QMetaTypeForTypeI9QDateTimeE7getNameEv@Qt_6 6.4.0
 (optional=templinst)_ZN9QtPrivate16QMetaTypeForTypeIDiE10getCopyCtrEv@Qt_6 6.4.0
 (optional=templinst)_ZN9QtPrivate16QMetaTypeForTypeIDiE10getMoveCtrEv@Qt_6 6.4.0
 (optional=templinst)_ZN9QtPrivate16QMetaTypeForTypeIDiE13getDefaultCtrEv@Qt_6 6.4.0
 (optional=templinst)_ZN9QtPrivate16QMetaTypeForTypeIDiE17getLegacyRegisterEv@Qt_6 6.4.0
 _ZN9QtPrivate16QMetaTypeForTypeIDiE4nameE@Qt_6 6.4.0
 (optional=templinst)_ZN9QtPrivate16QMetaTypeForTypeIDiE7getDtorEv@Qt_6 6.4.0
 (optional=templinst)_ZN9QtPrivate16QMetaTypeForTypeIDiE7getNameEv@Qt_6 6.4.0
 (optional=templinst)_ZN9QtPrivate16QMetaTypeForTypeIDnE10getCopyCtrEv@Qt_6 6.4.0
 (optional=templinst)_ZN9QtPrivate16QMetaTypeForTypeIDnE10getMoveCtrEv@Qt_6 6.4.0
 (optional=templinst)_ZN9QtPrivate16QMetaTypeForTypeIDnE13getDefaultCtrEv@Qt_6 6.4.0
 (optional=templinst)_ZN9QtPrivate16QMetaTypeForTypeIDnE17getLegacyRegisterEv@Qt_6 6.4.0
 _ZN9QtPrivate16QMetaTypeForTypeIDnE4nameE@Qt_6 6.4.0
 (optional=templinst)_ZN9QtPrivate16QMetaTypeForTypeIDnE7getDtorEv@Qt_6 6.4.0
 (optional=templinst)_ZN9QtPrivate16QMetaTypeForTypeIDnE7getNameEv@Qt_6 6.4.0
 (optional=templinst)_ZN9QtPrivate16QMetaTypeForTypeIDsE10getCopyCtrEv@Qt_6 6.4.0
 (optional=templinst)_ZN9QtPrivate16QMetaTypeForTypeIDsE10getMoveCtrEv@Qt_6 6.4.0
 (optional=templinst)_ZN9QtPrivate16QMetaTypeForTypeIDsE13getDefaultCtrEv@Qt_6 6.4.0
 (optional=templinst)_ZN9QtPrivate16QMetaTypeForTypeIDsE17getLegacyRegisterEv@Qt_6 6.4.0
 _ZN9QtPrivate16QMetaTypeForTypeIDsE4nameE@Qt_6 6.4.0
 (optional=templinst)_ZN9QtPrivate16QMetaTypeForTypeIDsE7getDtorEv@Qt_6 6.4.0
 (optional=templinst)_ZN9QtPrivate16QMetaTypeForTypeIDsE7getNameEv@Qt_6 6.4.0
 (optional=templinst)_ZN9QtPrivate16QMetaTypeForTypeIP7QObjectE10getCopyCtrEv@Qt_6 6.4.0
 (optional=templinst)_ZN9QtPrivate16QMetaTypeForTypeIP7QObjectE10getMoveCtrEv@Qt_6 6.4.0
 (optional=templinst)_ZN9QtPrivate16QMetaTypeForTypeIP7QObjectE13getDefaultCtrEv@Qt_6 6.4.0
 (optional=templinst)_ZN9QtPrivate16QMetaTypeForTypeIP7QObjectE17getLegacyRegisterEv@Qt_6 6.4.0
 _ZN9QtPrivate16QMetaTypeForTypeIP7QObjectE4nameE@Qt_6 6.4.0
 (optional=templinst)_ZN9QtPrivate16QMetaTypeForTypeIP7QObjectE7getDtorEv@Qt_6 6.4.0
 (optional=templinst)_ZN9QtPrivate16QMetaTypeForTypeIP7QObjectE7getNameEv@Qt_6 6.4.0
 (optional=templinst)_ZN9QtPrivate16QMetaTypeForTypeIPvE10getCopyCtrEv@Qt_6 6.4.0
 (optional=templinst)_ZN9QtPrivate16QMetaTypeForTypeIPvE10getMoveCtrEv@Qt_6 6.4.0
 (optional=templinst)_ZN9QtPrivate16QMetaTypeForTypeIPvE13getDefaultCtrEv@Qt_6 6.4.0
 (optional=templinst)_ZN9QtPrivate16QMetaTypeForTypeIPvE17getLegacyRegisterEv@Qt_6 6.4.0
 _ZN9QtPrivate16QMetaTypeForTypeIPvE4nameE@Qt_6 6.4.0
 (optional=templinst)_ZN9QtPrivate16QMetaTypeForTypeIPvE7getDtorEv@Qt_6 6.4.0
 (optional=templinst)_ZN9QtPrivate16QMetaTypeForTypeIPvE7getNameEv@Qt_6 6.4.0
 (optional=templinst)_ZN9QtPrivate16QMetaTypeForTypeISt4pairI8QVariantS2_EE10getCopyCtrEv@Qt_6 6.4.0
 (optional=templinst)_ZN9QtPrivate16QMetaTypeForTypeISt4pairI8QVariantS2_EE10getMoveCtrEv@Qt_6 6.4.0
 (optional=templinst)_ZN9QtPrivate16QMetaTypeForTypeISt4pairI8QVariantS2_EE13getDefaultCtrEv@Qt_6 6.4.0
 (optional=templinst)_ZN9QtPrivate16QMetaTypeForTypeISt4pairI8QVariantS2_EE17getLegacyRegisterEv@Qt_6 6.4.0
 _ZN9QtPrivate16QMetaTypeForTypeISt4pairI8QVariantS2_EE4nameE@Qt_6 6.4.0
 (optional=templinst)_ZN9QtPrivate16QMetaTypeForTypeISt4pairI8QVariantS2_EE7getDtorEv@Qt_6 6.4.0
 (optional=templinst)_ZN9QtPrivate16QMetaTypeForTypeISt4pairI8QVariantS2_EE7getNameEv@Qt_6 6.4.0
 (optional=templinst)_ZN9QtPrivate16QMetaTypeForTypeIaE10getCopyCtrEv@Qt_6 6.4.0
 (optional=templinst)_ZN9QtPrivate16QMetaTypeForTypeIaE10getMoveCtrEv@Qt_6 6.4.0
 (optional=templinst)_ZN9QtPrivate16QMetaTypeForTypeIaE13getDefaultCtrEv@Qt_6 6.4.0
 (optional=templinst)_ZN9QtPrivate16QMetaTypeForTypeIaE17getLegacyRegisterEv@Qt_6 6.4.0
 _ZN9QtPrivate16QMetaTypeForTypeIaE4nameE@Qt_6 6.4.0
 (optional=templinst)_ZN9QtPrivate16QMetaTypeForTypeIaE7getDtorEv@Qt_6 6.4.0
 (optional=templinst)_ZN9QtPrivate16QMetaTypeForTypeIaE7getNameEv@Qt_6 6.4.0
 (optional=templinst)_ZN9QtPrivate16QMetaTypeForTypeIbE10getCopyCtrEv@Qt_6 6.4.0
 (optional=templinst)_ZN9QtPrivate16QMetaTypeForTypeIbE10getMoveCtrEv@Qt_6 6.4.0
 (optional=templinst)_ZN9QtPrivate16QMetaTypeForTypeIbE13getDefaultCtrEv@Qt_6 6.4.0
 (optional=templinst)_ZN9QtPrivate16QMetaTypeForTypeIbE17getLegacyRegisterEv@Qt_6 6.4.0
 _ZN9QtPrivate16QMetaTypeForTypeIbE4nameE@Qt_6 6.4.0
 (optional=templinst)_ZN9QtPrivate16QMetaTypeForTypeIbE7getDtorEv@Qt_6 6.4.0
 (optional=templinst)_ZN9QtPrivate16QMetaTypeForTypeIbE7getNameEv@Qt_6 6.4.0
 (optional=templinst)_ZN9QtPrivate16QMetaTypeForTypeIcE10getCopyCtrEv@Qt_6 6.4.0
 (optional=templinst)_ZN9QtPrivate16QMetaTypeForTypeIcE10getMoveCtrEv@Qt_6 6.4.0
 (optional=templinst)_ZN9QtPrivate16QMetaTypeForTypeIcE13getDefaultCtrEv@Qt_6 6.4.0
 (optional=templinst)_ZN9QtPrivate16QMetaTypeForTypeIcE17getLegacyRegisterEv@Qt_6 6.4.0
 _ZN9QtPrivate16QMetaTypeForTypeIcE4nameE@Qt_6 6.4.0
 (optional=templinst)_ZN9QtPrivate16QMetaTypeForTypeIcE7getDtorEv@Qt_6 6.4.0
 (optional=templinst)_ZN9QtPrivate16QMetaTypeForTypeIcE7getNameEv@Qt_6 6.4.0
 (optional=templinst)_ZN9QtPrivate16QMetaTypeForTypeIdE10getCopyCtrEv@Qt_6 6.4.0
 (optional=templinst)_ZN9QtPrivate16QMetaTypeForTypeIdE10getMoveCtrEv@Qt_6 6.4.0
 (optional=templinst)_ZN9QtPrivate16QMetaTypeForTypeIdE13getDefaultCtrEv@Qt_6 6.4.0
 (optional=templinst)_ZN9QtPrivate16QMetaTypeForTypeIdE17getLegacyRegisterEv@Qt_6 6.4.0
 _ZN9QtPrivate16QMetaTypeForTypeIdE4nameE@Qt_6 6.4.0
 (optional=templinst)_ZN9QtPrivate16QMetaTypeForTypeIdE7getDtorEv@Qt_6 6.4.0
 (optional=templinst)_ZN9QtPrivate16QMetaTypeForTypeIdE7getNameEv@Qt_6 6.4.0
 (optional=templinst)_ZN9QtPrivate16QMetaTypeForTypeIfE10getCopyCtrEv@Qt_6 6.4.0
 (optional=templinst)_ZN9QtPrivate16QMetaTypeForTypeIfE10getMoveCtrEv@Qt_6 6.4.0
 (optional=templinst)_ZN9QtPrivate16QMetaTypeForTypeIfE13getDefaultCtrEv@Qt_6 6.4.0
 (optional=templinst)_ZN9QtPrivate16QMetaTypeForTypeIfE17getLegacyRegisterEv@Qt_6 6.4.0
 _ZN9QtPrivate16QMetaTypeForTypeIfE4nameE@Qt_6 6.4.0
 (optional=templinst)_ZN9QtPrivate16QMetaTypeForTypeIfE7getDtorEv@Qt_6 6.4.0
 (optional=templinst)_ZN9QtPrivate16QMetaTypeForTypeIfE7getNameEv@Qt_6 6.4.0
 (optional=templinst)_ZN9QtPrivate16QMetaTypeForTypeIhE10getCopyCtrEv@Qt_6 6.4.0
 (optional=templinst)_ZN9QtPrivate16QMetaTypeForTypeIhE10getMoveCtrEv@Qt_6 6.4.0
 (optional=templinst)_ZN9QtPrivate16QMetaTypeForTypeIhE13getDefaultCtrEv@Qt_6 6.4.0
 (optional=templinst)_ZN9QtPrivate16QMetaTypeForTypeIhE17getLegacyRegisterEv@Qt_6 6.4.0
 _ZN9QtPrivate16QMetaTypeForTypeIhE4nameE@Qt_6 6.4.0
 (optional=templinst)_ZN9QtPrivate16QMetaTypeForTypeIhE7getDtorEv@Qt_6 6.4.0
 (optional=templinst)_ZN9QtPrivate16QMetaTypeForTypeIhE7getNameEv@Qt_6 6.4.0
 (optional=templinst)_ZN9QtPrivate16QMetaTypeForTypeIiE10getCopyCtrEv@Qt_6 6.4.0
 (optional=templinst)_ZN9QtPrivate16QMetaTypeForTypeIiE10getMoveCtrEv@Qt_6 6.4.0
 (optional=templinst)_ZN9QtPrivate16QMetaTypeForTypeIiE13getDefaultCtrEv@Qt_6 6.4.0
 (optional=templinst)_ZN9QtPrivate16QMetaTypeForTypeIiE17getLegacyRegisterEv@Qt_6 6.4.0
 _ZN9QtPrivate16QMetaTypeForTypeIiE4nameE@Qt_6 6.4.0
 (optional=templinst)_ZN9QtPrivate16QMetaTypeForTypeIiE7getDtorEv@Qt_6 6.4.0
 (optional=templinst)_ZN9QtPrivate16QMetaTypeForTypeIiE7getNameEv@Qt_6 6.4.0
 (optional=templinst)_ZN9QtPrivate16QMetaTypeForTypeIjE10getCopyCtrEv@Qt_6 6.4.0
 (optional=templinst)_ZN9QtPrivate16QMetaTypeForTypeIjE10getMoveCtrEv@Qt_6 6.4.0
 (optional=templinst)_ZN9QtPrivate16QMetaTypeForTypeIjE13getDefaultCtrEv@Qt_6 6.4.0
 (optional=templinst)_ZN9QtPrivate16QMetaTypeForTypeIjE17getLegacyRegisterEv@Qt_6 6.4.0
 _ZN9QtPrivate16QMetaTypeForTypeIjE4nameE@Qt_6 6.4.0
 (optional=templinst)_ZN9QtPrivate16QMetaTypeForTypeIjE7getDtorEv@Qt_6 6.4.0
 (optional=templinst)_ZN9QtPrivate16QMetaTypeForTypeIjE7getNameEv@Qt_6 6.4.0
 (optional=templinst)_ZN9QtPrivate16QMetaTypeForTypeIlE10getCopyCtrEv@Qt_6 6.4.0
 (optional=templinst)_ZN9QtPrivate16QMetaTypeForTypeIlE10getMoveCtrEv@Qt_6 6.4.0
 (optional=templinst)_ZN9QtPrivate16QMetaTypeForTypeIlE13getDefaultCtrEv@Qt_6 6.4.0
 (optional=templinst)_ZN9QtPrivate16QMetaTypeForTypeIlE17getLegacyRegisterEv@Qt_6 6.4.0
 _ZN9QtPrivate16QMetaTypeForTypeIlE4nameE@Qt_6 6.4.0
 (optional=templinst)_ZN9QtPrivate16QMetaTypeForTypeIlE7getDtorEv@Qt_6 6.4.0
 (optional=templinst)_ZN9QtPrivate16QMetaTypeForTypeIlE7getNameEv@Qt_6 6.4.0
 (optional=templinst)_ZN9QtPrivate16QMetaTypeForTypeImE10getCopyCtrEv@Qt_6 6.4.0
 (optional=templinst)_ZN9QtPrivate16QMetaTypeForTypeImE10getMoveCtrEv@Qt_6 6.4.0
 (optional=templinst)_ZN9QtPrivate16QMetaTypeForTypeImE13getDefaultCtrEv@Qt_6 6.4.0
 (optional=templinst)_ZN9QtPrivate16QMetaTypeForTypeImE17getLegacyRegisterEv@Qt_6 6.4.0
 _ZN9QtPrivate16QMetaTypeForTypeImE4nameE@Qt_6 6.4.0
 (optional=templinst)_ZN9QtPrivate16QMetaTypeForTypeImE7getDtorEv@Qt_6 6.4.0
 (optional=templinst)_ZN9QtPrivate16QMetaTypeForTypeImE7getNameEv@Qt_6 6.4.0
 (optional=templinst)_ZN9QtPrivate16QMetaTypeForTypeIsE10getCopyCtrEv@Qt_6 6.4.0
 (optional=templinst)_ZN9QtPrivate16QMetaTypeForTypeIsE10getMoveCtrEv@Qt_6 6.4.0
 (optional=templinst)_ZN9QtPrivate16QMetaTypeForTypeIsE13getDefaultCtrEv@Qt_6 6.4.0
 (optional=templinst)_ZN9QtPrivate16QMetaTypeForTypeIsE17getLegacyRegisterEv@Qt_6 6.4.0
 _ZN9QtPrivate16QMetaTypeForTypeIsE4nameE@Qt_6 6.4.0
 (optional=templinst)_ZN9QtPrivate16QMetaTypeForTypeIsE7getDtorEv@Qt_6 6.4.0
 (optional=templinst)_ZN9QtPrivate16QMetaTypeForTypeIsE7getNameEv@Qt_6 6.4.0
 (optional=templinst)_ZN9QtPrivate16QMetaTypeForTypeItE10getCopyCtrEv@Qt_6 6.4.0
 (optional=templinst)_ZN9QtPrivate16QMetaTypeForTypeItE10getMoveCtrEv@Qt_6 6.4.0
 (optional=templinst)_ZN9QtPrivate16QMetaTypeForTypeItE13getDefaultCtrEv@Qt_6 6.4.0
 (optional=templinst)_ZN9QtPrivate16QMetaTypeForTypeItE17getLegacyRegisterEv@Qt_6 6.4.0
 _ZN9QtPrivate16QMetaTypeForTypeItE4nameE@Qt_6 6.4.0
 (optional=templinst)_ZN9QtPrivate16QMetaTypeForTypeItE7getDtorEv@Qt_6 6.4.0
 (optional=templinst)_ZN9QtPrivate16QMetaTypeForTypeItE7getNameEv@Qt_6 6.4.0
 (optional=templinst)_ZN9QtPrivate16QMetaTypeForTypeIxE10getCopyCtrEv@Qt_6 6.4.0
 (optional=templinst)_ZN9QtPrivate16QMetaTypeForTypeIxE10getMoveCtrEv@Qt_6 6.4.0
 (optional=templinst)_ZN9QtPrivate16QMetaTypeForTypeIxE13getDefaultCtrEv@Qt_6 6.4.0
 (optional=templinst)_ZN9QtPrivate16QMetaTypeForTypeIxE17getLegacyRegisterEv@Qt_6 6.4.0
 _ZN9QtPrivate16QMetaTypeForTypeIxE4nameE@Qt_6 6.4.0
 (optional=templinst)_ZN9QtPrivate16QMetaTypeForTypeIxE7getDtorEv@Qt_6 6.4.0
 (optional=templinst)_ZN9QtPrivate16QMetaTypeForTypeIxE7getNameEv@Qt_6 6.4.0
 (optional=templinst)_ZN9QtPrivate16QMetaTypeForTypeIyE10getCopyCtrEv@Qt_6 6.4.0
 (optional=templinst)_ZN9QtPrivate16QMetaTypeForTypeIyE10getMoveCtrEv@Qt_6 6.4.0
 (optional=templinst)_ZN9QtPrivate16QMetaTypeForTypeIyE13getDefaultCtrEv@Qt_6 6.4.0
 (optional=templinst)_ZN9QtPrivate16QMetaTypeForTypeIyE17getLegacyRegisterEv@Qt_6 6.4.0
 _ZN9QtPrivate16QMetaTypeForTypeIyE4nameE@Qt_6 6.4.0
 (optional=templinst)_ZN9QtPrivate16QMetaTypeForTypeIyE7getDtorEv@Qt_6 6.4.0
 (optional=templinst)_ZN9QtPrivate16QMetaTypeForTypeIyE7getNameEv@Qt_6 6.4.0
 _ZN9QtPrivate16QStringList_joinEPK5QListI7QStringE11QStringView@Qt_6 6.1.2
 (subst)_ZN9QtPrivate16QStringList_joinEPK5QListI7QStringEPK5QChar{qptrdiff}@Qt_6 6.1.2
 _ZN9QtPrivate16QStringList_joinERK5QListI7QStringE13QLatin1String@Qt_6 6.1.2
 _ZN9QtPrivate16QStringList_sortEP5QListI7QStringEN2Qt15CaseSensitivityE@Qt_6 6.1.2
 _ZN9QtPrivate16convertToQStringE14QAnyStringView@Qt_6 6.1.2
 _ZN9QtPrivate17lcNativeInterfaceEv@Qt_6 6.2.4
 _ZN9QtPrivate17shouldLogToStderrEv@Qt_6 6.1.2
 _ZN9QtPrivate17toUnsignedIntegerE14QByteArrayViewi@Qt_6 6.3.0
 _ZN9QtPrivate18QStringList_filterEPK5QListI7QStringE11QStringViewN2Qt15CaseSensitivityE@Qt_6 6.1.2
 _ZN9QtPrivate18QStringList_filterEPK5QListI7QStringERK18QRegularExpression@Qt_6 6.1.2
 _ZN9QtPrivate18ResultIteratorBase14batchedAdvanceEv@Qt_6 6.1.2
 _ZN9QtPrivate18ResultIteratorBaseC1EN4QMapIiNS_10ResultItemEE14const_iteratorEi@Qt_6 6.1.2
 _ZN9QtPrivate18ResultIteratorBaseC1Ev@Qt_6 6.1.2
 _ZN9QtPrivate18ResultIteratorBaseC2EN4QMapIiNS_10ResultItemEE14const_iteratorEi@Qt_6 6.1.2
 _ZN9QtPrivate18ResultIteratorBaseC2Ev@Qt_6 6.1.2
 _ZN9QtPrivate18ResultIteratorBaseppEv@Qt_6 6.1.2
 _ZN9QtPrivate18convertToLocal8BitE11QStringView@Qt_6 6.1.2
 _ZN9QtPrivate19QByteArrayList_joinEPK5QListI10QByteArrayEPKci@Qt_6 6.1.2
 (arch=amd64 arm64 ia64 mips64el ppc64 ppc64el riscv64 s390x sparc64)_ZN9QtPrivate19QByteArrayList_joinEPK5QListI10QByteArrayEPKcx@Qt_6 6.3.0
 (subst)_ZN9QtPrivate19QStringList_indexOfEPK5QListI7QStringERK18QRegularExpression{qptrdiff}@Qt_6 6.1.2
 _ZN9QtPrivate19QVariantTypeCoercer6coerceERK8QVariantRK9QMetaType@Qt_6 6.1.2
 _ZN9QtPrivate19QVariantTypeCoercer7convertERK8QVariantRK9QMetaType@Qt_6 6.1.2
 _ZN9QtPrivate20QPropertyBindingData10setBindingERK23QUntypedPropertyBindingP20QUntypedPropertyDataPFvS5_EPFb9QMetaTypeS5_NS_24QPropertyBindingFunctionEE@Qt_6 6.1.2
 _ZN9QtPrivate20QPropertyBindingData20removeBinding_helperEv@Qt_6 6.1.2
 _ZN9QtPrivate20QPropertyBindingDataC1EOS0_@Qt_6 6.1.2
 _ZN9QtPrivate20QPropertyBindingDataC2EOS0_@Qt_6 6.1.2
 _ZN9QtPrivate20QPropertyBindingDataD1Ev@Qt_6 6.1.2
 _ZN9QtPrivate20QPropertyBindingDataD2Ev@Qt_6 6.1.2
 _ZN9QtPrivate20QStringList_containsEPK5QListI7QStringE11QStringViewN2Qt15CaseSensitivityE@Qt_6 6.1.2
 _ZN9QtPrivate20QStringList_containsEPK5QListI7QStringE13QLatin1StringN2Qt15CaseSensitivityE@Qt_6 6.1.2
 _ZN9QtPrivate20restoreBindingStatusEPNS_22BindingEvaluationStateE@Qt_6 6.2.0
 _ZN9QtPrivate22isAnyBindingEvaluatingEv@Qt_6 6.1.2
 _ZN9QtPrivate23CompatPropertySafePointC1EP14QBindingStatusP20QUntypedPropertyData@Qt_6 6.1.2
 _ZN9QtPrivate23CompatPropertySafePointC2EP14QBindingStatusP20QUntypedPropertyData@Qt_6 6.1.2
 (subst)_ZN9QtPrivate23QStringList_lastIndexOfEPK5QListI7QStringERK18QRegularExpression{qptrdiff}@Qt_6 6.1.2
 _ZN9QtPrivate25QMetaTypeInterfaceWrapperI10QByteArrayE8metaTypeE@Qt_6 6.4.0
 _ZN9QtPrivate25QMetaTypeInterfaceWrapperI10QCborArrayE8metaTypeE@Qt_6 6.4.0
 _ZN9QtPrivate25QMetaTypeInterfaceWrapperI10QCborValueE8metaTypeE@Qt_6 6.4.0
 _ZN9QtPrivate25QMetaTypeInterfaceWrapperI10QJsonArrayE8metaTypeE@Qt_6 6.4.0
 _ZN9QtPrivate25QMetaTypeInterfaceWrapperI10QJsonValueE8metaTypeE@Qt_6 6.4.0
 _ZN9QtPrivate25QMetaTypeInterfaceWrapperI11QJsonObjectE8metaTypeE@Qt_6 6.4.0
 _ZN9QtPrivate25QMetaTypeInterfaceWrapperI11QModelIndexE8metaTypeE@Qt_6 6.4.0
 _ZN9QtPrivate25QMetaTypeInterfaceWrapperI12QEasingCurveE8metaTypeE@Qt_6 6.4.0
 _ZN9QtPrivate25QMetaTypeInterfaceWrapperI13QJsonDocumentE8metaTypeE@Qt_6 6.4.0
 _ZN9QtPrivate25QMetaTypeInterfaceWrapperI15QCborSimpleTypeE8metaTypeE@Qt_6 6.4.0
 _ZN9QtPrivate25QMetaTypeInterfaceWrapperI18QRegularExpressionE8metaTypeE@Qt_6 6.4.0
 _ZN9QtPrivate25QMetaTypeInterfaceWrapperI21QPersistentModelIndexE8metaTypeE@Qt_6 6.4.0
 _ZN9QtPrivate25QMetaTypeInterfaceWrapperI4QMapI7QString8QVariantEE8metaTypeE@Qt_6 6.4.0
 _ZN9QtPrivate25QMetaTypeInterfaceWrapperI4QUrlE8metaTypeE@Qt_6 6.4.0
 _ZN9QtPrivate25QMetaTypeInterfaceWrapperI5QCharE8metaTypeE@Qt_6 6.4.0
 _ZN9QtPrivate25QMetaTypeInterfaceWrapperI5QDateE8metaTypeE@Qt_6 6.4.0
 _ZN9QtPrivate25QMetaTypeInterfaceWrapperI5QHashI7QString8QVariantEE8metaTypeE@Qt_6 6.4.0
 _ZN9QtPrivate25QMetaTypeInterfaceWrapperI5QLineE8metaTypeE@Qt_6 6.4.0
 _ZN9QtPrivate25QMetaTypeInterfaceWrapperI5QListI10QByteArrayEE8metaTypeE@Qt_6 6.4.0
 _ZN9QtPrivate25QMetaTypeInterfaceWrapperI5QListI7QStringEE8metaTypeE@Qt_6 6.4.0
 _ZN9QtPrivate25QMetaTypeInterfaceWrapperI5QListI8QVariantEE8metaTypeE@Qt_6 6.4.0
 _ZN9QtPrivate25QMetaTypeInterfaceWrapperI5QRectE8metaTypeE@Qt_6 6.4.0
 _ZN9QtPrivate25QMetaTypeInterfaceWrapperI5QSizeE8metaTypeE@Qt_6 6.4.0
 _ZN9QtPrivate25QMetaTypeInterfaceWrapperI5QTimeE8metaTypeE@Qt_6 6.4.0
 _ZN9QtPrivate25QMetaTypeInterfaceWrapperI5QUuidE8metaTypeE@Qt_6 6.4.0
 _ZN9QtPrivate25QMetaTypeInterfaceWrapperI6QLineFE8metaTypeE@Qt_6 6.4.0
 _ZN9QtPrivate25QMetaTypeInterfaceWrapperI6QPointE8metaTypeE@Qt_6 6.4.0
 _ZN9QtPrivate25QMetaTypeInterfaceWrapperI6QRectFE8metaTypeE@Qt_6 6.4.0
 _ZN9QtPrivate25QMetaTypeInterfaceWrapperI6QSizeFE8metaTypeE@Qt_6 6.4.0
 _ZN9QtPrivate25QMetaTypeInterfaceWrapperI7QLocaleE8metaTypeE@Qt_6 6.4.0
 _ZN9QtPrivate25QMetaTypeInterfaceWrapperI7QPointFE8metaTypeE@Qt_6 6.4.0
 _ZN9QtPrivate25QMetaTypeInterfaceWrapperI7QStringE8metaTypeE@Qt_6 6.4.0
 _ZN9QtPrivate25QMetaTypeInterfaceWrapperI8QCborMapE8metaTypeE@Qt_6 6.4.0
 _ZN9QtPrivate25QMetaTypeInterfaceWrapperI8QVariantE8metaTypeE@Qt_6 6.4.0
 _ZN9QtPrivate25QMetaTypeInterfaceWrapperI9QBitArrayE8metaTypeE@Qt_6 6.4.0
 _ZN9QtPrivate25QMetaTypeInterfaceWrapperI9QDateTimeE8metaTypeE@Qt_6 6.4.0
 _ZN9QtPrivate25QMetaTypeInterfaceWrapperIDiE8metaTypeE@Qt_6 6.4.0
 _ZN9QtPrivate25QMetaTypeInterfaceWrapperIDnE8metaTypeE@Qt_6 6.4.0
 _ZN9QtPrivate25QMetaTypeInterfaceWrapperIDsE8metaTypeE@Qt_6 6.4.0
 _ZN9QtPrivate25QMetaTypeInterfaceWrapperIP7QObjectE8metaTypeE@Qt_6 6.4.0
 _ZN9QtPrivate25QMetaTypeInterfaceWrapperIPvE8metaTypeE@Qt_6 6.4.0
 _ZN9QtPrivate25QMetaTypeInterfaceWrapperISt4pairI8QVariantS2_EE8metaTypeE@Qt_6 6.4.0
 _ZN9QtPrivate25QMetaTypeInterfaceWrapperIaE8metaTypeE@Qt_6 6.4.0
 _ZN9QtPrivate25QMetaTypeInterfaceWrapperIbE8metaTypeE@Qt_6 6.4.0
 _ZN9QtPrivate25QMetaTypeInterfaceWrapperIcE8metaTypeE@Qt_6 6.4.0
 _ZN9QtPrivate25QMetaTypeInterfaceWrapperIdE8metaTypeE@Qt_6 6.4.0
 _ZN9QtPrivate25QMetaTypeInterfaceWrapperIfE8metaTypeE@Qt_6 6.4.0
 _ZN9QtPrivate25QMetaTypeInterfaceWrapperIhE8metaTypeE@Qt_6 6.4.0
 _ZN9QtPrivate25QMetaTypeInterfaceWrapperIiE8metaTypeE@Qt_6 6.4.0
 _ZN9QtPrivate25QMetaTypeInterfaceWrapperIjE8metaTypeE@Qt_6 6.4.0
 _ZN9QtPrivate25QMetaTypeInterfaceWrapperIlE8metaTypeE@Qt_6 6.4.0
 _ZN9QtPrivate25QMetaTypeInterfaceWrapperImE8metaTypeE@Qt_6 6.4.0
 _ZN9QtPrivate25QMetaTypeInterfaceWrapperIsE8metaTypeE@Qt_6 6.4.0
 _ZN9QtPrivate25QMetaTypeInterfaceWrapperItE8metaTypeE@Qt_6 6.4.0
 _ZN9QtPrivate25QMetaTypeInterfaceWrapperIxE8metaTypeE@Qt_6 6.4.0
 _ZN9QtPrivate25QMetaTypeInterfaceWrapperIyE8metaTypeE@Qt_6 6.4.0
 _ZN9QtPrivate25initBindingStatusThreadIdEv@Qt_6 6.2.0
 _ZN9QtPrivate26isPropertyInBindingWrapperEPK20QUntypedPropertyData@Qt_6 6.2.0
 _ZN9QtPrivate27suspendCurrentBindingStatusEv@Qt_6 6.2.0
 _ZN9QtPrivate28QStringList_removeDuplicatesEP5QListI7QStringE@Qt_6 6.1.2
 _ZN9QtPrivate28QStringList_replaceInStringsEP5QListI7QStringE11QStringViewS4_N2Qt15CaseSensitivityE@Qt_6 6.1.2
 _ZN9QtPrivate28QStringList_replaceInStringsEP5QListI7QStringERK18QRegularExpressionRKS1_@Qt_6 6.1.2
 _ZN9QtPrivate5countE11QStringView13QLatin1StringN2Qt15CaseSensitivityE@Qt_6 6.4.0
 _ZN9QtPrivate5countE11QStringView5QCharN2Qt15CaseSensitivityE@Qt_6 6.1.2
 _ZN9QtPrivate5countE11QStringViewRK18QRegularExpression@Qt_6 6.1.2
 _ZN9QtPrivate5countE11QStringViewS0_N2Qt15CaseSensitivityE@Qt_6 6.1.2
 _ZN9QtPrivate5countE13QLatin1String11QStringViewN2Qt15CaseSensitivityE@Qt_6 6.4.0
 _ZN9QtPrivate5countE13QLatin1String5QCharN2Qt15CaseSensitivityE@Qt_6 6.4.0
 _ZN9QtPrivate5countE13QLatin1StringS0_N2Qt15CaseSensitivityE@Qt_6 6.4.0
 _ZN9QtPrivate5countE14QByteArrayViewS0_@Qt_6 6.1.2
 (subst)_ZN9QtPrivate7indexOfE11QStringViewRK18QRegularExpression{qptrdiff}P23QRegularExpressionMatch@Qt_6 6.1.2
 _ZN9QtPrivate7isAsciiE11QStringView@Qt_6 6.1.2
 _ZN9QtPrivate7isAsciiE13QLatin1String@Qt_6 6.1.2
 _ZN9QtPrivate7toFloatE14QByteArrayView@Qt_6 6.3.0
 _ZN9QtPrivate7trimmedE11QStringView@Qt_6 6.1.2
 _ZN9QtPrivate7trimmedE13QLatin1String@Qt_6 6.1.2
 _ZN9QtPrivate7trimmedE14QByteArrayView@Qt_6 6.3.0
 _ZN9QtPrivate8containsE11QStringViewRK18QRegularExpressionP23QRegularExpressionMatch@Qt_6 6.1.2
 _ZN9QtPrivate8endsWithE11QStringView13QLatin1StringN2Qt15CaseSensitivityE@Qt_6 6.1.2
 _ZN9QtPrivate8endsWithE11QStringViewS0_N2Qt15CaseSensitivityE@Qt_6 6.1.2
 _ZN9QtPrivate8endsWithE13QLatin1String11QStringViewN2Qt15CaseSensitivityE@Qt_6 6.1.2
 _ZN9QtPrivate8endsWithE13QLatin1StringS0_N2Qt15CaseSensitivityE@Qt_6 6.1.2
 _ZN9QtPrivate8endsWithE14QByteArrayViewS0_@Qt_6 6.1.2
 _ZN9QtPrivate8isLatin1E11QStringView@Qt_6 6.1.2
 _ZN9QtPrivate8qustrchrE11QStringViewDs@Qt_6 6.1.2
 _ZN9QtPrivate8qustrlenEPKDs@Qt_6 6.1.2
 _ZN9QtPrivate8toDoubleE14QByteArrayView@Qt_6 6.3.0
 _ZNK10QByteArray10toLongLongEPbi@Qt_6 6.1.2
 (subst)_ZNK10QByteArray11lastIndexOfEc{qptrdiff}@Qt_6 6.1.2
 _ZNK10QByteArray11toStdStringB5cxx11Ev@Qt_6 6.4.0
 _ZNK10QByteArray11toULongLongEPbi@Qt_6 6.1.2
 (subst)_ZNK10QByteArray13leftJustifiedE{qptrdiff}cb@Qt_6 6.1.2
 _ZNK10QByteArray14percentDecodedEc@Qt_6 6.4.0
 (subst)_ZNK10QByteArray14rightJustifiedE{qptrdiff}cb@Qt_6 6.1.2
 _ZNK10QByteArray17toPercentEncodingERKS_S1_c@Qt_6 6.1.2
 (subst)_ZNK10QByteArray3midE{qptrdiff}{qptrdiff}@Qt_6 6.1.2
 (subst)_ZNK10QByteArray4leftE{qptrdiff}@Qt_6 6.1.2
 _ZNK10QByteArray5countEc@Qt_6 6.1.2
 (subst)_ZNK10QByteArray5rightE{qptrdiff}@Qt_6 6.1.2
 _ZNK10QByteArray5splitEc@Qt_6 6.1.2
 _ZNK10QByteArray5toHexEc@Qt_6 6.1.2
 _ZNK10QByteArray5toIntEPbi@Qt_6 6.1.2
 _ZNK10QByteArray6isNullEv@Qt_6 6.1.2
 _ZNK10QByteArray6toLongEPbi@Qt_6 6.1.2
 _ZNK10QByteArray6toUIntEPbi@Qt_6 6.1.2
 (subst)_ZNK10QByteArray7indexOfEc{qptrdiff}@Qt_6 6.1.2
 _ZNK10QByteArray7isLowerEv@Qt_6 6.1.2
 _ZNK10QByteArray7isUpperEv@Qt_6 6.1.2
 _ZNK10QByteArray7toFloatEPb@Qt_6 6.1.2
 _ZNK10QByteArray7toShortEPbi@Qt_6 6.1.2
 _ZNK10QByteArray7toULongEPbi@Qt_6 6.1.2
 (subst)_ZNK10QByteArray8repeatedE{qptrdiff}@Qt_6 6.1.2
 _ZNK10QByteArray8toBase64E6QFlagsINS_12Base64OptionEE@Qt_6 6.1.2
 _ZNK10QByteArray8toDoubleEPb@Qt_6 6.1.2
 _ZNK10QByteArray8toUShortEPbi@Qt_6 6.1.2
 _ZNK10QCborArray11toJsonArrayEv@Qt_6 6.1.2
 _ZNK10QCborArray13toVariantListEv@Qt_6 6.1.2
 (subst)_ZNK10QCborArray2atE{qptrdiff}@Qt_6 6.1.2
 _ZNK10QCborArray4sizeEv@Qt_6 6.1.2
 _ZNK10QCborArray7compareERKS_@Qt_6 6.1.2
 _ZNK10QCborArray8containsERK10QCborValue@Qt_6 6.1.2
 _ZNK10QCborError8toStringEv@Qt_6 6.1.2
 _ZNK10QCborValue10toDateTimeERK9QDateTime@Qt_6 6.1.2
 _ZNK10QCborValue11taggedValueERKS_@Qt_6 6.1.2
 _ZNK10QCborValue11toByteArrayERK10QByteArray@Qt_6 6.1.2
 _ZNK10QCborValue11toJsonValueEv@Qt_6 6.1.2
 _ZNK10QCborValue19toRegularExpressionERK18QRegularExpression@Qt_6 6.1.2
 _ZNK10QCborValue20toDiagnosticNotationE6QFlagsINS_24DiagnosticNotationOptionEE@Qt_6 6.1.2
 _ZNK10QCborValue3tagE8QCborTag@Qt_6 6.1.2
 _ZNK10QCborValue5toMapERK8QCborMap@Qt_6 6.1.2
 _ZNK10QCborValue5toMapEv@Qt_6 6.1.2
 _ZNK10QCborValue5toUrlERK4QUrl@Qt_6 6.1.2
 _ZNK10QCborValue6toCborE6QFlagsINS_14EncodingOptionEE@Qt_6 6.1.2
 _ZNK10QCborValue6toCborER17QCborStreamWriter6QFlagsINS_14EncodingOptionEE@Qt_6 6.1.2
 _ZNK10QCborValue6toUuidERK5QUuid@Qt_6 6.1.2
 _ZNK10QCborValue7compareERKS_@Qt_6 6.1.2
 _ZNK10QCborValue7toArrayERK10QCborArray@Qt_6 6.1.2
 _ZNK10QCborValue7toArrayEv@Qt_6 6.1.2
 _ZNK10QCborValue8toStringERK7QString@Qt_6 6.1.2
 _ZNK10QCborValue9toVariantEv@Qt_6 6.1.2
 _ZNK10QCborValueixE13QLatin1String@Qt_6 6.1.2
 _ZNK10QCborValueixERK7QString@Qt_6 6.1.2
 _ZNK10QCborValueixEx@Qt_6 6.1.2
 _ZNK10QEventLoop10metaObjectEv@Qt_6 6.1.2
 _ZNK10QEventLoop9isRunningEv@Qt_6 6.1.2
 _ZNK10QException5cloneEv@Qt_6 6.1.2
 _ZNK10QException5raiseEv@Qt_6 6.1.2
 _ZNK10QJsonArray13toVariantListEv@Qt_6 6.1.2
 (subst)_ZNK10QJsonArray2atE{qptrdiff}@Qt_6 6.1.2
 _ZNK10QJsonArray4lastEv@Qt_6 6.1.2
 _ZNK10QJsonArray4sizeEv@Qt_6 6.1.2
 _ZNK10QJsonArray5firstEv@Qt_6 6.1.2
 _ZNK10QJsonArray7isEmptyEv@Qt_6 6.1.2
 _ZNK10QJsonArray8containsERK10QJsonValue@Qt_6 6.1.2
 _ZNK10QJsonArrayeqERKS_@Qt_6 6.1.2
 (subst)_ZNK10QJsonArrayixE{qptrdiff}@Qt_6 6.1.2
 _ZNK10QJsonArrayneERKS_@Qt_6 6.1.2
 _ZNK10QJsonValue4typeEv@Qt_6 6.1.2
 _ZNK10QJsonValue5toIntEi@Qt_6 6.1.2
 _ZNK10QJsonValue6toBoolEb@Qt_6 6.1.2
 _ZNK10QJsonValue7toArrayERK10QJsonArray@Qt_6 6.1.2
 _ZNK10QJsonValue7toArrayEv@Qt_6 6.1.2
 _ZNK10QJsonValue8toDoubleEd@Qt_6 6.1.2
 _ZNK10QJsonValue8toObjectERK11QJsonObject@Qt_6 6.1.2
 _ZNK10QJsonValue8toObjectEv@Qt_6 6.1.2
 _ZNK10QJsonValue8toStringERK7QString@Qt_6 6.1.2
 _ZNK10QJsonValue8toStringEv@Qt_6 6.1.2
 _ZNK10QJsonValue9toIntegerEx@Qt_6 6.1.2
 _ZNK10QJsonValue9toVariantEv@Qt_6 6.1.2
 _ZNK10QJsonValueeqERKS_@Qt_6 6.1.2
 _ZNK10QJsonValueixE11QStringView@Qt_6 6.1.2
 _ZNK10QJsonValueixE13QLatin1String@Qt_6 6.1.2
 _ZNK10QJsonValueixERK7QString@Qt_6 6.1.2
 (subst)_ZNK10QJsonValueixE{qptrdiff}@Qt_6 6.1.2
 _ZNK10QJsonValueneERKS_@Qt_6 6.1.2
 _ZNK10QSemaphore9availableEv@Qt_6 6.1.2
 _ZNK11QChildEvent5cloneEv@Qt_6 6.4.0
 _ZNK11QDataStream22floatingPointPrecisionEv@Qt_6 6.1.2
 _ZNK11QDataStream26isDeviceTransactionStartedEv@Qt_6 6.1.2
 _ZNK11QDataStream5atEndEv@Qt_6 6.1.2
 _ZNK11QDataStream6statusEv@Qt_6 6.1.2
 _ZNK11QFileDevice10metaObjectEv@Qt_6 6.1.2
 _ZNK11QFileDevice11permissionsEv@Qt_6 6.1.2
 _ZNK11QFileDevice12isSequentialEv@Qt_6 6.1.2
 _ZNK11QFileDevice3posEv@Qt_6 6.1.2
 _ZNK11QFileDevice4sizeEv@Qt_6 6.1.2
 _ZNK11QFileDevice5atEndEv@Qt_6 6.1.2
 _ZNK11QFileDevice5errorEv@Qt_6 6.1.2
 _ZNK11QFileDevice6handleEv@Qt_6 6.1.2
 _ZNK11QFileDevice8fileNameEv@Qt_6 6.1.2
 _ZNK11QFileDevice8fileTimeENS_8FileTimeE@Qt_6 6.1.2
 _ZNK11QJsonObject12toVariantMapEv@Qt_6 6.1.2
 _ZNK11QJsonObject13toVariantHashEv@Qt_6 6.1.2
 _ZNK11QJsonObject4keysEv@Qt_6 6.1.2
 _ZNK11QJsonObject4sizeEv@Qt_6 6.1.2
 (subst)_ZNK11QJsonObject5keyAtE{qptrdiff}@Qt_6 6.1.2
 _ZNK11QJsonObject5valueE11QStringView@Qt_6 6.1.2
 _ZNK11QJsonObject5valueE13QLatin1String@Qt_6 6.1.2
 _ZNK11QJsonObject5valueERK7QString@Qt_6 6.1.2
 _ZNK11QJsonObject7isEmptyEv@Qt_6 6.1.2
 (subst)_ZNK11QJsonObject7valueAtE{qptrdiff}@Qt_6 6.1.2
 _ZNK11QJsonObject8containsE11QStringView@Qt_6 6.1.2
 _ZNK11QJsonObject8containsE13QLatin1String@Qt_6 6.1.2
 _ZNK11QJsonObject8containsERK7QString@Qt_6 6.1.2
 _ZNK11QJsonObject9constFindE11QStringView@Qt_6 6.1.2
 _ZNK11QJsonObject9constFindE13QLatin1String@Qt_6 6.1.2
 _ZNK11QJsonObject9constFindERK7QString@Qt_6 6.1.2
 _ZNK11QJsonObjecteqERKS_@Qt_6 6.1.2
 _ZNK11QJsonObjectixERK7QString@Qt_6 6.1.2
 _ZNK11QJsonObjectneERKS_@Qt_6 6.1.2
 _ZNK11QLocaleData13validateCharsE11QStringViewNS_10NumberModeEP10QByteArrayi6QFlagsIN7QLocale12NumberOptionEE@Qt_6 6.1.2
 _ZNK11QMetaMethod10attributesEv@Qt_6 6.1.2
 _ZNK11QMetaMethod10methodTypeEv@Qt_6 6.1.2
 _ZNK11QMetaMethod10returnTypeEv@Qt_6 6.1.2
 _ZNK11QMetaMethod11methodIndexEv@Qt_6 6.1.2
 _ZNK11QMetaMethod13parameterTypeEi@Qt_6 6.1.2
 _ZNK11QMetaMethod14invokeOnGadgetEPv22QGenericReturnArgument16QGenericArgumentS2_S2_S2_S2_S2_S2_S2_S2_S2_@Qt_6 6.1.2
 _ZNK11QMetaMethod14parameterCountEv@Qt_6 6.1.2
 _ZNK11QMetaMethod14parameterNamesEv@Qt_6 6.1.2
 _ZNK11QMetaMethod14parameterTypesEv@Qt_6 6.1.2
 _ZNK11QMetaMethod14returnMetaTypeEv@Qt_6 6.1.2
 _ZNK11QMetaMethod15methodSignatureEv@Qt_6 6.1.2
 _ZNK11QMetaMethod17getParameterTypesEPi@Qt_6 6.1.2
 _ZNK11QMetaMethod17parameterMetaTypeEi@Qt_6 6.1.2
 _ZNK11QMetaMethod17parameterTypeNameEi@Qt_6 6.1.2
 _ZNK11QMetaMethod19relativeMethodIndexEv@Qt_6 6.1.2
 _ZNK11QMetaMethod3tagEv@Qt_6 6.1.2
 _ZNK11QMetaMethod4nameEv@Qt_6 6.1.2
 _ZNK11QMetaMethod6accessEv@Qt_6 6.1.2
 _ZNK11QMetaMethod6invokeEP7QObjectN2Qt14ConnectionTypeE22QGenericReturnArgument16QGenericArgumentS5_S5_S5_S5_S5_S5_S5_S5_S5_@Qt_6 6.1.2
 _ZNK11QMetaMethod7isConstEv@Qt_6 6.2.0
 _ZNK11QMetaMethod8revisionEv@Qt_6 6.1.2
 _ZNK11QMetaMethod8typeNameEv@Qt_6 6.1.2
 _ZNK11QMetaObject10Connection18isConnected_helperEv@Qt_6 6.1.2
 _ZNK11QMetaObject10enumeratorEi@Qt_6 6.1.2
 _ZNK11QMetaObject11constructorEi@Qt_6 6.1.2
 _ZNK11QMetaObject11indexOfSlotEPKc@Qt_6 6.1.2
 _ZNK11QMetaObject11methodCountEv@Qt_6 6.1.2
 _ZNK11QMetaObject11newInstanceE16QGenericArgumentS0_S0_S0_S0_S0_S0_S0_S0_S0_@Qt_6 6.1.2
 _ZNK11QMetaObject12methodOffsetEv@Qt_6 6.1.2
 _ZNK11QMetaObject12userPropertyEv@Qt_6 6.1.2
 _ZNK11QMetaObject13indexOfMethodEPKc@Qt_6 6.1.2
 _ZNK11QMetaObject13indexOfSignalEPKc@Qt_6 6.1.2
 _ZNK11QMetaObject13propertyCountEv@Qt_6 6.1.2
 _ZNK11QMetaObject14classInfoCountEv@Qt_6 6.1.2
 _ZNK11QMetaObject14propertyOffsetEv@Qt_6 6.1.2
 _ZNK11QMetaObject15classInfoOffsetEv@Qt_6 6.1.2
 _ZNK11QMetaObject15enumeratorCountEv@Qt_6 6.1.2
 _ZNK11QMetaObject15indexOfPropertyEPKc@Qt_6 6.1.2
 _ZNK11QMetaObject15static_metacallENS_4CallEiPPv@Qt_6 6.1.2
 _ZNK11QMetaObject16constructorCountEv@Qt_6 6.1.2
 _ZNK11QMetaObject16enumeratorOffsetEv@Qt_6 6.1.2
 _ZNK11QMetaObject16indexOfClassInfoEPKc@Qt_6 6.1.2
 _ZNK11QMetaObject17indexOfEnumeratorEPKc@Qt_6 6.1.2
 _ZNK11QMetaObject18indexOfConstructorEPKc@Qt_6 6.1.2
 _ZNK11QMetaObject2trEPKcS1_i@Qt_6 6.1.2
 _ZNK11QMetaObject4castEPK7QObject@Qt_6 6.1.2
 _ZNK11QMetaObject6methodEi@Qt_6 6.1.2
 _ZNK11QMetaObject8inheritsEPKS_@Qt_6 6.1.2
 _ZNK11QMetaObject8metaTypeEv@Qt_6 6.2.0
 _ZNK11QMetaObject8propertyEi@Qt_6 6.1.2
 _ZNK11QMetaObject9classInfoEi@Qt_6 6.1.2
 _ZNK11QMetaObject9classNameEv@Qt_6 6.1.2
 _ZNK11QObjectData17dynamicMetaObjectEv@Qt_6 6.1.2
 _ZNK11QRingBuffer21readPointerAtPositionExRx@Qt_6 6.1.2
 _ZNK11QRingBuffer4peekEPcxx@Qt_6 6.1.2
 _ZNK11QRingBuffer7indexOfEcxx@Qt_6 6.1.2
 _ZNK11QStringView5splitE5QChar6QFlagsIN2Qt18SplitBehaviorFlagsEENS2_15CaseSensitivityE@Qt_6 6.1.2
 _ZNK11QStringView5splitERK18QRegularExpression6QFlagsIN2Qt18SplitBehaviorFlagsEE@Qt_6 6.1.2
 _ZNK11QStringView5splitES_6QFlagsIN2Qt18SplitBehaviorFlagsEENS1_15CaseSensitivityE@Qt_6 6.1.2
 _ZNK11QStringView7toFloatEPb@Qt_6 6.1.2
 _ZNK11QStringView8toDoubleEPb@Qt_6 6.1.2
 _ZNK11QTextStream10fieldWidthEv@Qt_6 6.1.2
 _ZNK11QTextStream11integerBaseEv@Qt_6 6.1.2
 _ZNK11QTextStream11numberFlagsEv@Qt_6 6.1.2
 _ZNK11QTextStream14fieldAlignmentEv@Qt_6 6.1.2
 _ZNK11QTextStream17autoDetectUnicodeEv@Qt_6 6.1.2
 _ZNK11QTextStream18realNumberNotationEv@Qt_6 6.1.2
 _ZNK11QTextStream19realNumberPrecisionEv@Qt_6 6.1.2
 _ZNK11QTextStream21generateByteOrderMarkEv@Qt_6 6.1.2
 _ZNK11QTextStream3posEv@Qt_6 6.1.2
 _ZNK11QTextStream5atEndEv@Qt_6 6.1.2
 _ZNK11QTextStream6deviceEv@Qt_6 6.1.2
 _ZNK11QTextStream6localeEv@Qt_6 6.1.2
 _ZNK11QTextStream6statusEv@Qt_6 6.1.2
 _ZNK11QTextStream6stringEv@Qt_6 6.1.2
 _ZNK11QTextStream7padCharEv@Qt_6 6.1.2
 _ZNK11QTextStream8encodingEv@Qt_6 6.1.2
 _ZNK11QThreadPool10metaObjectEv@Qt_6 6.1.2
 _ZNK11QThreadPool13expiryTimeoutEv@Qt_6 6.1.2
 _ZNK11QThreadPool14maxThreadCountEv@Qt_6 6.1.2
 _ZNK11QThreadPool14threadPriorityEv@Qt_6 6.2.0
 _ZNK11QThreadPool17activeThreadCountEv@Qt_6 6.1.2
 _ZNK11QThreadPool8containsEPK7QThread@Qt_6 6.1.2
 _ZNK11QThreadPool9stackSizeEv@Qt_6 6.1.2
 _ZNK11QTimerEvent5cloneEv@Qt_6 6.4.0
 _ZNK11QTranslator10metaObjectEv@Qt_6 6.1.2
 _ZNK11QTranslator7isEmptyEv@Qt_6 6.1.2
 _ZNK11QTranslator8filePathEv@Qt_6 6.1.2
 _ZNK11QTranslator8languageEv@Qt_6 6.1.2
 _ZNK11QTranslator9translateEPKcS1_S1_i@Qt_6 6.1.2
 _ZNK12QDirIterator4pathEv@Qt_6 6.1.2
 _ZNK12QDirIterator7hasNextEv@Qt_6 6.1.2
 _ZNK12QDirIterator8fileInfoEv@Qt_6 6.1.2
 _ZNK12QDirIterator8fileNameEv@Qt_6 6.1.2
 _ZNK12QDirIterator8filePathEv@Qt_6 6.1.2
 _ZNK12QEasingCurve10customTypeEv@Qt_6 6.1.2
 _ZNK12QEasingCurve13toCubicSplineEv@Qt_6 6.1.2
 _ZNK12QEasingCurve16valueForProgressEd@Qt_6 6.1.2
 _ZNK12QEasingCurve4typeEv@Qt_6 6.1.2
 _ZNK12QEasingCurve6periodEv@Qt_6 6.1.2
 _ZNK12QEasingCurve9amplitudeEv@Qt_6 6.1.2
 _ZNK12QEasingCurve9overshootEv@Qt_6 6.1.2
 _ZNK12QEasingCurveeqERKS_@Qt_6 6.1.2
 _ZNK12QStorageInfo10bytesTotalEv@Qt_6 6.1.2
 _ZNK12QStorageInfo10isReadOnlyEv@Qt_6 6.1.2
 _ZNK12QStorageInfo11displayNameEv@Qt_6 6.1.2
 _ZNK12QStorageInfo14bytesAvailableEv@Qt_6 6.1.2
 _ZNK12QStorageInfo14fileSystemTypeEv@Qt_6 6.1.2
 _ZNK12QStorageInfo4nameEv@Qt_6 6.1.2
 _ZNK12QStorageInfo6deviceEv@Qt_6 6.1.2
 _ZNK12QStorageInfo7isReadyEv@Qt_6 6.1.2
 _ZNK12QStorageInfo7isValidEv@Qt_6 6.1.2
 _ZNK12QStorageInfo8rootPathEv@Qt_6 6.1.2
 _ZNK12QStorageInfo9blockSizeEv@Qt_6 6.1.2
 _ZNK12QStorageInfo9bytesFreeEv@Qt_6 6.1.2
 _ZNK12QStorageInfo9subvolumeEv@Qt_6 6.1.2
 _ZNK13QCborValueRef11toJsonValueEv@Qt_6 6.1.2
 _ZNK13QCborValueRefixE13QLatin1String@Qt_6 6.1.2
 _ZNK13QCborValueRefixERK7QString@Qt_6 6.1.2
 _ZNK13QCborValueRefixEx@Qt_6 6.1.2
 _ZNK13QElapsedTimer10hasExpiredEx@Qt_6 6.1.2
 _ZNK13QElapsedTimer12nsecsElapsedEv@Qt_6 6.1.2
 _ZNK13QElapsedTimer19msecsSinceReferenceEv@Qt_6 6.1.2
 _ZNK13QElapsedTimer6secsToERKS_@Qt_6 6.1.2
 _ZNK13QElapsedTimer7elapsedEv@Qt_6 6.1.2
 _ZNK13QElapsedTimer7isValidEv@Qt_6 6.1.2
 _ZNK13QElapsedTimer7msecsToERKS_@Qt_6 6.1.2
 _ZNK13QFileSelector10metaObjectEv@Qt_6 6.1.2
 _ZNK13QFileSelector12allSelectorsEv@Qt_6 6.1.2
 _ZNK13QFileSelector14extraSelectorsEv@Qt_6 6.1.2
 _ZNK13QFileSelector6selectERK4QUrl@Qt_6 6.1.2
 _ZNK13QFileSelector6selectERK7QString@Qt_6 6.1.2
 _ZNK13QJsonDocument5arrayEv@Qt_6 6.1.2
 _ZNK13QJsonDocument6isNullEv@Qt_6 6.1.2
 _ZNK13QJsonDocument6objectEv@Qt_6 6.1.2
 _ZNK13QJsonDocument6toJsonENS_10JsonFormatE@Qt_6 6.1.2
 _ZNK13QJsonDocument7isArrayEv@Qt_6 6.1.2
 _ZNK13QJsonDocument7isEmptyEv@Qt_6 6.1.2
 _ZNK13QJsonDocument8isObjectEv@Qt_6 6.1.2
 _ZNK13QJsonDocument9toVariantEv@Qt_6 6.1.2
 _ZNK13QJsonDocumenteqERKS_@Qt_6 6.1.2
 _ZNK13QJsonDocumentixE11QStringView@Qt_6 6.1.2
 _ZNK13QJsonDocumentixE13QLatin1String@Qt_6 6.1.2
 _ZNK13QJsonDocumentixERK7QString@Qt_6 6.1.2
 (subst)_ZNK13QJsonDocumentixE{qptrdiff}@Qt_6 6.1.2
 _ZNK13QJsonValueRef7toArrayEv@Qt_6 6.1.2
 _ZNK13QJsonValueRef7toValueEv@Qt_6 6.1.2
 _ZNK13QJsonValueRef8toObjectEv@Qt_6 6.1.2
 _ZNK13QJsonValueRef9toVariantEv@Qt_6 6.1.2
 _ZNK13QMetaProperty10enumeratorEv@Qt_6 6.1.2
 _ZNK13QMetaProperty10isBindableEv@Qt_6 6.1.2
 _ZNK13QMetaProperty10isConstantEv@Qt_6 6.1.2
 _ZNK13QMetaProperty10isEnumTypeEv@Qt_6 6.1.2
 _ZNK13QMetaProperty10isFlagTypeEv@Qt_6 6.1.2
 _ZNK13QMetaProperty10isReadableEv@Qt_6 6.1.2
 _ZNK13QMetaProperty10isRequiredEv@Qt_6 6.1.2
 _ZNK13QMetaProperty10isWritableEv@Qt_6 6.1.2
 _ZNK13QMetaProperty12hasStdCppSetEv@Qt_6 6.1.2
 _ZNK13QMetaProperty12isDesignableEv@Qt_6 6.1.2
 _ZNK13QMetaProperty12isResettableEv@Qt_6 6.1.2
 _ZNK13QMetaProperty12isScriptableEv@Qt_6 6.1.2
 _ZNK13QMetaProperty12notifySignalEv@Qt_6 6.1.2
 _ZNK13QMetaProperty12readOnGadgetEPKv@Qt_6 6.1.2
 _ZNK13QMetaProperty13propertyIndexEv@Qt_6 6.1.2
 _ZNK13QMetaProperty13resetOnGadgetEPv@Qt_6 6.1.2
 _ZNK13QMetaProperty13writeOnGadgetEPvRK8QVariant@Qt_6 6.1.2
 _ZNK13QMetaProperty15hasNotifySignalEv@Qt_6 6.1.2
 _ZNK13QMetaProperty17notifySignalIndexEv@Qt_6 6.1.2
 _ZNK13QMetaProperty20registerPropertyTypeEv@Qt_6 6.1.2
 _ZNK13QMetaProperty21relativePropertyIndexEv@Qt_6 6.1.2
 _ZNK13QMetaProperty4Data5indexEPK11QMetaObject@Qt_6 6.1.2
 _ZNK13QMetaProperty4nameEv@Qt_6 6.1.2
 _ZNK13QMetaProperty4readEPK7QObject@Qt_6 6.1.2
 _ZNK13QMetaProperty5resetEP7QObject@Qt_6 6.1.2
 _ZNK13QMetaProperty5writeEP7QObjectRK8QVariant@Qt_6 6.1.2
 _ZNK13QMetaProperty6isUserEv@Qt_6 6.1.2
 _ZNK13QMetaProperty7isAliasEv@Qt_6 6.1.2
 _ZNK13QMetaProperty7isFinalEv@Qt_6 6.1.2
 _ZNK13QMetaProperty8bindableEP7QObject@Qt_6 6.1.2
 _ZNK13QMetaProperty8isStoredEv@Qt_6 6.1.2
 _ZNK13QMetaProperty8metaTypeEv@Qt_6 6.1.2
 _ZNK13QMetaProperty8revisionEv@Qt_6 6.1.2
 _ZNK13QMetaProperty8typeNameEv@Qt_6 6.1.2
 _ZNK13QMetaSequence10isSortableEv@Qt_6 6.1.2
 _ZNK13QMetaSequence11canAddValueEv@Qt_6 6.1.2
 _ZNK13QMetaSequence11removeValueEPv@Qt_6 6.1.2
 (subst)_ZNK13QMetaSequence12valueAtIndexEPKv{qptrdiff}Pv@Qt_6 6.1.2
 _ZNK13QMetaSequence13addValueAtEndEPvPKv@Qt_6 6.1.2
 _ZNK13QMetaSequence13valueMetaTypeEv@Qt_6 6.1.2
 _ZNK13QMetaSequence14canRemoveValueEv@Qt_6 6.1.2
 _ZNK13QMetaSequence15addValueAtBeginEPvPKv@Qt_6 6.1.2
 (subst)_ZNK13QMetaSequence15setValueAtIndexEPv{qptrdiff}PKv@Qt_6 6.1.2
 _ZNK13QMetaSequence15valueAtIteratorEPKvPv@Qt_6 6.1.2
 _ZNK13QMetaSequence16canAddValueAtEndEv@Qt_6 6.1.2
 _ZNK13QMetaSequence16removeValueAtEndEPv@Qt_6 6.1.2
 _ZNK13QMetaSequence18canAddValueAtBeginEv@Qt_6 6.1.2
 _ZNK13QMetaSequence18canGetValueAtIndexEv@Qt_6 6.1.2
 _ZNK13QMetaSequence18canSetValueAtIndexEv@Qt_6 6.1.2
 _ZNK13QMetaSequence18removeValueAtBeginEPv@Qt_6 6.1.2
 _ZNK13QMetaSequence18setValueAtIteratorEPKvS1_@Qt_6 6.1.2
 _ZNK13QMetaSequence19canRemoveValueAtEndEv@Qt_6 6.1.2
 _ZNK13QMetaSequence20eraseRangeAtIteratorEPvPKvS2_@Qt_6 6.1.2
 _ZNK13QMetaSequence20eraseValueAtIteratorEPvPKv@Qt_6 6.1.2
 _ZNK13QMetaSequence20valueAtConstIteratorEPKvPv@Qt_6 6.1.2
 _ZNK13QMetaSequence21canGetValueAtIteratorEv@Qt_6 6.1.2
 _ZNK13QMetaSequence21canRemoveValueAtBeginEv@Qt_6 6.1.2
 _ZNK13QMetaSequence21canSetValueAtIteratorEv@Qt_6 6.1.2
 _ZNK13QMetaSequence21insertValueAtIteratorEPvPKvS2_@Qt_6 6.1.2
 _ZNK13QMetaSequence23canEraseRangeAtIteratorEv@Qt_6 6.1.2
 _ZNK13QMetaSequence23canEraseValueAtIteratorEv@Qt_6 6.1.2
 _ZNK13QMetaSequence24canInsertValueAtIteratorEv@Qt_6 6.1.2
 _ZNK13QMetaSequence26canGetValueAtConstIteratorEv@Qt_6 6.1.2
 _ZNK13QMetaSequence8addValueEPvPKv@Qt_6 6.1.2
 _ZNK13QMimeDatabase12allMimeTypesEv@Qt_6 6.1.2
 _ZNK13QMimeDatabase14mimeTypeForUrlERK4QUrl@Qt_6 6.1.2
 _ZNK13QMimeDatabase15mimeTypeForDataEP9QIODevice@Qt_6 6.1.2
 _ZNK13QMimeDatabase15mimeTypeForDataERK10QByteArray@Qt_6 6.1.2
 _ZNK13QMimeDatabase15mimeTypeForFileERK7QStringNS_9MatchModeE@Qt_6 6.1.2
 _ZNK13QMimeDatabase15mimeTypeForFileERK9QFileInfoNS_9MatchModeE@Qt_6 6.1.2
 _ZNK13QMimeDatabase15mimeTypeForNameERK7QString@Qt_6 6.1.2
 _ZNK13QMimeDatabase17suffixForFileNameERK7QString@Qt_6 6.1.2
 _ZNK13QMimeDatabase20mimeTypesForFileNameERK7QString@Qt_6 6.1.2
 _ZNK13QMimeDatabase26mimeTypeForFileNameAndDataERK7QStringP9QIODevice@Qt_6 6.1.2
 _ZNK13QMimeDatabase26mimeTypeForFileNameAndDataERK7QStringRK10QByteArray@Qt_6 6.1.2
 _ZNK13QPluginLoader10metaObjectEv@Qt_6 6.1.2
 _ZNK13QPluginLoader11errorStringEv@Qt_6 6.1.2
 _ZNK13QPluginLoader8fileNameEv@Qt_6 6.1.2
 _ZNK13QPluginLoader8isLoadedEv@Qt_6 6.1.2
 _ZNK13QPluginLoader8metaDataEv@Qt_6 6.1.2
 _ZNK13QPluginLoader9loadHintsEv@Qt_6 6.1.2
 _ZNK13QSharedMemory10isAttachedEv@Qt_6 6.1.2
 _ZNK13QSharedMemory10metaObjectEv@Qt_6 6.1.2
 _ZNK13QSharedMemory11errorStringEv@Qt_6 6.1.2
 _ZNK13QSharedMemory3keyEv@Qt_6 6.1.2
 _ZNK13QSharedMemory4dataEv@Qt_6 6.1.2
 _ZNK13QSharedMemory4sizeEv@Qt_6 6.1.2
 _ZNK13QSharedMemory5errorEv@Qt_6 6.1.2
 _ZNK13QSharedMemory9constDataEv@Qt_6 6.1.2
 _ZNK13QSharedMemory9nativeKeyEv@Qt_6 6.1.2
 _ZNK13QSignalMapper10metaObjectEv@Qt_6 6.1.2
 _ZNK13QSignalMapper7mappingEP7QObject@Qt_6 6.1.2
 _ZNK13QSignalMapper7mappingERK7QString@Qt_6 6.1.2
 _ZNK13QSignalMapper7mappingEi@Qt_6 6.1.2
 _ZNK13QStaticPlugin8metaDataEv@Qt_6 6.1.2
 _ZNK13QTemporaryDir10autoRemoveEv@Qt_6 6.1.2
 _ZNK13QTemporaryDir11errorStringEv@Qt_6 6.1.2
 _ZNK13QTemporaryDir4pathEv@Qt_6 6.1.2
 _ZNK13QTemporaryDir7isValidEv@Qt_6 6.1.2
 _ZNK13QTemporaryDir8filePathERK7QString@Qt_6 6.1.2
 _ZNK14QDeadlineTimer10hasExpiredEv@Qt_6 6.1.2
 _ZNK14QDeadlineTimer13deadlineNSecsEv@Qt_6 6.1.2
 _ZNK14QDeadlineTimer13remainingTimeEv@Qt_6 6.1.2
 _ZNK14QDeadlineTimer18remainingTimeNSecsEv@Qt_6 6.1.2
 _ZNK14QDeadlineTimer21rawRemainingTimeNSecsEv@Qt_6 6.1.2
 _ZNK14QDeadlineTimer8deadlineEv@Qt_6 6.1.2
 _ZNK14QItemSelection7indexesEv@Qt_6 6.1.2
 _ZNK14QItemSelection8containsERK11QModelIndex@Qt_6 6.1.2
 _ZNK14QMessageLogger4infoEPFRK16QLoggingCategoryvE@Qt_6 6.1.2
 _ZNK14QMessageLogger4infoEPFRK16QLoggingCategoryvEPKcz@Qt_6 6.1.2
 _ZNK14QMessageLogger4infoEPKcz@Qt_6 6.1.2
 _ZNK14QMessageLogger4infoERK16QLoggingCategory@Qt_6 6.1.2
 _ZNK14QMessageLogger4infoERK16QLoggingCategoryPKcz@Qt_6 6.1.2
 _ZNK14QMessageLogger4infoEv@Qt_6 6.1.2
 _ZNK14QMessageLogger5debugEPFRK16QLoggingCategoryvE@Qt_6 6.1.2
 _ZNK14QMessageLogger5debugEPFRK16QLoggingCategoryvEPKcz@Qt_6 6.1.2
 _ZNK14QMessageLogger5debugEPKcz@Qt_6 6.1.2
 _ZNK14QMessageLogger5debugERK16QLoggingCategory@Qt_6 6.1.2
 _ZNK14QMessageLogger5debugERK16QLoggingCategoryPKcz@Qt_6 6.1.2
 _ZNK14QMessageLogger5debugEv@Qt_6 6.1.2
 _ZNK14QMessageLogger5fatalEPKcz@Qt_6 6.1.2
 _ZNK14QMessageLogger7noDebugEv@Qt_6 6.1.2
 _ZNK14QMessageLogger7warningEPFRK16QLoggingCategoryvE@Qt_6 6.1.2
 _ZNK14QMessageLogger7warningEPFRK16QLoggingCategoryvEPKcz@Qt_6 6.1.2
 _ZNK14QMessageLogger7warningEPKcz@Qt_6 6.1.2
 _ZNK14QMessageLogger7warningERK16QLoggingCategory@Qt_6 6.1.2
 _ZNK14QMessageLogger7warningERK16QLoggingCategoryPKcz@Qt_6 6.1.2
 _ZNK14QMessageLogger7warningEv@Qt_6 6.1.2
 _ZNK14QMessageLogger8criticalEPFRK16QLoggingCategoryvE@Qt_6 6.1.2
 _ZNK14QMessageLogger8criticalEPFRK16QLoggingCategoryvEPKcz@Qt_6 6.1.2
 _ZNK14QMessageLogger8criticalEPKcz@Qt_6 6.1.2
 _ZNK14QMessageLogger8criticalERK16QLoggingCategory@Qt_6 6.1.2
 _ZNK14QMessageLogger8criticalERK16QLoggingCategoryPKcz@Qt_6 6.1.2
 _ZNK14QMessageLogger8criticalEv@Qt_6 6.1.2
 _ZNK14QMetaClassInfo4nameEv@Qt_6 6.1.2
 _ZNK14QMetaClassInfo5valueEv@Qt_6 6.1.2
 _ZNK14QMetaContainer10constBeginEPKv@Qt_6 6.1.2
 _ZNK14QMetaContainer11hasIteratorEv@Qt_6 6.1.2
 _ZNK14QMetaContainer12copyIteratorEPvPKv@Qt_6 6.1.2
 _ZNK14QMetaContainer12diffIteratorEPKvS1_@Qt_6 6.1.2
 (subst)_ZNK14QMetaContainer15advanceIteratorEPv{qptrdiff}@Qt_6 6.1.2
 _ZNK14QMetaContainer15compareIteratorEPKvS1_@Qt_6 6.1.2
 _ZNK14QMetaContainer15destroyIteratorEPKv@Qt_6 6.1.2
 _ZNK14QMetaContainer16hasConstIteratorEv@Qt_6 6.1.2
 _ZNK14QMetaContainer16hasInputIteratorEv@Qt_6 6.1.2
 _ZNK14QMetaContainer17copyConstIteratorEPvPKv@Qt_6 6.1.2
 _ZNK14QMetaContainer17diffConstIteratorEPKvS1_@Qt_6 6.1.2
 _ZNK14QMetaContainer18hasForwardIteratorEv@Qt_6 6.1.2
 (subst)_ZNK14QMetaContainer20advanceConstIteratorEPv{qptrdiff}@Qt_6 6.1.2
 _ZNK14QMetaContainer20compareConstIteratorEPKvS1_@Qt_6 6.1.2
 _ZNK14QMetaContainer20destroyConstIteratorEPKv@Qt_6 6.1.2
 _ZNK14QMetaContainer23hasRandomAccessIteratorEv@Qt_6 6.1.2
 _ZNK14QMetaContainer24hasBidirectionalIteratorEv@Qt_6 6.1.2
 _ZNK14QMetaContainer3endEPv@Qt_6 6.1.2
 _ZNK14QMetaContainer4sizeEPKv@Qt_6 6.1.2
 _ZNK14QMetaContainer5beginEPv@Qt_6 6.1.2
 _ZNK14QMetaContainer5clearEPv@Qt_6 6.1.2
 _ZNK14QMetaContainer7hasSizeEv@Qt_6 6.1.2
 _ZNK14QMetaContainer8canClearEv@Qt_6 6.1.2
 _ZNK14QMetaContainer8constEndEPKv@Qt_6 6.1.2
 _ZNK14QReadWriteLock21stateForWaitConditionEv@Qt_6 6.1.2
 (subst)_ZNK14QStringMatcher7indexInE11QStringView{qptrdiff}@Qt_6 6.1.2
 _ZNK14QStringMatcher7patternEv@Qt_6 6.1.2
 _ZNK14QTemporaryFile10autoRemoveEv@Qt_6 6.1.2
 _ZNK14QTemporaryFile10metaObjectEv@Qt_6 6.1.2
 _ZNK14QTemporaryFile12fileTemplateEv@Qt_6 6.1.2
 _ZNK14QTemporaryFile8fileNameEv@Qt_6 6.1.2
 _ZNK14QVersionNumber10isPrefixOfERKS_@Qt_6 6.1.2
 _ZNK14QVersionNumber10normalizedEv@Qt_6 6.1.2
 _ZNK14QVersionNumber8segmentsEv@Qt_6 6.1.2
 _ZNK14QVersionNumber8toStringEv@Qt_6 6.1.2
 _ZNK15QAnimationGroup10metaObjectEv@Qt_6 6.1.2
 _ZNK15QAnimationGroup11animationAtEi@Qt_6 6.1.2
 _ZNK15QAnimationGroup14animationCountEv@Qt_6 6.1.2
 _ZNK15QAnimationGroup16indexOfAnimationEP18QAbstractAnimation@Qt_6 6.1.2
 _ZNK15QBindingStorage18bindingData_helperEPK20QUntypedPropertyData@Qt_6 6.1.2
 _ZNK15QBindingStorage25registerDependency_helperEPK20QUntypedPropertyData@Qt_6 6.2.0
 _ZNK15QBindingStorage36maybeUpdateBindingAndRegister_helperEPK20QUntypedPropertyData@Qt_6 6.1.2
 _ZNK15QBindingStorage6statusEN9QtPrivate25QBindingStatusAccessTokenE@Qt_6 6.4.0
 _ZNK15QJsonParseError11errorStringEv@Qt_6 6.1.2
 _ZNK15QPauseAnimation10metaObjectEv@Qt_6 6.1.2
 _ZNK15QPauseAnimation8durationEv@Qt_6 6.1.2
 _ZNK15QSocketNotifier10metaObjectEv@Qt_6 6.1.2
 _ZNK15QSocketNotifier4typeEv@Qt_6 6.1.2
 _ZNK15QSocketNotifier6socketEv@Qt_6 6.1.2
 _ZNK15QSocketNotifier7isValidEv@Qt_6 6.1.2
 _ZNK15QSocketNotifier9isEnabledEv@Qt_6 6.1.2
 _ZNK16QAnimationDriver10metaObjectEv@Qt_6 6.1.2
 _ZNK16QAnimationDriver7elapsedEv@Qt_6 6.1.2
 _ZNK16QAnimationDriver9isRunningEv@Qt_6 6.1.2
 _ZNK16QCollatorSortKey7compareERKS_@Qt_6 6.1.2
 _ZNK16QCoreApplication10metaObjectEv@Qt_6 6.1.2
 _ZNK16QCoreApplication16resolveInterfaceEPKci@Qt_6 6.2.0
 _ZNK16QLoggingCategory9isEnabledE9QtMsgType@Qt_6 6.1.2
 _ZNK16QMetaAssociation11keyMetaTypeEv@Qt_6 6.1.2
 _ZNK16QMetaAssociation14mappedMetaTypeEv@Qt_6 6.1.2
 _ZNK16QStringConverter4nameEv@Qt_6 6.4.0
 _ZNK16QStringListModel10metaObjectEv@Qt_6 6.1.2
 _ZNK16QStringListModel10stringListEv@Qt_6 6.1.2
 _ZNK16QStringListModel20supportedDropActionsEv@Qt_6 6.1.2
 _ZNK16QStringListModel4dataERK11QModelIndexi@Qt_6 6.1.2
 _ZNK16QStringListModel5flagsERK11QModelIndex@Qt_6 6.1.2
 _ZNK16QStringListModel7siblingEiiRK11QModelIndex@Qt_6 6.1.2
 _ZNK16QStringListModel8itemDataERK11QModelIndex@Qt_6 6.1.2
 _ZNK16QStringListModel8rowCountERK11QModelIndex@Qt_6 6.1.2
 _ZNK16QSystemSemaphore11errorStringEv@Qt_6 6.1.2
 _ZNK16QSystemSemaphore3keyEv@Qt_6 6.1.2
 _ZNK16QSystemSemaphore5errorEv@Qt_6 6.1.2
 _ZNK16QXmlStreamReader10attributesEv@Qt_6 6.1.2
 _ZNK16QXmlStreamReader10lineNumberEv@Qt_6 6.1.2
 _ZNK16QXmlStreamReader11dtdPublicIdEv@Qt_6 6.1.2
 _ZNK16QXmlStreamReader11dtdSystemIdEv@Qt_6 6.1.2
 _ZNK16QXmlStreamReader11errorStringEv@Qt_6 6.1.2
 _ZNK16QXmlStreamReader11tokenStringEv@Qt_6 6.1.2
 _ZNK16QXmlStreamReader12columnNumberEv@Qt_6 6.1.2
 _ZNK16QXmlStreamReader12isWhitespaceEv@Qt_6 6.1.2
 _ZNK16QXmlStreamReader12namespaceUriEv@Qt_6 6.1.2
 _ZNK16QXmlStreamReader13qualifiedNameEv@Qt_6 6.1.2
 _ZNK16QXmlStreamReader14entityResolverEv@Qt_6 6.1.2
 _ZNK16QXmlStreamReader15characterOffsetEv@Qt_6 6.1.2
 _ZNK16QXmlStreamReader15documentVersionEv@Qt_6 6.1.2
 _ZNK16QXmlStreamReader16documentEncodingEv@Qt_6 6.1.2
 _ZNK16QXmlStreamReader18entityDeclarationsEv@Qt_6 6.1.2
 _ZNK16QXmlStreamReader19namespaceProcessingEv@Qt_6 6.1.2
 _ZNK16QXmlStreamReader20entityExpansionLimitEv@Qt_6 6.1.2
 _ZNK16QXmlStreamReader20isStandaloneDocumentEv@Qt_6 6.1.2
 _ZNK16QXmlStreamReader20notationDeclarationsEv@Qt_6 6.1.2
 _ZNK16QXmlStreamReader21namespaceDeclarationsEv@Qt_6 6.1.2
 _ZNK16QXmlStreamReader25processingInstructionDataEv@Qt_6 6.1.2
 _ZNK16QXmlStreamReader27processingInstructionTargetEv@Qt_6 6.1.2
 _ZNK16QXmlStreamReader4nameEv@Qt_6 6.1.2
 _ZNK16QXmlStreamReader4textEv@Qt_6 6.1.2
 _ZNK16QXmlStreamReader5atEndEv@Qt_6 6.1.2
 _ZNK16QXmlStreamReader5errorEv@Qt_6 6.1.2
 _ZNK16QXmlStreamReader6deviceEv@Qt_6 6.1.2
 _ZNK16QXmlStreamReader6prefixEv@Qt_6 6.1.2
 _ZNK16QXmlStreamReader7dtdNameEv@Qt_6 6.1.2
 _ZNK16QXmlStreamReader7isCDATAEv@Qt_6 6.1.2
 _ZNK16QXmlStreamReader9tokenTypeEv@Qt_6 6.1.2
 _ZNK16QXmlStreamWriter14autoFormattingEv@Qt_6 6.1.2
 _ZNK16QXmlStreamWriter20autoFormattingIndentEv@Qt_6 6.1.2
 _ZNK16QXmlStreamWriter6deviceEv@Qt_6 6.1.2
 _ZNK16QXmlStreamWriter8hasErrorEv@Qt_6 6.1.2
 (subst)_ZNK17QByteArrayMatcher7indexInE14QByteArrayView{qptrdiff}@Qt_6 6.3.0
 (subst)_ZNK17QByteArrayMatcher7indexInEPKc{qptrdiff}{qptrdiff}@Qt_6 6.1.2
 (subst)_ZNK17QByteArrayMatcher7indexInERK10QByteArray{qptrdiff}@Qt_6 6.1.2
 _ZNK17QCborStreamReader13currentOffsetEv@Qt_6 6.1.2
 _ZNK17QCborStreamReader13isLengthKnownEv@Qt_6 6.1.2
 _ZNK17QCborStreamReader14containerDepthEv@Qt_6 6.1.2
 _ZNK17QCborStreamReader19parentContainerTypeEv@Qt_6 6.1.2
 _ZNK17QCborStreamReader23_currentStringChunkSizeEv@Qt_6 6.1.2
 _ZNK17QCborStreamReader6deviceEv@Qt_6 6.1.2
 _ZNK17QCborStreamReader6lengthEv@Qt_6 6.1.2
 _ZNK17QCborStreamReader7hasNextEv@Qt_6 6.1.2
 _ZNK17QCborStreamWriter6deviceEv@Qt_6 6.1.2
 _ZNK17QVariantAnimation10keyValueAtEd@Qt_6 6.1.2
 _ZNK17QVariantAnimation10metaObjectEv@Qt_6 6.1.2
 _ZNK17QVariantAnimation10startValueEv@Qt_6 6.1.2
 _ZNK17QVariantAnimation11easingCurveEv@Qt_6 6.1.2
 _ZNK17QVariantAnimation12currentValueEv@Qt_6 6.1.2
 _ZNK17QVariantAnimation12interpolatedERK8QVariantS2_d@Qt_6 6.1.2
 _ZNK17QVariantAnimation8durationEv@Qt_6 6.1.2
 _ZNK17QVariantAnimation8endValueEv@Qt_6 6.1.2
 _ZNK17QVariantAnimation9keyValuesEv@Qt_6 6.1.2
 _ZNK18QAbstractAnimation10metaObjectEv@Qt_6 6.1.2
 _ZNK18QAbstractAnimation11currentLoopEv@Qt_6 6.1.2
 _ZNK18QAbstractAnimation11currentTimeEv@Qt_6 6.1.2
 _ZNK18QAbstractAnimation13bindableStateEv@Qt_6 6.2.0
 _ZNK18QAbstractAnimation13totalDurationEv@Qt_6 6.1.2
 _ZNK18QAbstractAnimation15currentLoopTimeEv@Qt_6 6.1.2
 _ZNK18QAbstractAnimation19bindableCurrentLoopEv@Qt_6 6.2.0
 _ZNK18QAbstractAnimation5groupEv@Qt_6 6.1.2
 _ZNK18QAbstractAnimation5stateEv@Qt_6 6.1.2
 _ZNK18QAbstractAnimation9directionEv@Qt_6 6.1.2
 _ZNK18QAbstractAnimation9loopCountEv@Qt_6 6.1.2
 _ZNK18QAbstractItemModel10checkIndexERK11QModelIndex6QFlagsINS_16CheckIndexOptionEE@Qt_6 6.1.2
 _ZNK18QAbstractItemModel10encodeDataERK5QListI11QModelIndexER11QDataStream@Qt_6 6.1.2
 _ZNK18QAbstractItemModel10headerDataEiN2Qt11OrientationEi@Qt_6 6.1.2
 _ZNK18QAbstractItemModel10metaObjectEv@Qt_6 6.1.2
 _ZNK18QAbstractItemModel11hasChildrenERK11QModelIndex@Qt_6 6.1.2
 _ZNK18QAbstractItemModel12canFetchMoreERK11QModelIndex@Qt_6 6.1.2
 _ZNK18QAbstractItemModel15canDropMimeDataEPK9QMimeDataN2Qt10DropActionEiiRK11QModelIndex@Qt_6 6.1.2
 _ZNK18QAbstractItemModel19persistentIndexListEv@Qt_6 6.1.2
 _ZNK18QAbstractItemModel20supportedDragActionsEv@Qt_6 6.1.2
 _ZNK18QAbstractItemModel20supportedDropActionsEv@Qt_6 6.1.2
 _ZNK18QAbstractItemModel4spanERK11QModelIndex@Qt_6 6.1.2
 _ZNK18QAbstractItemModel5buddyERK11QModelIndex@Qt_6 6.1.2
 _ZNK18QAbstractItemModel5flagsERK11QModelIndex@Qt_6 6.1.2
 _ZNK18QAbstractItemModel5matchERK11QModelIndexiRK8QVarianti6QFlagsIN2Qt9MatchFlagEE@Qt_6 6.1.2
 _ZNK18QAbstractItemModel7siblingEiiRK11QModelIndex@Qt_6 6.1.2
 _ZNK18QAbstractItemModel8hasIndexEiiRK11QModelIndex@Qt_6 6.1.2
 _ZNK18QAbstractItemModel8itemDataERK11QModelIndex@Qt_6 6.1.2
 _ZNK18QAbstractItemModel8mimeDataERK5QListI11QModelIndexE@Qt_6 6.1.2
 _ZNK18QAbstractItemModel9mimeTypesEv@Qt_6 6.1.2
 _ZNK18QAbstractItemModel9multiDataERK11QModelIndex18QModelRoleDataSpan@Qt_6 6.1.2
 _ZNK18QAbstractItemModel9roleNamesEv@Qt_6 6.1.2
 _ZNK18QAbstractListModel10metaObjectEv@Qt_6 6.1.2
 _ZNK18QAbstractListModel11columnCountERK11QModelIndex@Qt_6 6.1.2
 _ZNK18QAbstractListModel11hasChildrenERK11QModelIndex@Qt_6 6.1.2
 _ZNK18QAbstractListModel5flagsERK11QModelIndex@Qt_6 6.1.2
 _ZNK18QAbstractListModel5indexEiiRK11QModelIndex@Qt_6 6.1.2
 _ZNK18QAbstractListModel6parentERK11QModelIndex@Qt_6 6.1.2
 _ZNK18QAbstractListModel7siblingEiiRK11QModelIndex@Qt_6 6.1.2
 _ZNK18QCborValueConstRefixE13QLatin1String@Qt_6 6.4.0
 _ZNK18QCborValueConstRefixERK7QString@Qt_6 6.4.0
 _ZNK18QCborValueConstRefixEx@Qt_6 6.4.0
 _ZNK18QCommandLineOption11descriptionEv@Qt_6 6.1.2
 _ZNK18QCommandLineOption13defaultValuesEv@Qt_6 6.1.2
 _ZNK18QCommandLineOption5flagsEv@Qt_6 6.1.2
 _ZNK18QCommandLineOption5namesEv@Qt_6 6.1.2
 _ZNK18QCommandLineOption9valueNameEv@Qt_6 6.1.2
 _ZNK18QCommandLineParser11optionNamesEv@Qt_6 6.1.2
 _ZNK18QCommandLineParser18unknownOptionNamesEv@Qt_6 6.1.2
 _ZNK18QCommandLineParser19positionalArgumentsEv@Qt_6 6.1.2
 _ZNK18QCommandLineParser22applicationDescriptionEv@Qt_6 6.1.2
 _ZNK18QCommandLineParser5isSetERK18QCommandLineOption@Qt_6 6.1.2
 _ZNK18QCommandLineParser5isSetERK7QString@Qt_6 6.1.2
 _ZNK18QCommandLineParser5valueERK18QCommandLineOption@Qt_6 6.1.2
 _ZNK18QCommandLineParser5valueERK7QString@Qt_6 6.1.2
 _ZNK18QCommandLineParser6valuesERK18QCommandLineOption@Qt_6 6.1.2
 _ZNK18QCommandLineParser6valuesERK7QString@Qt_6 6.1.2
 _ZNK18QCommandLineParser8helpTextEv@Qt_6 6.1.2
 _ZNK18QCommandLineParser9errorTextEv@Qt_6 6.1.2
 _ZNK18QCryptographicHash10resultViewEv@Qt_6 6.3.0
 _ZNK18QCryptographicHash6resultEv@Qt_6 6.1.2
 _ZNK18QFileSystemWatcher10metaObjectEv@Qt_6 6.1.2
 _ZNK18QFileSystemWatcher11directoriesEv@Qt_6 6.1.2
 _ZNK18QFileSystemWatcher5filesEv@Qt_6 6.1.2
 _ZNK18QFutureWatcherBase10isCanceledEv@Qt_6 6.1.2
 _ZNK18QFutureWatcherBase10isFinishedEv@Qt_6 6.1.2
 _ZNK18QFutureWatcherBase10metaObjectEv@Qt_6 6.1.2
 _ZNK18QFutureWatcherBase11isSuspendedEv@Qt_6 6.1.2
 _ZNK18QFutureWatcherBase12isSuspendingEv@Qt_6 6.1.2
 _ZNK18QFutureWatcherBase12progressTextEv@Qt_6 6.1.2
 _ZNK18QFutureWatcherBase13progressValueEv@Qt_6 6.1.2
 _ZNK18QFutureWatcherBase15progressMaximumEv@Qt_6 6.1.2
 _ZNK18QFutureWatcherBase15progressMinimumEv@Qt_6 6.1.2
 _ZNK18QFutureWatcherBase8isPausedEv@Qt_6 6.1.2
 _ZNK18QFutureWatcherBase9isRunningEv@Qt_6 6.1.2
 _ZNK18QFutureWatcherBase9isStartedEv@Qt_6 6.1.2
 _ZNK18QJsonValueConstRef7toArrayEv@Qt_6 6.4.0
 _ZNK18QJsonValueConstRef8toObjectEv@Qt_6 6.4.0
 _ZNK18QJsonValueConstRef9toVariantEv@Qt_6 6.4.0
 _ZNK18QPropertyAnimation10metaObjectEv@Qt_6 6.1.2
 _ZNK18QPropertyAnimation12propertyNameEv@Qt_6 6.1.2
 _ZNK18QPropertyAnimation12targetObjectEv@Qt_6 6.1.2
 _ZNK18QRegularExpression11errorStringEv@Qt_6 6.1.2
 (subst)_ZNK18QRegularExpression11globalMatchE11QStringView{qptrdiff}NS_9MatchTypeE6QFlagsINS_11MatchOptionEE@Qt_6 6.1.2
 (subst)_ZNK18QRegularExpression11globalMatchERK7QString{qptrdiff}NS_9MatchTypeE6QFlagsINS_11MatchOptionEE@Qt_6 6.1.2
 _ZNK18QRegularExpression12captureCountEv@Qt_6 6.1.2
 _ZNK18QRegularExpression14patternOptionsEv@Qt_6 6.1.2
 _ZNK18QRegularExpression18namedCaptureGroupsEv@Qt_6 6.1.2
 _ZNK18QRegularExpression18patternErrorOffsetEv@Qt_6 6.1.2
 (subst)_ZNK18QRegularExpression5matchE11QStringView{qptrdiff}NS_9MatchTypeE6QFlagsINS_11MatchOptionEE@Qt_6 6.1.2
 (subst)_ZNK18QRegularExpression5matchERK7QString{qptrdiff}NS_9MatchTypeE6QFlagsINS_11MatchOptionEE@Qt_6 6.1.2
 _ZNK18QRegularExpression7isValidEv@Qt_6 6.1.2
 _ZNK18QRegularExpression7patternEv@Qt_6 6.1.2
 _ZNK18QRegularExpression8optimizeEv@Qt_6 6.1.2
 _ZNK18QRegularExpressioneqERKS_@Qt_6 6.1.2
 _ZNK18QThreadStorageData3getEv@Qt_6 6.1.2
 _ZNK19QAbstractProxyModel10headerDataEiN2Qt11OrientationEi@Qt_6 6.1.2
 _ZNK19QAbstractProxyModel10metaObjectEv@Qt_6 6.1.2
 _ZNK19QAbstractProxyModel11hasChildrenERK11QModelIndex@Qt_6 6.1.2
 _ZNK19QAbstractProxyModel11sourceModelEv@Qt_6 6.1.2
 _ZNK19QAbstractProxyModel12canFetchMoreERK11QModelIndex@Qt_6 6.1.2
 _ZNK19QAbstractProxyModel15canDropMimeDataEPK9QMimeDataN2Qt10DropActionEiiRK11QModelIndex@Qt_6 6.1.2
 _ZNK19QAbstractProxyModel17createSourceIndexEiiPv@Qt_6 6.2.0
 _ZNK19QAbstractProxyModel20mapSelectionToSourceERK14QItemSelection@Qt_6 6.1.2
 _ZNK19QAbstractProxyModel20supportedDragActionsEv@Qt_6 6.1.2
 _ZNK19QAbstractProxyModel20supportedDropActionsEv@Qt_6 6.1.2
 _ZNK19QAbstractProxyModel22mapSelectionFromSourceERK14QItemSelection@Qt_6 6.1.2
 _ZNK19QAbstractProxyModel4dataERK11QModelIndexi@Qt_6 6.1.2
 _ZNK19QAbstractProxyModel4spanERK11QModelIndex@Qt_6 6.1.2
 _ZNK19QAbstractProxyModel5buddyERK11QModelIndex@Qt_6 6.1.2
 _ZNK19QAbstractProxyModel5flagsERK11QModelIndex@Qt_6 6.1.2
 _ZNK19QAbstractProxyModel7siblingEiiRK11QModelIndex@Qt_6 6.1.2
 _ZNK19QAbstractProxyModel8itemDataERK11QModelIndex@Qt_6 6.1.2
 _ZNK19QAbstractProxyModel8mimeDataERK5QListI11QModelIndexE@Qt_6 6.1.2
 _ZNK19QAbstractProxyModel9mimeTypesEv@Qt_6 6.1.2
 _ZNK19QAbstractProxyModel9roleNamesEv@Qt_6 6.1.2
 _ZNK19QAbstractTableModel10metaObjectEv@Qt_6 6.1.2
 _ZNK19QAbstractTableModel11hasChildrenERK11QModelIndex@Qt_6 6.1.2
 _ZNK19QAbstractTableModel5flagsERK11QModelIndex@Qt_6 6.1.2
 _ZNK19QAbstractTableModel5indexEiiRK11QModelIndex@Qt_6 6.1.2
 _ZNK19QAbstractTableModel6parentERK11QModelIndex@Qt_6 6.1.2
 _ZNK19QAbstractTableModel7siblingEiiRK11QModelIndex@Qt_6 6.1.2
 _ZNK19QIdentityProxyModel10headerDataEiN2Qt11OrientationEi@Qt_6 6.1.2
 _ZNK19QIdentityProxyModel10metaObjectEv@Qt_6 6.1.2
 _ZNK19QIdentityProxyModel11columnCountERK11QModelIndex@Qt_6 6.1.2
 _ZNK19QIdentityProxyModel11mapToSourceERK11QModelIndex@Qt_6 6.1.2
 _ZNK19QIdentityProxyModel13mapFromSourceERK11QModelIndex@Qt_6 6.1.2
 _ZNK19QIdentityProxyModel20mapSelectionToSourceERK14QItemSelection@Qt_6 6.1.2
 _ZNK19QIdentityProxyModel22mapSelectionFromSourceERK14QItemSelection@Qt_6 6.1.2
 _ZNK19QIdentityProxyModel5indexEiiRK11QModelIndex@Qt_6 6.1.2
 _ZNK19QIdentityProxyModel5matchERK11QModelIndexiRK8QVarianti6QFlagsIN2Qt9MatchFlagEE@Qt_6 6.1.2
 _ZNK19QIdentityProxyModel6parentERK11QModelIndex@Qt_6 6.1.2
 _ZNK19QIdentityProxyModel7siblingEiiRK11QModelIndex@Qt_6 6.1.2
 _ZNK19QIdentityProxyModel8rowCountERK11QModelIndex@Qt_6 6.1.2
 _ZNK19QItemSelectionModel10isSelectedERK11QModelIndex@Qt_6 6.1.2
 _ZNK19QItemSelectionModel10metaObjectEv@Qt_6 6.1.2
 _ZNK19QItemSelectionModel12currentIndexEv@Qt_6 6.1.2
 _ZNK19QItemSelectionModel12hasSelectionEv@Qt_6 6.1.2
 _ZNK19QItemSelectionModel12selectedRowsEi@Qt_6 6.1.2
 _ZNK19QItemSelectionModel13isRowSelectedEiRK11QModelIndex@Qt_6 6.1.2
 _ZNK19QItemSelectionModel15selectedColumnsEi@Qt_6 6.1.2
 _ZNK19QItemSelectionModel15selectedIndexesEv@Qt_6 6.1.2
 _ZNK19QItemSelectionModel16isColumnSelectedEiRK11QModelIndex@Qt_6 6.1.2
 _ZNK19QItemSelectionModel22rowIntersectsSelectionEiRK11QModelIndex@Qt_6 6.1.2
 _ZNK19QItemSelectionModel25columnIntersectsSelectionEiRK11QModelIndex@Qt_6 6.1.2
 _ZNK19QItemSelectionModel5modelEv@Qt_6 6.1.2
 _ZNK19QItemSelectionModel9selectionEv@Qt_6 6.1.2
 _ZNK19QItemSelectionRange10intersectsERKS_@Qt_6 6.1.2
 _ZNK19QItemSelectionRange11intersectedERKS_@Qt_6 6.1.2
 _ZNK19QItemSelectionRange7indexesEv@Qt_6 6.1.2
 _ZNK19QItemSelectionRange7isEmptyEv@Qt_6 6.1.2
 _ZNK19QProcessEnvironment12toStringListEv@Qt_6 6.1.2
 _ZNK19QProcessEnvironment18inheritsFromParentEv@Qt_6 6.3.0
 _ZNK19QProcessEnvironment4keysEv@Qt_6 6.1.2
 _ZNK19QProcessEnvironment5valueERK7QStringS2_@Qt_6 6.1.2
 _ZNK19QProcessEnvironment7isEmptyEv@Qt_6 6.1.2
 _ZNK19QProcessEnvironment8containsERK7QString@Qt_6 6.1.2
 _ZNK19QProcessEnvironmenteqERKS_@Qt_6 6.1.2
 _ZNK19QSequentialIterable13valueMetaTypeEv@Qt_6 6.1.2
 (subst)_ZNK19QSequentialIterable2atE{qptrdiff}@Qt_6 6.1.2
 _ZNK19QSequentialIteratordeEv@Qt_6 6.1.2
 _ZNK19QSequentialIteratorptEv@Qt_6 6.1.2
 _ZNK19QTextBoundaryFinder12isAtBoundaryEv@Qt_6 6.1.2
 _ZNK19QTextBoundaryFinder15boundaryReasonsEv@Qt_6 6.1.2
 _ZNK19QTextBoundaryFinder6stringEv@Qt_6 6.1.2
 _ZNK19QTextBoundaryFinder8positionEv@Qt_6 6.1.2
 _ZNK19QUnhandledException5cloneEv@Qt_6 6.1.2
 _ZNK19QUnhandledException5raiseEv@Qt_6 6.1.2
 _ZNK19QUnhandledException9exceptionEv@Qt_6 6.1.2
 _ZNK20QAssociativeIterable4findERK8QVariant@Qt_6 6.1.2
 _ZNK20QAssociativeIterable5valueERK8QVariant@Qt_6 6.1.2
 _ZNK20QAssociativeIterator3keyEv@Qt_6 6.1.2
 _ZNK20QAssociativeIterator5valueEv@Qt_6 6.1.2
 _ZNK20QAssociativeIteratordeEv@Qt_6 6.1.2
 _ZNK20QAssociativeIteratorptEv@Qt_6 6.1.2
 _ZNK20QDeferredDeleteEvent5cloneEv@Qt_6 6.4.0
 _ZNK20QFutureInterfaceBase10isCanceledEv@Qt_6 6.1.2
 _ZNK20QFutureInterfaceBase10isFinishedEv@Qt_6 6.1.2
 _ZNK20QFutureInterfaceBase10queryStateENS_5StateE@Qt_6 6.1.2
 _ZNK20QFutureInterfaceBase10threadPoolEv@Qt_6 6.1.2
 _ZNK20QFutureInterfaceBase11isSuspendedEv@Qt_6 6.1.2
 _ZNK20QFutureInterfaceBase11isThrottledEv@Qt_6 6.1.2
 _ZNK20QFutureInterfaceBase11launchAsyncEv@Qt_6 6.1.2
 _ZNK20QFutureInterfaceBase11resultCountEv@Qt_6 6.1.2
 _ZNK20QFutureInterfaceBase12hasExceptionEv@Qt_6 6.3.0
 _ZNK20QFutureInterfaceBase12isSuspendingEv@Qt_6 6.1.2
 _ZNK20QFutureInterfaceBase12progressTextEv@Qt_6 6.1.2
 _ZNK20QFutureInterfaceBase13progressValueEv@Qt_6 6.1.2
 _ZNK20QFutureInterfaceBase15isChainCanceledEv@Qt_6 6.2.4
 _ZNK20QFutureInterfaceBase15isResultReadyAtEi@Qt_6 6.1.2
 _ZNK20QFutureInterfaceBase15progressMaximumEv@Qt_6 6.1.2
 _ZNK20QFutureInterfaceBase15progressMinimumEv@Qt_6 6.1.2
 _ZNK20QFutureInterfaceBase15reportSuspendedEv@Qt_6 6.1.2
 _ZNK20QFutureInterfaceBase15resultStoreBaseEv@Qt_6 6.1.2
 _ZNK20QFutureInterfaceBase15runContinuationEv@Qt_6 6.1.2
 _ZNK20QFutureInterfaceBase18isRunningOrPendingEv@Qt_6 6.1.2
 _ZNK20QFutureInterfaceBase22isProgressUpdateNeededEv@Qt_6 6.1.2
 _ZNK20QFutureInterfaceBase4refTEv@Qt_6 6.1.2
 _ZNK20QFutureInterfaceBase5mutexEv@Qt_6 6.1.2
 _ZNK20QFutureInterfaceBase6derefTEv@Qt_6 6.1.2
 _ZNK20QFutureInterfaceBase7isValidEv@Qt_6 6.1.2
 _ZNK20QFutureInterfaceBase8isPausedEv@Qt_6 6.1.2
 _ZNK20QFutureInterfaceBase9isRunningEv@Qt_6 6.1.2
 _ZNK20QFutureInterfaceBase9isStartedEv@Qt_6 6.1.2
 _ZNK20QFutureInterfaceBase9loadStateEv@Qt_6 6.1.2
 _ZNK20QTransposeProxyModel10headerDataEiN2Qt11OrientationEi@Qt_6 6.1.2
 _ZNK20QTransposeProxyModel10metaObjectEv@Qt_6 6.1.2
 _ZNK20QTransposeProxyModel11columnCountERK11QModelIndex@Qt_6 6.1.2
 _ZNK20QTransposeProxyModel11mapToSourceERK11QModelIndex@Qt_6 6.1.2
 _ZNK20QTransposeProxyModel13mapFromSourceERK11QModelIndex@Qt_6 6.1.2
 _ZNK20QTransposeProxyModel4spanERK11QModelIndex@Qt_6 6.1.2
 _ZNK20QTransposeProxyModel5indexEiiRK11QModelIndex@Qt_6 6.1.2
 _ZNK20QTransposeProxyModel6parentERK11QModelIndex@Qt_6 6.1.2
 _ZNK20QTransposeProxyModel8itemDataERK11QModelIndex@Qt_6 6.1.2
 _ZNK20QTransposeProxyModel8rowCountERK11QModelIndex@Qt_6 6.1.2
 _ZNK20QVariantConstPointerdeEv@Qt_6 6.1.2
 _ZNK20QVariantConstPointerptEv@Qt_6 6.1.2
 _ZNK20QXmlStreamAttributes5valueE13QLatin1String@Qt_6 6.1.2
 _ZNK20QXmlStreamAttributes5valueE13QLatin1StringS0_@Qt_6 6.1.2
 _ZNK20QXmlStreamAttributes5valueERK7QString13QLatin1String@Qt_6 6.1.2
 _ZNK20QXmlStreamAttributes5valueERK7QString@Qt_6 6.1.2
 _ZNK20QXmlStreamAttributes5valueERK7QStringS2_@Qt_6 6.1.2
 _ZNK21QObjectCleanupHandler10metaObjectEv@Qt_6 6.1.2
 _ZNK21QObjectCleanupHandler7isEmptyEv@Qt_6 6.1.2
 _ZNK21QPersistentModelIndex10internalIdEv@Qt_6 6.1.2
 _ZNK21QPersistentModelIndex15internalPointerEv@Qt_6 6.1.2
 _ZNK21QPersistentModelIndex20constInternalPointerEv@Qt_6 6.1.2
 _ZNK21QPersistentModelIndex3rowEv@Qt_6 6.1.2
 _ZNK21QPersistentModelIndex4dataEi@Qt_6 6.1.2
 _ZNK21QPersistentModelIndex5flagsEv@Qt_6 6.1.2
 _ZNK21QPersistentModelIndex5modelEv@Qt_6 6.1.2
 _ZNK21QPersistentModelIndex6columnEv@Qt_6 6.1.2
 _ZNK21QPersistentModelIndex6parentEv@Qt_6 6.1.2
 _ZNK21QPersistentModelIndex7isValidEv@Qt_6 6.1.2
 _ZNK21QPersistentModelIndex7siblingEii@Qt_6 6.1.2
 _ZNK21QPersistentModelIndex9multiDataE18QModelRoleDataSpan@Qt_6 6.1.2
 _ZNK21QPersistentModelIndexcv11QModelIndexEv@Qt_6 6.1.2
 _ZNK21QPersistentModelIndexeqERK11QModelIndex@Qt_6 6.1.2
 _ZNK21QPersistentModelIndexeqERKS_@Qt_6 6.1.2
 _ZNK21QPersistentModelIndexltERKS_@Qt_6 6.1.2
 _ZNK21QPersistentModelIndexneERK11QModelIndex@Qt_6 6.1.2
 _ZNK21QPropertyBindingError11descriptionEv@Qt_6 6.1.2
 _ZNK21QPropertyBindingError4typeEv@Qt_6 6.1.2
 _ZNK21QSortFilterProxyModel10filterRoleEv@Qt_6 6.1.2
 _ZNK21QSortFilterProxyModel10headerDataEiN2Qt11OrientationEi@Qt_6 6.1.2
 _ZNK21QSortFilterProxyModel10metaObjectEv@Qt_6 6.1.2
 _ZNK21QSortFilterProxyModel10sortColumnEv@Qt_6 6.1.2
 _ZNK21QSortFilterProxyModel11columnCountERK11QModelIndex@Qt_6 6.1.2
 _ZNK21QSortFilterProxyModel11hasChildrenERK11QModelIndex@Qt_6 6.1.2
 _ZNK21QSortFilterProxyModel11mapToSourceERK11QModelIndex@Qt_6 6.1.2
 _ZNK21QSortFilterProxyModel12canFetchMoreERK11QModelIndex@Qt_6 6.1.2
 _ZNK21QSortFilterProxyModel13mapFromSourceERK11QModelIndex@Qt_6 6.1.2
 _ZNK21QSortFilterProxyModel15filterKeyColumnEv@Qt_6 6.1.2
 _ZNK21QSortFilterProxyModel16filterAcceptsRowEiRK11QModelIndex@Qt_6 6.1.2
 _ZNK21QSortFilterProxyModel17dynamicSortFilterEv@Qt_6 6.1.2
 _ZNK21QSortFilterProxyModel17isSortLocaleAwareEv@Qt_6 6.1.2
 _ZNK21QSortFilterProxyModel19autoAcceptChildRowsEv@Qt_6 6.1.2
 _ZNK21QSortFilterProxyModel19filterAcceptsColumnEiRK11QModelIndex@Qt_6 6.1.2
 _ZNK21QSortFilterProxyModel19sortCaseSensitivityEv@Qt_6 6.1.2
 _ZNK21QSortFilterProxyModel20mapSelectionToSourceERK14QItemSelection@Qt_6 6.1.2
 _ZNK21QSortFilterProxyModel20supportedDropActionsEv@Qt_6 6.1.2
 _ZNK21QSortFilterProxyModel21filterCaseSensitivityEv@Qt_6 6.1.2
 _ZNK21QSortFilterProxyModel22mapSelectionFromSourceERK14QItemSelection@Qt_6 6.1.2
 _ZNK21QSortFilterProxyModel23filterRegularExpressionEv@Qt_6 6.1.2
 _ZNK21QSortFilterProxyModel27isRecursiveFilteringEnabledEv@Qt_6 6.1.2
 _ZNK21QSortFilterProxyModel4dataERK11QModelIndexi@Qt_6 6.1.2
 _ZNK21QSortFilterProxyModel4spanERK11QModelIndex@Qt_6 6.1.2
 _ZNK21QSortFilterProxyModel5buddyERK11QModelIndex@Qt_6 6.1.2
 _ZNK21QSortFilterProxyModel5flagsERK11QModelIndex@Qt_6 6.1.2
 _ZNK21QSortFilterProxyModel5indexEiiRK11QModelIndex@Qt_6 6.1.2
 _ZNK21QSortFilterProxyModel5matchERK11QModelIndexiRK8QVarianti6QFlagsIN2Qt9MatchFlagEE@Qt_6 6.1.2
 _ZNK21QSortFilterProxyModel6parentERK11QModelIndex@Qt_6 6.1.2
 _ZNK21QSortFilterProxyModel7siblingEiiRK11QModelIndex@Qt_6 6.1.2
 _ZNK21QSortFilterProxyModel8lessThanERK11QModelIndexS2_@Qt_6 6.1.2
 _ZNK21QSortFilterProxyModel8mimeDataERK5QListI11QModelIndexE@Qt_6 6.1.2
 _ZNK21QSortFilterProxyModel8rowCountERK11QModelIndex@Qt_6 6.1.2
 _ZNK21QSortFilterProxyModel8sortRoleEv@Qt_6 6.1.2
 _ZNK21QSortFilterProxyModel9mimeTypesEv@Qt_6 6.1.2
 _ZNK21QSortFilterProxyModel9sortOrderEv@Qt_6 6.1.2
 _ZNK23QOperatingSystemVersion11isAnyOfTypeESt16initializer_listINS_6OSTypeEE@Qt_6 6.1.2
 _ZNK23QOperatingSystemVersion4nameEv@Qt_6 6.1.2
 _ZNK23QParallelAnimationGroup10metaObjectEv@Qt_6 6.1.2
 _ZNK23QParallelAnimationGroup8durationEv@Qt_6 6.1.2
 _ZNK23QRegularExpressionMatch11capturedEndE11QStringView@Qt_6 6.1.2
 _ZNK23QRegularExpressionMatch11capturedEndEi@Qt_6 6.1.2
 _ZNK23QRegularExpressionMatch11hasCapturedE11QStringView@Qt_6 6.3.0
 _ZNK23QRegularExpressionMatch11hasCapturedEi@Qt_6 6.3.0
 _ZNK23QRegularExpressionMatch12capturedViewE11QStringView@Qt_6 6.1.2
 _ZNK23QRegularExpressionMatch12capturedViewEi@Qt_6 6.1.2
 _ZNK23QRegularExpressionMatch12matchOptionsEv@Qt_6 6.1.2
 _ZNK23QRegularExpressionMatch13capturedStartE11QStringView@Qt_6 6.1.2
 _ZNK23QRegularExpressionMatch13capturedStartEi@Qt_6 6.1.2
 _ZNK23QRegularExpressionMatch13capturedTextsEv@Qt_6 6.1.2
 _ZNK23QRegularExpressionMatch14capturedLengthE11QStringView@Qt_6 6.1.2
 _ZNK23QRegularExpressionMatch14capturedLengthEi@Qt_6 6.1.2
 _ZNK23QRegularExpressionMatch15hasPartialMatchEv@Qt_6 6.1.2
 _ZNK23QRegularExpressionMatch17lastCapturedIndexEv@Qt_6 6.1.2
 _ZNK23QRegularExpressionMatch17regularExpressionEv@Qt_6 6.1.2
 _ZNK23QRegularExpressionMatch7isValidEv@Qt_6 6.1.2
 _ZNK23QRegularExpressionMatch8capturedE11QStringView@Qt_6 6.1.2
 _ZNK23QRegularExpressionMatch8capturedEi@Qt_6 6.1.2
 _ZNK23QRegularExpressionMatch8hasMatchEv@Qt_6 6.1.2
 _ZNK23QRegularExpressionMatch9matchTypeEv@Qt_6 6.1.2
 _ZNK23QUntypedPropertyBinding13valueMetaTypeEv@Qt_6 6.1.2
 _ZNK23QUntypedPropertyBinding5errorEv@Qt_6 6.1.2
 _ZNK23QUntypedPropertyBinding6isNullEv@Qt_6 6.1.2
 _ZNK24QAbstractEventDispatcher10metaObjectEv@Qt_6 6.1.2
 _ZNK24QSequentialConstIteratordeEv@Qt_6 6.1.2
 _ZNK24QSequentialConstIteratorptEv@Qt_6 6.1.2
 _ZNK25QAssociativeConstIterator3keyEv@Qt_6 6.1.2
 _ZNK25QAssociativeConstIterator5valueEv@Qt_6 6.1.2
 _ZNK25QAssociativeConstIteratordeEv@Qt_6 6.1.2
 _ZNK25QAssociativeConstIteratorptEv@Qt_6 6.1.2
 _ZNK25QSequentialAnimationGroup10metaObjectEv@Qt_6 6.1.2
 _ZNK25QSequentialAnimationGroup16currentAnimationEv@Qt_6 6.1.2
 _ZNK25QSequentialAnimationGroup24bindableCurrentAnimationEv@Qt_6 6.2.0
 _ZNK25QSequentialAnimationGroup8durationEv@Qt_6 6.1.2
 _ZNK26QMessageAuthenticationCode6resultEv@Qt_6 6.1.2
 _ZNK27QDynamicPropertyChangeEvent5cloneEv@Qt_6 6.4.0
 _ZNK27QStaticByteArrayMatcherBase9indexOfInEPKcjS1_ii@Qt_6 6.1.2
 (arch=amd64 arm64 ia64 mips64el ppc64 ppc64el riscv64 s390x sparc64)_ZNK27QStaticByteArrayMatcherBase9indexOfInEPKcmS1_xx@Qt_6 6.3.0
 _ZNK28QConcatenateTablesProxyModel10headerDataEiN2Qt11OrientationEi@Qt_6 6.1.2
 _ZNK28QConcatenateTablesProxyModel10metaObjectEv@Qt_6 6.1.2
 _ZNK28QConcatenateTablesProxyModel11columnCountERK11QModelIndex@Qt_6 6.1.2
 _ZNK28QConcatenateTablesProxyModel11mapToSourceERK11QModelIndex@Qt_6 6.1.2
 _ZNK28QConcatenateTablesProxyModel12sourceModelsEv@Qt_6 6.1.2
 _ZNK28QConcatenateTablesProxyModel13mapFromSourceERK11QModelIndex@Qt_6 6.1.2
 _ZNK28QConcatenateTablesProxyModel15canDropMimeDataEPK9QMimeDataN2Qt10DropActionEiiRK11QModelIndex@Qt_6 6.1.2
 _ZNK28QConcatenateTablesProxyModel4dataERK11QModelIndexi@Qt_6 6.1.2
 _ZNK28QConcatenateTablesProxyModel4spanERK11QModelIndex@Qt_6 6.1.2
 _ZNK28QConcatenateTablesProxyModel5flagsERK11QModelIndex@Qt_6 6.1.2
 _ZNK28QConcatenateTablesProxyModel5indexEiiRK11QModelIndex@Qt_6 6.1.2
 _ZNK28QConcatenateTablesProxyModel6parentERK11QModelIndex@Qt_6 6.1.2
 _ZNK28QConcatenateTablesProxyModel8itemDataERK11QModelIndex@Qt_6 6.1.2
 _ZNK28QConcatenateTablesProxyModel8mimeDataERK5QListI11QModelIndexE@Qt_6 6.1.2
 _ZNK28QConcatenateTablesProxyModel8rowCountERK11QModelIndex@Qt_6 6.1.2
 _ZNK28QConcatenateTablesProxyModel9mimeTypesEv@Qt_6 6.1.2
 _ZNK31QRegularExpressionMatchIterator12matchOptionsEv@Qt_6 6.1.2
 _ZNK31QRegularExpressionMatchIterator17regularExpressionEv@Qt_6 6.1.2
 _ZNK31QRegularExpressionMatchIterator7hasNextEv@Qt_6 6.1.2
 _ZNK31QRegularExpressionMatchIterator7isValidEv@Qt_6 6.1.2
 _ZNK31QRegularExpressionMatchIterator8peekNextEv@Qt_6 6.1.2
 _ZNK31QRegularExpressionMatchIterator9matchTypeEv@Qt_6 6.1.2
 _ZNK4QDir10isReadableEv@Qt_6 6.1.2
 _ZNK4QDir10isRelativeEv@Qt_6 6.1.2
 _ZNK4QDir11nameFiltersEv@Qt_6 6.1.2
 _ZNK4QDir12absolutePathEv@Qt_6 6.1.2
 _ZNK4QDir13canonicalPathEv@Qt_6 6.1.2
 _ZNK4QDir13entryInfoListE6QFlagsINS_6FilterEES0_INS_8SortFlagEE@Qt_6 6.1.2
 _ZNK4QDir13entryInfoListERK5QListI7QStringE6QFlagsINS_6FilterEES5_INS_8SortFlagEE@Qt_6 6.1.2
 _ZNK4QDir16absoluteFilePathERK7QString@Qt_6 6.1.2
 _ZNK4QDir16relativeFilePathERK7QString@Qt_6 6.1.2
 _ZNK4QDir4pathEv@Qt_6 6.1.2
 _ZNK4QDir5countEv@Qt_6 6.1.2
 _ZNK4QDir5mkdirERK7QString6QFlagsIN11QFileDevice10PermissionEE@Qt_6 6.3.0
 _ZNK4QDir5mkdirERK7QString@Qt_6 6.1.2
 _ZNK4QDir5rmdirERK7QString@Qt_6 6.1.2
 _ZNK4QDir6existsERK7QString@Qt_6 6.1.2
 _ZNK4QDir6existsEv@Qt_6 6.1.2
 _ZNK4QDir6filterEv@Qt_6 6.1.2
 _ZNK4QDir6isRootEv@Qt_6 6.1.2
 _ZNK4QDir6mkpathERK7QString@Qt_6 6.1.2
 _ZNK4QDir6rmpathERK7QString@Qt_6 6.1.2
 _ZNK4QDir7dirNameEv@Qt_6 6.1.2
 _ZNK4QDir7isEmptyE6QFlagsINS_6FilterEE@Qt_6 6.1.2
 _ZNK4QDir7refreshEv@Qt_6 6.1.2
 _ZNK4QDir7sortingEv@Qt_6 6.1.2
 _ZNK4QDir8filePathERK7QString@Qt_6 6.1.2
 _ZNK4QDir9entryListE6QFlagsINS_6FilterEES0_INS_8SortFlagEE@Qt_6 6.1.2
 _ZNK4QDir9entryListERK5QListI7QStringE6QFlagsINS_6FilterEES5_INS_8SortFlagEE@Qt_6 6.1.2
 _ZNK4QDireqERKS_@Qt_6 6.1.2
 _ZNK4QDirixEi@Qt_6 6.1.2
 _ZNK4QUrl10isDetachedEv@Qt_6 6.1.2
 _ZNK4QUrl10isParentOfERKS_@Qt_6 6.1.2
 _ZNK4QUrl10isRelativeEv@Qt_6 6.1.2
 _ZNK4QUrl11errorStringEv@Qt_6 6.1.2
 _ZNK4QUrl11hasFragmentEv@Qt_6 6.1.2
 _ZNK4QUrl11isLocalFileEv@Qt_6 6.1.2
 _ZNK4QUrl11toLocalFileEv@Qt_6 6.1.2
 _ZNK4QUrl15toDisplayStringE12QUrlTwoFlagsINS_19UrlFormattingOptionENS_25ComponentFormattingOptionEE@Qt_6 6.1.2
 _ZNK4QUrl3urlE12QUrlTwoFlagsINS_19UrlFormattingOptionENS_25ComponentFormattingOptionEE@Qt_6 6.1.2
 _ZNK4QUrl4hostE6QFlagsINS_25ComponentFormattingOptionEE@Qt_6 6.1.2
 _ZNK4QUrl4pathE6QFlagsINS_25ComponentFormattingOptionEE@Qt_6 6.1.2
 _ZNK4QUrl4portEi@Qt_6 6.1.2
 _ZNK4QUrl5queryE6QFlagsINS_25ComponentFormattingOptionEE@Qt_6 6.1.2
 _ZNK4QUrl6schemeEv@Qt_6 6.1.2
 _ZNK4QUrl7isEmptyEv@Qt_6 6.1.2
 _ZNK4QUrl7isValidEv@Qt_6 6.1.2
 _ZNK4QUrl7matchesERKS_12QUrlTwoFlagsINS_19UrlFormattingOptionENS_25ComponentFormattingOptionEE@Qt_6 6.1.2
 _ZNK4QUrl8adjustedE12QUrlTwoFlagsINS_19UrlFormattingOptionENS_25ComponentFormattingOptionEE@Qt_6 6.1.2
 _ZNK4QUrl8fileNameE6QFlagsINS_25ComponentFormattingOptionEE@Qt_6 6.1.2
 _ZNK4QUrl8fragmentE6QFlagsINS_25ComponentFormattingOptionEE@Qt_6 6.1.2
 _ZNK4QUrl8hasQueryEv@Qt_6 6.1.2
 _ZNK4QUrl8passwordE6QFlagsINS_25ComponentFormattingOptionEE@Qt_6 6.1.2
 _ZNK4QUrl8resolvedERKS_@Qt_6 6.1.2
 _ZNK4QUrl8toStringE12QUrlTwoFlagsINS_19UrlFormattingOptionENS_25ComponentFormattingOptionEE@Qt_6 6.1.2
 _ZNK4QUrl8userInfoE6QFlagsINS_25ComponentFormattingOptionEE@Qt_6 6.1.2
 _ZNK4QUrl8userNameE6QFlagsINS_25ComponentFormattingOptionEE@Qt_6 6.1.2
 _ZNK4QUrl9authorityE6QFlagsINS_25ComponentFormattingOptionEE@Qt_6 6.1.2
 _ZNK4QUrl9toEncodedE12QUrlTwoFlagsINS_19UrlFormattingOptionENS_25ComponentFormattingOptionEE@Qt_6 6.1.2
 _ZNK4QUrleqERKS_@Qt_6 6.1.2
 _ZNK4QUrlltERKS_@Qt_6 6.1.2
 _ZNK4QUrlneERKS_@Qt_6 6.1.2
 _ZNK5QChar13decompositionEv@Qt_6 6.1.2
 _ZNK5QDate10daysInYearE9QCalendar@Qt_6 6.1.2
 _ZNK5QDate10daysInYearEv@Qt_6 6.1.2
 _ZNK5QDate10startOfDayEN2Qt8TimeSpecEi@Qt_6 6.1.2
 _ZNK5QDate10startOfDayERK9QTimeZone@Qt_6 6.1.2
 _ZNK5QDate10weekNumberEPi@Qt_6 6.1.2
 _ZNK5QDate11daysInMonthE9QCalendar@Qt_6 6.1.2
 _ZNK5QDate11daysInMonthEv@Qt_6 6.1.2
 _ZNK5QDate3dayE9QCalendar@Qt_6 6.1.2
 _ZNK5QDate3dayEv@Qt_6 6.1.2
 _ZNK5QDate4yearE9QCalendar@Qt_6 6.1.2
 _ZNK5QDate4yearEv@Qt_6 6.1.2
 _ZNK5QDate5monthE9QCalendar@Qt_6 6.1.2
 _ZNK5QDate5monthEv@Qt_6 6.1.2
 _ZNK5QDate6daysToES_@Qt_6 6.1.2
 _ZNK5QDate7addDaysEx@Qt_6 6.1.2
 _ZNK5QDate7getDateEPiS0_S0_@Qt_6 6.1.2
 _ZNK5QDate8addYearsEi9QCalendar@Qt_6 6.1.2
 _ZNK5QDate8addYearsEi@Qt_6 6.1.2
 _ZNK5QDate8endOfDayEN2Qt8TimeSpecEi@Qt_6 6.1.2
 _ZNK5QDate8endOfDayERK9QTimeZone@Qt_6 6.1.2
 _ZNK5QDate8toStringE11QStringView9QCalendar@Qt_6 6.1.2
 _ZNK5QDate8toStringEN2Qt10DateFormatE@Qt_6 6.1.2
 _ZNK5QDate9addMonthsEi9QCalendar@Qt_6 6.1.2
 _ZNK5QDate9addMonthsEi@Qt_6 6.1.2
 _ZNK5QDate9dayOfWeekE9QCalendar@Qt_6 6.1.2
 _ZNK5QDate9dayOfWeekEv@Qt_6 6.1.2
 _ZNK5QDate9dayOfYearE9QCalendar@Qt_6 6.1.2
 _ZNK5QDate9dayOfYearEv@Qt_6 6.1.2
 _ZNK5QFile10metaObjectEv@Qt_6 6.1.2
 _ZNK5QFile11permissionsEv@Qt_6 6.1.2
 _ZNK5QFile13symLinkTargetEv@Qt_6 6.1.2
 _ZNK5QFile4sizeEv@Qt_6 6.1.2
 _ZNK5QFile6existsEv@Qt_6 6.1.2
 _ZNK5QFile8fileNameEv@Qt_6 6.1.2
 _ZNK5QRect10intersectsERKS_@Qt_6 6.1.2
 _ZNK5QRect10normalizedEv@Qt_6 6.1.2
 _ZNK5QRect8containsERK6QPointb@Qt_6 6.1.2
 _ZNK5QRect8containsERKS_b@Qt_6 6.1.2
 _ZNK5QRectanERKS_@Qt_6 6.1.2
 _ZNK5QRectorERKS_@Qt_6 6.1.2
 _ZNK5QSize6scaledERKS_N2Qt15AspectRatioModeE@Qt_6 6.1.2
 _ZNK5QTime4hourEv@Qt_6 6.1.2
 _ZNK5QTime4msecEv@Qt_6 6.1.2
 _ZNK5QTime6minuteEv@Qt_6 6.1.2
 _ZNK5QTime6secondEv@Qt_6 6.1.2
 _ZNK5QTime6secsToES_@Qt_6 6.1.2
 _ZNK5QTime7addSecsEi@Qt_6 6.1.2
 _ZNK5QTime7isValidEv@Qt_6 6.1.2
 _ZNK5QTime7msecsToES_@Qt_6 6.1.2
 _ZNK5QTime8addMSecsEi@Qt_6 6.1.2
 _ZNK5QTime8toStringE11QStringView@Qt_6 6.1.2
 _ZNK5QTime8toStringEN2Qt10DateFormatE@Qt_6 6.1.2
 _ZNK5QUuid11toByteArrayENS_12StringFormatE@Qt_6 6.1.2
 _ZNK5QUuid6isNullEv@Qt_6 6.1.2
 _ZNK5QUuid7variantEv@Qt_6 6.1.2
 _ZNK5QUuid7versionEv@Qt_6 6.1.2
 _ZNK5QUuid8toStringENS_12StringFormatE@Qt_6 6.1.2
 _ZNK5QUuid9toRfc4122Ev@Qt_6 6.1.2
 _ZNK5QUuidgtERKS_@Qt_6 6.1.2
 _ZNK5QUuidltERKS_@Qt_6 6.1.2
 _ZNK6QEvent5cloneEv@Qt_6 6.1.2
 _ZNK6QLineF10intersectsERKS_P7QPointF@Qt_6 6.1.2
 _ZNK6QLineF10unitVectorEv@Qt_6 6.1.2
 _ZNK6QLineF5angleEv@Qt_6 6.1.2
 _ZNK6QLineF6lengthEv@Qt_6 6.1.2
 _ZNK6QLineF7angleToERKS_@Qt_6 6.1.2
 _ZNK6QRectF10intersectsERKS_@Qt_6 6.1.2
 _ZNK6QRectF10normalizedEv@Qt_6 6.1.2
 _ZNK6QRectF13toAlignedRectEv@Qt_6 6.1.2
 _ZNK6QRectF8containsERK7QPointF@Qt_6 6.1.2
 _ZNK6QRectF8containsERKS_@Qt_6 6.1.2
 _ZNK6QRectFanERKS_@Qt_6 6.1.2
 _ZNK6QRectForERKS_@Qt_6 6.1.2
 _ZNK6QSizeF6scaledERKS_N2Qt15AspectRatioModeE@Qt_6 6.1.2
 _ZNK6QTimer10metaObjectEv@Qt_6 6.1.2
 _ZNK6QTimer12isSingleShotEv@Qt_6 6.1.2
 _ZNK6QTimer13remainingTimeEv@Qt_6 6.1.2
 _ZNK6QTimer7timerIdEv@Qt_6 6.1.2
 _ZNK6QTimer8intervalEv@Qt_6 6.1.2
 _ZNK6QTimer8isActiveEv@Qt_6 6.1.2
 _ZNK6QTimer9timerTypeEv@Qt_6 6.1.2
 _ZNK7QBuffer10metaObjectEv@Qt_6 6.1.2
 _ZNK7QBuffer11canReadLineEv@Qt_6 6.1.2
 _ZNK7QBuffer3posEv@Qt_6 6.1.2
 _ZNK7QBuffer4dataEv@Qt_6 6.1.2
 _ZNK7QBuffer4sizeEv@Qt_6 6.1.2
 _ZNK7QBuffer5atEndEv@Qt_6 6.1.2
 _ZNK7QBuffer6bufferEv@Qt_6 6.1.2
 _ZNK7QLocale10dateFormatENS_10FormatTypeE@Qt_6 6.1.2
 _ZNK7QLocale10timeFormatENS_10FormatTypeE@Qt_6 6.1.2
 _ZNK7QLocale10toDateTimeERK7QStringNS_10FormatTypeE9QCalendar@Qt_6 6.1.2
 _ZNK7QLocale10toDateTimeERK7QStringNS_10FormatTypeE@Qt_6 6.1.2
 _ZNK7QLocale10toDateTimeERK7QStringS2_9QCalendar@Qt_6 6.1.2
 _ZNK7QLocale10toDateTimeERK7QStringS2_@Qt_6 6.1.2
 _ZNK7QLocale10toLongLongE11QStringViewPb@Qt_6 6.1.2
 _ZNK7QLocale11exponentialEv@Qt_6 6.1.2
 _ZNK7QLocale11quoteStringE11QStringViewNS_14QuotationStyleE@Qt_6 6.1.2
 _ZNK7QLocale11toULongLongE11QStringViewPb@Qt_6 6.1.2
 _ZNK7QLocale11uiLanguagesEv@Qt_6 6.1.2
 _ZNK7QLocale12decimalPointEv@Qt_6 6.1.2
 _ZNK7QLocale12negativeSignEv@Qt_6 6.1.2
 _ZNK7QLocale12positiveSignEv@Qt_6 6.1.2
 _ZNK7QLocale13numberOptionsEv@Qt_6 6.1.2
 _ZNK7QLocale13textDirectionEv@Qt_6 6.1.2
 _ZNK7QLocale14currencySymbolENS_20CurrencySymbolFormatE@Qt_6 6.1.2
 _ZNK7QLocale14dateTimeFormatENS_10FormatTypeE@Qt_6 6.1.2
 _ZNK7QLocale14firstDayOfWeekEv@Qt_6 6.1.2
 _ZNK7QLocale14groupSeparatorEv@Qt_6 6.1.2
 _ZNK7QLocale16toCurrencyStringEdRK7QStringi@Qt_6 6.1.2
 _ZNK7QLocale16toCurrencyStringExRK7QString@Qt_6 6.1.2
 _ZNK7QLocale16toCurrencyStringEyRK7QString@Qt_6 6.1.2
 _ZNK7QLocale17formattedDataSizeExi6QFlagsINS_14DataSizeFormatEE@Qt_6 6.1.2
 _ZNK7QLocale17measurementSystemEv@Qt_6 6.1.2
 _ZNK7QLocale17nativeCountryNameEv@Qt_6 6.1.2
 _ZNK7QLocale17standaloneDayNameEiNS_10FormatTypeE@Qt_6 6.1.2
 _ZNK7QLocale18nativeLanguageNameEv@Qt_6 6.1.2
 _ZNK7QLocale19createSeparatedListERK5QListI7QStringE@Qt_6 6.1.2
 _ZNK7QLocale19nativeTerritoryNameEv@Qt_6 6.2.0
 _ZNK7QLocale19standaloneMonthNameEiNS_10FormatTypeE@Qt_6 6.1.2
 _ZNK7QLocale4nameEv@Qt_6 6.1.2
 _ZNK7QLocale5toIntE11QStringViewPb@Qt_6 6.1.2
 _ZNK7QLocale6amTextEv@Qt_6 6.1.2
 _ZNK7QLocale6equalsERKS_@Qt_6 6.1.2
 _ZNK7QLocale6pmTextEv@Qt_6 6.1.2
 _ZNK7QLocale6scriptEv@Qt_6 6.1.2
 _ZNK7QLocale6toDateERK7QStringNS_10FormatTypeE9QCalendar@Qt_6 6.1.2
 _ZNK7QLocale6toDateERK7QStringNS_10FormatTypeE@Qt_6 6.1.2
 _ZNK7QLocale6toDateERK7QStringS2_9QCalendar@Qt_6 6.1.2
 _ZNK7QLocale6toDateERK7QStringS2_@Qt_6 6.1.2
 _ZNK7QLocale6toLongE11QStringViewPb@Qt_6 6.1.2
 _ZNK7QLocale6toTimeERK7QStringNS_10FormatTypeE@Qt_6 6.1.2
 _ZNK7QLocale6toTimeERK7QStringS2_@Qt_6 6.1.2
 _ZNK7QLocale6toUIntE11QStringViewPb@Qt_6 6.1.2
 _ZNK7QLocale7countryEv@Qt_6 6.1.2
 _ZNK7QLocale7dayNameEiNS_10FormatTypeE@Qt_6 6.1.2
 _ZNK7QLocale7percentEv@Qt_6 6.1.2
 _ZNK7QLocale7toFloatE11QStringViewPb@Qt_6 6.1.2
 _ZNK7QLocale7toLowerERK7QString@Qt_6 6.1.2
 _ZNK7QLocale7toShortE11QStringViewPb@Qt_6 6.1.2
 _ZNK7QLocale7toULongE11QStringViewPb@Qt_6 6.1.2
 _ZNK7QLocale7toUpperERK7QString@Qt_6 6.1.2
 _ZNK7QLocale8languageEv@Qt_6 6.1.2
 _ZNK7QLocale8toDoubleE11QStringViewPb@Qt_6 6.1.2
 _ZNK7QLocale8toStringE5QDate11QStringView9QCalendar@Qt_6 6.1.2
 _ZNK7QLocale8toStringE5QDate11QStringView@Qt_6 6.1.2
 _ZNK7QLocale8toStringE5QDateNS_10FormatTypeE9QCalendar@Qt_6 6.1.2
 _ZNK7QLocale8toStringE5QDateNS_10FormatTypeE@Qt_6 6.1.2
 _ZNK7QLocale8toStringE5QDateRK7QString@Qt_6 6.1.2
 _ZNK7QLocale8toStringE5QTime11QStringView@Qt_6 6.1.2
 _ZNK7QLocale8toStringE5QTimeNS_10FormatTypeE@Qt_6 6.1.2
 _ZNK7QLocale8toStringE5QTimeRK7QString@Qt_6 6.1.2
 _ZNK7QLocale8toStringERK9QDateTime11QStringView9QCalendar@Qt_6 6.1.2
 _ZNK7QLocale8toStringERK9QDateTime11QStringView@Qt_6 6.1.2
 _ZNK7QLocale8toStringERK9QDateTimeNS_10FormatTypeE9QCalendar@Qt_6 6.1.2
 _ZNK7QLocale8toStringERK9QDateTimeNS_10FormatTypeE@Qt_6 6.1.2
 _ZNK7QLocale8toStringEdci@Qt_6 6.1.2
 _ZNK7QLocale8toStringEx@Qt_6 6.1.2
 _ZNK7QLocale8toStringEy@Qt_6 6.1.2
 _ZNK7QLocale8toUShortE11QStringViewPb@Qt_6 6.1.2
 _ZNK7QLocale8weekdaysEv@Qt_6 6.1.2
 _ZNK7QLocale9bcp47NameEv@Qt_6 6.1.2
 _ZNK7QLocale9collationEv@Qt_6 6.1.2
 _ZNK7QLocale9monthNameEiNS_10FormatTypeE@Qt_6 6.1.2
 _ZNK7QLocale9territoryEv@Qt_6 6.2.0
 _ZNK7QLocale9zeroDigitEv@Qt_6 6.1.2
 _ZNK7QObject10metaObjectEv@Qt_6 6.1.2
 _ZNK7QObject10objectNameEv@Qt_6 6.1.2
 _ZNK7QObject14dumpObjectInfoEv@Qt_6 6.1.2
 _ZNK7QObject14dumpObjectTreeEv@Qt_6 6.1.2
 _ZNK7QObject17isSignalConnectedERK11QMetaMethod@Qt_6 6.1.2
 _ZNK7QObject17senderSignalIndexEv@Qt_6 6.1.2
 _ZNK7QObject20dynamicPropertyNamesEv@Qt_6 6.1.2
 _ZNK7QObject6senderEv@Qt_6 6.1.2
 _ZNK7QObject6threadEv@Qt_6 6.1.2
 _ZNK7QObject8propertyEPKc@Qt_6 6.1.2
 _ZNK7QObject9receiversEPKc@Qt_6 6.1.2
 _ZNK7QString10normalizedENS_17NormalizationFormEN5QChar14UnicodeVersionE@Qt_6 6.1.2
 _ZNK7QString10startsWithE13QLatin1StringN2Qt15CaseSensitivityE@Qt_6 6.1.2
 _ZNK7QString10startsWithE5QCharN2Qt15CaseSensitivityE@Qt_6 6.1.2
 _ZNK7QString10startsWithERKS_N2Qt15CaseSensitivityE@Qt_6 6.1.2
 _ZNK7QString10toLongLongEPbi@Qt_6 6.1.2
 (subst)_ZNK7QString11lastIndexOfE13QLatin1String{qptrdiff}N2Qt15CaseSensitivityE@Qt_6 6.1.2
 (subst)_ZNK7QString11lastIndexOfE5QChar{qptrdiff}N2Qt15CaseSensitivityE@Qt_6 6.1.2
 (subst)_ZNK7QString11lastIndexOfERK18QRegularExpression{qptrdiff}P23QRegularExpressionMatch@Qt_6 6.1.2
 (subst)_ZNK7QString11lastIndexOfERKS_{qptrdiff}N2Qt15CaseSensitivityE@Qt_6 6.1.2
 _ZNK7QString11toULongLongEPbi@Qt_6 6.1.2
 _ZNK7QString12isSimpleTextEv@Qt_6 6.1.2
 _ZNK7QString13isRightToLeftEv@Qt_6 6.1.2
 (subst)_ZNK7QString13leftJustifiedE{qptrdiff}5QCharb@Qt_6 6.1.2
 _ZNK7QString13toHtmlEscapedEv@Qt_6 6.1.2
 (subst)_ZNK7QString14rightJustifiedE{qptrdiff}5QCharb@Qt_6 6.1.2
 _ZNK7QString18localeAwareCompareERKS_@Qt_6 6.1.2
 _ZNK7QString3argE11QStringViewi5QChar@Qt_6 6.1.2
 _ZNK7QString3argE13QLatin1Stringi5QChar@Qt_6 6.1.2
 _ZNK7QString3argE5QChariS0_@Qt_6 6.1.2
 _ZNK7QString3argERKS_i5QChar@Qt_6 6.1.2
 _ZNK7QString3argEci5QChar@Qt_6 6.1.2
 _ZNK7QString3argEdici5QChar@Qt_6 6.1.2
 _ZNK7QString3argExii5QChar@Qt_6 6.1.2
 _ZNK7QString3argEyii5QChar@Qt_6 6.1.2
 (subst)_ZNK7QString3midE{qptrdiff}{qptrdiff}@Qt_6 6.1.2
 (subst)_ZNK7QString4leftE{qptrdiff}@Qt_6 6.1.2
 _ZNK7QString5countE11QStringViewN2Qt15CaseSensitivityE@Qt_6 6.1.2
 _ZNK7QString5countE5QCharN2Qt15CaseSensitivityE@Qt_6 6.1.2
 _ZNK7QString5countERK18QRegularExpression@Qt_6 6.1.2
 _ZNK7QString5countERKS_N2Qt15CaseSensitivityE@Qt_6 6.1.2
 (subst)_ZNK7QString5rightE{qptrdiff}@Qt_6 6.1.2
 _ZNK7QString5splitE5QChar6QFlagsIN2Qt18SplitBehaviorFlagsEENS2_15CaseSensitivityE@Qt_6 6.1.2
 _ZNK7QString5splitERK18QRegularExpression6QFlagsIN2Qt18SplitBehaviorFlagsEE@Qt_6 6.1.2
 _ZNK7QString5splitERKS_6QFlagsIN2Qt18SplitBehaviorFlagsEENS3_15CaseSensitivityE@Qt_6 6.1.2
 _ZNK7QString5utf16Ev@Qt_6 6.1.2
 _ZNK7QString6toUcs4Ev@Qt_6 6.1.2
 _ZNK7QString7compareE13QLatin1StringN2Qt15CaseSensitivityE@Qt_6 6.1.2
 _ZNK7QString7compareERKS_N2Qt15CaseSensitivityE@Qt_6 6.1.2
 (subst)_ZNK7QString7indexOfE13QLatin1String{qptrdiff}N2Qt15CaseSensitivityE@Qt_6 6.1.2
 (subst)_ZNK7QString7indexOfE5QChar{qptrdiff}N2Qt15CaseSensitivityE@Qt_6 6.1.2
 (subst)_ZNK7QString7indexOfERK18QRegularExpression{qptrdiff}P23QRegularExpressionMatch@Qt_6 6.1.2
 (subst)_ZNK7QString7indexOfERKS_{qptrdiff}N2Qt15CaseSensitivityE@Qt_6 6.1.2
 _ZNK7QString7isLowerEv@Qt_6 6.1.2
 _ZNK7QString7isUpperEv@Qt_6 6.1.2
 (subst)_ZNK7QString7sectionERK18QRegularExpression{qptrdiff}{qptrdiff}6QFlagsINS_11SectionFlagEE@Qt_6 6.1.2
 (subst)_ZNK7QString7sectionERKS_{qptrdiff}{qptrdiff}6QFlagsINS_11SectionFlagEE@Qt_6 6.1.2
 _ZNK7QString7toFloatEPb@Qt_6 6.1.2
 _ZNK7QString8containsERK18QRegularExpressionP23QRegularExpressionMatch@Qt_6 6.1.2
 _ZNK7QString8endsWithE13QLatin1StringN2Qt15CaseSensitivityE@Qt_6 6.1.2
 _ZNK7QString8endsWithE5QCharN2Qt15CaseSensitivityE@Qt_6 6.1.2
 _ZNK7QString8endsWithERKS_N2Qt15CaseSensitivityE@Qt_6 6.1.2
 (subst)_ZNK7QString8repeatedE{qptrdiff}@Qt_6 6.1.2
 _ZNK7QString8toDoubleEPb@Qt_6 6.1.2
 _ZNK7QThread10isFinishedEv@Qt_6 6.1.2
 _ZNK7QThread10metaObjectEv@Qt_6 6.1.2
 _ZNK7QThread15eventDispatcherEv@Qt_6 6.1.2
 _ZNK7QThread23isInterruptionRequestedEv@Qt_6 6.1.2
 _ZNK7QThread8priorityEv@Qt_6 6.1.2
 _ZNK7QThread9isRunningEv@Qt_6 6.1.2
 _ZNK7QThread9loopLevelEv@Qt_6 6.1.2
 _ZNK7QThread9stackSizeEv@Qt_6 6.1.2
 _ZNK8QCborMap12toJsonObjectEv@Qt_6 6.1.2
 _ZNK8QCborMap12toVariantMapEv@Qt_6 6.1.2
 _ZNK8QCborMap13toVariantHashEv@Qt_6 6.1.2
 _ZNK8QCborMap4keysEv@Qt_6 6.1.2
 _ZNK8QCborMap4sizeEv@Qt_6 6.1.2
 _ZNK8QCborMap7compareERKS_@Qt_6 6.1.2
 _ZNK8QCborMap9constFindE13QLatin1String@Qt_6 6.1.2
 _ZNK8QCborMap9constFindERK10QCborValue@Qt_6 6.1.2
 _ZNK8QCborMap9constFindERK7QString@Qt_6 6.1.2
 _ZNK8QCborMap9constFindEx@Qt_6 6.1.2
 _ZNK8QLibrary10metaObjectEv@Qt_6 6.1.2
 _ZNK8QLibrary11errorStringEv@Qt_6 6.1.2
 _ZNK8QLibrary8fileNameEv@Qt_6 6.1.2
 _ZNK8QLibrary8isLoadedEv@Qt_6 6.1.2
 _ZNK8QLibrary9loadHintsEv@Qt_6 6.1.2
 _ZNK8QProcess10exitStatusEv@Qt_6 6.1.2
 _ZNK8QProcess10metaObjectEv@Qt_6 6.1.2
 _ZNK8QProcess11environmentEv@Qt_6 6.1.2
 _ZNK8QProcess11readChannelEv@Qt_6 6.1.2
 _ZNK8QProcess12bytesToWriteEv@Qt_6 6.1.2
 _ZNK8QProcess12isSequentialEv@Qt_6 6.1.2
 _ZNK8QProcess16inputChannelModeEv@Qt_6 6.1.2
 _ZNK8QProcess16workingDirectoryEv@Qt_6 6.1.2
 _ZNK8QProcess18processChannelModeEv@Qt_6 6.1.2
 _ZNK8QProcess18processEnvironmentEv@Qt_6 6.1.2
 _ZNK8QProcess20childProcessModifierEv@Qt_6 6.1.2
 _ZNK8QProcess5errorEv@Qt_6 6.1.2
 _ZNK8QProcess5stateEv@Qt_6 6.1.2
 _ZNK8QProcess7programEv@Qt_6 6.1.2
 _ZNK8QProcess8exitCodeEv@Qt_6 6.1.2
 _ZNK8QProcess9argumentsEv@Qt_6 6.1.2
 _ZNK8QProcess9processIdEv@Qt_6 6.1.2
 _ZNK8QVariant10toBitArrayEv@Qt_6 6.1.2
 _ZNK8QVariant10toDateTimeEv@Qt_6 6.1.2
 _ZNK8QVariant10toLongLongEPb@Qt_6 6.1.2
 _ZNK8QVariant11toByteArrayEv@Qt_6 6.1.2
 _ZNK8QVariant11toJsonArrayEv@Qt_6 6.1.2
 _ZNK8QVariant11toJsonValueEv@Qt_6 6.1.2
 _ZNK8QVariant11toULongLongEPb@Qt_6 6.1.2
 _ZNK8QVariant12qdebugHelperE6QDebug@Qt_6 6.1.2
 _ZNK8QVariant12toJsonObjectEv@Qt_6 6.1.2
 _ZNK8QVariant12toModelIndexEv@Qt_6 6.1.2
 _ZNK8QVariant12toStringListEv@Qt_6 6.1.2
 _ZNK8QVariant13toEasingCurveEv@Qt_6 6.1.2
 _ZNK8QVariant14toJsonDocumentEv@Qt_6 6.1.2
 _ZNK8QVariant19toRegularExpressionEv@Qt_6 6.1.2
 _ZNK8QVariant22toPersistentModelIndexEv@Qt_6 6.1.2
 _ZNK8QVariant4saveER11QDataStream@Qt_6 6.1.2
 _ZNK8QVariant5toIntEPb@Qt_6 6.1.2
 _ZNK8QVariant5toMapEv@Qt_6 6.1.2
 _ZNK8QVariant5toUrlEv@Qt_6 6.1.2
 _ZNK8QVariant6equalsERKS_@Qt_6 6.1.2
 _ZNK8QVariant6isNullEv@Qt_6 6.1.2
 _ZNK8QVariant6toBoolEv@Qt_6 6.1.2
 _ZNK8QVariant6toCharEv@Qt_6 6.1.2
 _ZNK8QVariant6toDateEv@Qt_6 6.1.2
 _ZNK8QVariant6toHashEv@Qt_6 6.1.2
 _ZNK8QVariant6toLineEv@Qt_6 6.1.2
 _ZNK8QVariant6toListEv@Qt_6 6.1.2
 _ZNK8QVariant6toRealEPb@Qt_6 6.1.2
 _ZNK8QVariant6toRectEv@Qt_6 6.1.2
 _ZNK8QVariant6toSizeEv@Qt_6 6.1.2
 _ZNK8QVariant6toTimeEv@Qt_6 6.1.2
 _ZNK8QVariant6toUIntEPb@Qt_6 6.1.2
 _ZNK8QVariant6toUuidEv@Qt_6 6.1.2
 _ZNK8QVariant7convertEiPv@Qt_6 6.1.2
 _ZNK8QVariant7toFloatEPb@Qt_6 6.1.2
 _ZNK8QVariant7toLineFEv@Qt_6 6.1.2
 _ZNK8QVariant7toPointEv@Qt_6 6.1.2
 _ZNK8QVariant7toRectFEv@Qt_6 6.1.2
 _ZNK8QVariant7toSizeFEv@Qt_6 6.1.2
 _ZNK8QVariant8metaTypeEv@Qt_6 6.1.2
 _ZNK8QVariant8toDoubleEPb@Qt_6 6.1.2
 _ZNK8QVariant8toLocaleEv@Qt_6 6.1.2
 _ZNK8QVariant8toPointFEv@Qt_6 6.1.2
 _ZNK8QVariant8toStringEv@Qt_6 6.1.2
 _ZNK8QVariant8typeNameEv@Qt_6 6.1.2
 _ZNK8qfloat1610fpClassifyEv@Qt_6 6.1.2
 _ZNK9QBitArray5countEb@Qt_6 6.1.2
 _ZNK9QBitArray8toUInt32EN8QSysInfo6EndianEPb@Qt_6 6.1.2
 _ZNK9QBitArraycoEv@Qt_6 6.1.2
 _ZNK9QCalendar10daysInYearEi@Qt_6 6.1.2
 _ZNK9QCalendar10isLeapYearEi@Qt_6 6.1.2
 _ZNK9QCalendar11daysInMonthEii@Qt_6 6.1.2
 _ZNK9QCalendar11hasYearZeroEv@Qt_6 6.1.2
 _ZNK9QCalendar11isDateValidEiii@Qt_6 6.1.2
 _ZNK9QCalendar11isGregorianEv@Qt_6 6.1.2
 _ZNK9QCalendar11isLuniSolarEv@Qt_6 6.1.2
 _ZNK9QCalendar11isProlepticEv@Qt_6 6.1.2
 _ZNK9QCalendar11weekDayNameERK7QLocaleiNS0_10FormatTypeE@Qt_6 6.1.2
 _ZNK9QCalendar12monthsInYearEi@Qt_6 6.1.2
 _ZNK9QCalendar13dateFromPartsERKNS_12YearMonthDayE@Qt_6 6.1.2
 _ZNK9QCalendar13dateFromPartsEiii@Qt_6 6.1.2
 _ZNK9QCalendar13partsFromDateE5QDate@Qt_6 6.1.2
 _ZNK9QCalendar16dateTimeToStringE11QStringViewRK9QDateTime5QDate5QTimeRK7QLocale@Qt_6 6.1.2
 _ZNK9QCalendar18maximumDaysInMonthEv@Qt_6 6.1.2
 _ZNK9QCalendar18minimumDaysInMonthEv@Qt_6 6.1.2
 _ZNK9QCalendar19maximumMonthsInYearEv@Qt_6 6.1.2
 _ZNK9QCalendar19standaloneMonthNameERK7QLocaleiiNS0_10FormatTypeE@Qt_6 6.1.2
 _ZNK9QCalendar21standaloneWeekDayNameERK7QLocaleiNS0_10FormatTypeE@Qt_6 6.1.2
 _ZNK9QCalendar4nameEv@Qt_6 6.1.2
 _ZNK9QCalendar7isLunarEv@Qt_6 6.1.2
 _ZNK9QCalendar7isSolarEv@Qt_6 6.1.2
 _ZNK9QCalendar9dayOfWeekE5QDate@Qt_6 6.1.2
 _ZNK9QCalendar9monthNameERK7QLocaleiiNS0_10FormatTypeE@Qt_6 6.1.2
 _ZNK9QCollator11numericModeEv@Qt_6 6.1.2
 _ZNK9QCollator15caseSensitivityEv@Qt_6 6.1.2
 _ZNK9QCollator17ignorePunctuationEv@Qt_6 6.1.2
 _ZNK9QCollator6localeEv@Qt_6 6.1.2
 _ZNK9QCollator7compareE11QStringViewS0_@Qt_6 6.1.2
 _ZNK9QCollator7sortKeyERK7QString@Qt_6 6.1.2
 _ZNK9QDateTime10toTimeSpecEN2Qt8TimeSpecE@Qt_6 6.1.2
 _ZNK9QDateTime10toTimeZoneERK9QTimeZone@Qt_6 6.1.2
 _ZNK9QDateTime13offsetFromUtcEv@Qt_6 6.1.2
 _ZNK9QDateTime14isDaylightTimeEv@Qt_6 6.1.2
 _ZNK9QDateTime15toOffsetFromUtcEi@Qt_6 6.1.2
 _ZNK9QDateTime16toSecsSinceEpochEv@Qt_6 6.1.2
 _ZNK9QDateTime17toMSecsSinceEpochEv@Qt_6 6.1.2
 _ZNK9QDateTime20timeZoneAbbreviationEv@Qt_6 6.1.2
 _ZNK9QDateTime4dateEv@Qt_6 6.1.2
 _ZNK9QDateTime4timeEv@Qt_6 6.1.2
 _ZNK9QDateTime6daysToERKS_@Qt_6 6.1.2
 _ZNK9QDateTime6equalsERKS_@Qt_6 6.1.2
 _ZNK9QDateTime6isNullEv@Qt_6 6.1.2
 _ZNK9QDateTime6secsToERKS_@Qt_6 6.1.2
 _ZNK9QDateTime7addDaysEx@Qt_6 6.1.2
 _ZNK9QDateTime7addSecsEx@Qt_6 6.1.2
 _ZNK9QDateTime7isValidEv@Qt_6 6.1.2
 _ZNK9QDateTime7msecsToERKS_@Qt_6 6.1.2
 _ZNK9QDateTime8addMSecsEx@Qt_6 6.1.2
 _ZNK9QDateTime8addYearsEi@Qt_6 6.1.2
 _ZNK9QDateTime8precedesERKS_@Qt_6 6.1.2
 _ZNK9QDateTime8timeSpecEv@Qt_6 6.1.2
 _ZNK9QDateTime8timeZoneEv@Qt_6 6.1.2
 _ZNK9QDateTime8toStringE11QStringView9QCalendar@Qt_6 6.1.2
 _ZNK9QDateTime8toStringEN2Qt10DateFormatE@Qt_6 6.1.2
 _ZNK9QDateTime9addMonthsEi@Qt_6 6.1.2
 _ZNK9QFileInfo10bundleNameEv@Qt_6 6.1.2
 _ZNK9QFileInfo10isJunctionEv@Qt_6 6.1.2
 _ZNK9QFileInfo10isReadableEv@Qt_6 6.1.2
 _ZNK9QFileInfo10isRelativeEv@Qt_6 6.1.2
 _ZNK9QFileInfo10isShortcutEv@Qt_6 6.1.2
 _ZNK9QFileInfo10isWritableEv@Qt_6 6.1.2
 _ZNK9QFileInfo10permissionE6QFlagsIN11QFileDevice10PermissionEE@Qt_6 6.1.2
 _ZNK9QFileInfo11absoluteDirEv@Qt_6 6.1.2
 _ZNK9QFileInfo11permissionsEv@Qt_6 6.1.2
 _ZNK9QFileInfo12absolutePathEv@Qt_6 6.1.2
 _ZNK9QFileInfo12isExecutableEv@Qt_6 6.1.2
 _ZNK9QFileInfo12isNativePathEv@Qt_6 6.1.2
 _ZNK9QFileInfo13canonicalPathEv@Qt_6 6.1.2
 _ZNK9QFileInfo13symLinkTargetEv@Qt_6 6.1.2
 _ZNK9QFileInfo14completeSuffixEv@Qt_6 6.1.2
 _ZNK9QFileInfo14isSymbolicLinkEv@Qt_6 6.1.2
 _ZNK9QFileInfo14junctionTargetEv@Qt_6 6.2.0
 _ZNK9QFileInfo16absoluteFilePathEv@Qt_6 6.1.2
 _ZNK9QFileInfo16completeBaseNameEv@Qt_6 6.1.2
 _ZNK9QFileInfo17canonicalFilePathEv@Qt_6 6.1.2
 _ZNK9QFileInfo3dirEv@Qt_6 6.1.2
 _ZNK9QFileInfo4pathEv@Qt_6 6.1.2
 _ZNK9QFileInfo4sizeEv@Qt_6 6.1.2
 _ZNK9QFileInfo5groupEv@Qt_6 6.1.2
 _ZNK9QFileInfo5isDirEv@Qt_6 6.1.2
 _ZNK9QFileInfo5ownerEv@Qt_6 6.1.2
 _ZNK9QFileInfo6existsEv@Qt_6 6.1.2
 _ZNK9QFileInfo6isFileEv@Qt_6 6.1.2
 _ZNK9QFileInfo6isRootEv@Qt_6 6.1.2
 _ZNK9QFileInfo6suffixEv@Qt_6 6.1.2
 _ZNK9QFileInfo7cachingEv@Qt_6 6.1.2
 _ZNK9QFileInfo7groupIdEv@Qt_6 6.1.2
 _ZNK9QFileInfo7isAliasEv@Qt_6 6.4.0
 _ZNK9QFileInfo7ownerIdEv@Qt_6 6.1.2
 _ZNK9QFileInfo8baseNameEv@Qt_6 6.1.2
 _ZNK9QFileInfo8fileNameEv@Qt_6 6.1.2
 _ZNK9QFileInfo8filePathEv@Qt_6 6.1.2
 _ZNK9QFileInfo8fileTimeEN11QFileDevice8FileTimeE@Qt_6 6.1.2
 _ZNK9QFileInfo8isBundleEv@Qt_6 6.1.2
 _ZNK9QFileInfo8isHiddenEv@Qt_6 6.1.2
 _ZNK9QFileInfo9isSymLinkEv@Qt_6 6.1.2
 _ZNK9QFileInfoeqERKS_@Qt_6 6.1.2
 _ZNK9QIODevice10isReadableEv@Qt_6 6.1.2
 _ZNK9QIODevice10isWritableEv@Qt_6 6.1.2
 _ZNK9QIODevice10metaObjectEv@Qt_6 6.1.2
 _ZNK9QIODevice11canReadLineEv@Qt_6 6.1.2
 _ZNK9QIODevice11errorStringEv@Qt_6 6.1.2
 _ZNK9QIODevice12bytesToWriteEv@Qt_6 6.1.2
 _ZNK9QIODevice12isSequentialEv@Qt_6 6.1.2
 _ZNK9QIODevice14bytesAvailableEv@Qt_6 6.1.2
 _ZNK9QIODevice16readChannelCountEv@Qt_6 6.1.2
 _ZNK9QIODevice17isTextModeEnabledEv@Qt_6 6.1.2
 _ZNK9QIODevice17writeChannelCountEv@Qt_6 6.1.2
 _ZNK9QIODevice18currentReadChannelEv@Qt_6 6.1.2
 _ZNK9QIODevice19currentWriteChannelEv@Qt_6 6.1.2
 _ZNK9QIODevice20isTransactionStartedEv@Qt_6 6.1.2
 _ZNK9QIODevice3posEv@Qt_6 6.1.2
 _ZNK9QIODevice4sizeEv@Qt_6 6.1.2
 _ZNK9QIODevice5atEndEv@Qt_6 6.1.2
 _ZNK9QIODevice6isOpenEv@Qt_6 6.1.2
 _ZNK9QIODevice8openModeEv@Qt_6 6.1.2
 _ZNK9QLockFile11getLockInfoEPxP7QStringS2_@Qt_6 6.1.2
 _ZNK9QLockFile13staleLockTimeEv@Qt_6 6.1.2
 _ZNK9QLockFile5errorEv@Qt_6 6.1.2
 _ZNK9QLockFile8fileNameEv@Qt_6 6.1.2
 _ZNK9QLockFile8isLockedEv@Qt_6 6.1.2
 _ZNK9QMetaEnum10keyToValueEPKcPb@Qt_6 6.1.2
 _ZNK9QMetaEnum10valueToKeyEi@Qt_6 6.1.2
 _ZNK9QMetaEnum11keysToValueEPKcPb@Qt_6 6.1.2
 _ZNK9QMetaEnum11valueToKeysEi@Qt_6 6.1.2
 _ZNK9QMetaEnum3keyEi@Qt_6 6.1.2
 _ZNK9QMetaEnum4nameEv@Qt_6 6.1.2
 _ZNK9QMetaEnum5scopeEv@Qt_6 6.1.2
 _ZNK9QMetaEnum5valueEi@Qt_6 6.1.2
 _ZNK9QMetaEnum6isFlagEv@Qt_6 6.1.2
 _ZNK9QMetaEnum8enumNameEv@Qt_6 6.1.2
 _ZNK9QMetaEnum8isScopedEv@Qt_6 6.1.2
 _ZNK9QMetaEnum8keyCountEv@Qt_6 6.1.2
 _ZNK9QMetaType12isRegisteredEv@Qt_6 6.1.2
 _ZNK9QMetaType20isEqualityComparableEv@Qt_6 6.1.2
 _ZNK9QMetaType2idEv@Qt_6 6.1.2
 _ZNK9QMetaType32hasRegisteredDataStreamOperatorsEv@Qt_6 6.1.2
 _ZNK9QMetaType32hasRegisteredDebugStreamOperatorEv@Qt_6 6.1.2
 _ZNK9QMetaType4loadER11QDataStreamPv@Qt_6 6.1.2
 _ZNK9QMetaType4saveER11QDataStreamPKv@Qt_6 6.1.2
 _ZNK9QMetaType6createEPKv@Qt_6 6.1.2
 _ZNK9QMetaType6equalsEPKvS1_@Qt_6 6.1.2
 _ZNK9QMetaType7compareEPKvS1_@Qt_6 6.1.2
 _ZNK9QMetaType7destroyEPv@Qt_6 6.1.2
 _ZNK9QMetaType7isValidEv@Qt_6 6.1.2
 _ZNK9QMetaType8destructEPv@Qt_6 6.1.2
 _ZNK9QMetaType8idHelperEv@Qt_6 6.2.0
 _ZNK9QMetaType9constructEPvPKv@Qt_6 6.1.2
 _ZNK9QMetaType9isOrderedEv@Qt_6 6.1.2
 _ZNK9QMimeData10metaObjectEv@Qt_6 6.1.2
 _ZNK9QMimeData12retrieveDataERK7QString9QMetaType@Qt_6 6.1.2
 _ZNK9QMimeData4dataERK7QString@Qt_6 6.1.2
 _ZNK9QMimeData4htmlEv@Qt_6 6.1.2
 _ZNK9QMimeData4textEv@Qt_6 6.1.2
 _ZNK9QMimeData4urlsEv@Qt_6 6.1.2
 _ZNK9QMimeData7formatsEv@Qt_6 6.1.2
 _ZNK9QMimeData7hasHtmlEv@Qt_6 6.1.2
 _ZNK9QMimeData7hasTextEv@Qt_6 6.1.2
 _ZNK9QMimeData7hasUrlsEv@Qt_6 6.1.2
 _ZNK9QMimeData8hasColorEv@Qt_6 6.1.2
 _ZNK9QMimeData8hasImageEv@Qt_6 6.1.2
 _ZNK9QMimeData9colorDataEv@Qt_6 6.1.2
 _ZNK9QMimeData9hasFormatERK7QString@Qt_6 6.1.2
 _ZNK9QMimeData9imageDataEv@Qt_6 6.1.2
 _ZNK9QMimeType12allAncestorsEv@Qt_6 6.1.2
 _ZNK9QMimeType12filterStringEv@Qt_6 6.1.2
 _ZNK9QMimeType12globPatternsEv@Qt_6 6.1.2
 _ZNK9QMimeType15genericIconNameEv@Qt_6 6.1.2
 _ZNK9QMimeType15parentMimeTypesEv@Qt_6 6.1.2
 _ZNK9QMimeType15preferredSuffixEv@Qt_6 6.1.2
 _ZNK9QMimeType4nameEv@Qt_6 6.1.2
 _ZNK9QMimeType7aliasesEv@Qt_6 6.1.2
 _ZNK9QMimeType7commentEv@Qt_6 6.1.2
 _ZNK9QMimeType7isValidEv@Qt_6 6.1.2
 _ZNK9QMimeType8iconNameEv@Qt_6 6.1.2
 _ZNK9QMimeType8inheritsERK7QString@Qt_6 6.1.2
 _ZNK9QMimeType8suffixesEv@Qt_6 6.1.2
 _ZNK9QMimeType9isDefaultEv@Qt_6 6.1.2
 _ZNK9QMimeTypeeqERKS_@Qt_6 6.1.2
 _ZNK9QResource12lastModifiedEv@Qt_6 6.1.2
 _ZNK9QResource16absoluteFilePathEv@Qt_6 6.1.2
 _ZNK9QResource16uncompressedDataEv@Qt_6 6.1.2
 _ZNK9QResource16uncompressedSizeEv@Qt_6 6.1.2
 _ZNK9QResource20compressionAlgorithmEv@Qt_6 6.1.2
 _ZNK9QResource4dataEv@Qt_6 6.1.2
 _ZNK9QResource4sizeEv@Qt_6 6.1.2
 _ZNK9QResource5isDirEv@Qt_6 6.1.2
 _ZNK9QResource6localeEv@Qt_6 6.1.2
 _ZNK9QResource7isValidEv@Qt_6 6.1.2
 _ZNK9QResource8childrenEv@Qt_6 6.1.2
 _ZNK9QResource8fileNameEv@Qt_6 6.1.2
 _ZNK9QSaveFile10metaObjectEv@Qt_6 6.1.2
 _ZNK9QSaveFile19directWriteFallbackEv@Qt_6 6.1.2
 _ZNK9QSaveFile8fileNameEv@Qt_6 6.1.2
 _ZNK9QSettings10isWritableEv@Qt_6 6.1.2
 _ZNK9QSettings10metaObjectEv@Qt_6 6.1.2
 _ZNK9QSettings11childGroupsEv@Qt_6 6.1.2
 _ZNK9QSettings15applicationNameEv@Qt_6 6.1.2
 _ZNK9QSettings16fallbacksEnabledEv@Qt_6 6.1.2
 _ZNK9QSettings16organizationNameEv@Qt_6 6.1.2
 _ZNK9QSettings20isAtomicSyncRequiredEv@Qt_6 6.1.2
 _ZNK9QSettings5groupEv@Qt_6 6.1.2
 _ZNK9QSettings5scopeEv@Qt_6 6.1.2
 _ZNK9QSettings5valueE14QAnyStringView@Qt_6 6.4.0
 _ZNK9QSettings5valueE14QAnyStringViewRK8QVariant@Qt_6 6.4.0
 _ZNK9QSettings5valueERK7QString@Qt_6 6.3.0
 _ZNK9QSettings5valueERK7QStringRK8QVariant@Qt_6 6.1.2
 _ZNK9QSettings6formatEv@Qt_6 6.1.2
 _ZNK9QSettings6statusEv@Qt_6 6.1.2
 _ZNK9QSettings7allKeysEv@Qt_6 6.1.2
 _ZNK9QSettings8containsE14QAnyStringView@Qt_6 6.4.0
 _ZNK9QSettings8containsERK7QString@Qt_6 6.1.2
 _ZNK9QSettings8fileNameEv@Qt_6 6.1.2
 _ZNK9QSettings9childKeysEv@Qt_6 6.1.2
 _ZNK9QTimeLine10metaObjectEv@Qt_6 6.1.2
 _ZNK9QTimeLine10startFrameEv@Qt_6 6.1.2
 _ZNK9QTimeLine11currentTimeEv@Qt_6 6.1.2
 _ZNK9QTimeLine11easingCurveEv@Qt_6 6.1.2
 _ZNK9QTimeLine12currentFrameEv@Qt_6 6.1.2
 _ZNK9QTimeLine12currentValueEv@Qt_6 6.1.2
 _ZNK9QTimeLine12frameForTimeEi@Qt_6 6.1.2
 _ZNK9QTimeLine12valueForTimeEi@Qt_6 6.1.2
 _ZNK9QTimeLine14updateIntervalEv@Qt_6 6.1.2
 _ZNK9QTimeLine5stateEv@Qt_6 6.1.2
 _ZNK9QTimeLine8durationEv@Qt_6 6.1.2
 _ZNK9QTimeLine8endFrameEv@Qt_6 6.1.2
 _ZNK9QTimeLine9directionEv@Qt_6 6.1.2
 _ZNK9QTimeLine9loopCountEv@Qt_6 6.1.2
 _ZNK9QTimeZone10offsetDataERK9QDateTime@Qt_6 6.1.2
 _ZNK9QTimeZone11displayNameENS_8TimeTypeENS_8NameTypeERK7QLocale@Qt_6 6.1.2
 _ZNK9QTimeZone11displayNameERK9QDateTimeNS_8NameTypeERK7QLocale@Qt_6 6.1.2
 _ZNK9QTimeZone11transitionsERK9QDateTimeS2_@Qt_6 6.1.2
 _ZNK9QTimeZone12abbreviationERK9QDateTime@Qt_6 6.1.2
 _ZNK9QTimeZone13offsetFromUtcERK9QDateTime@Qt_6 6.1.2
 _ZNK9QTimeZone14hasTransitionsEv@Qt_6 6.1.2
 _ZNK9QTimeZone14isDaylightTimeERK9QDateTime@Qt_6 6.1.2
 _ZNK9QTimeZone14nextTransitionERK9QDateTime@Qt_6 6.1.2
 _ZNK9QTimeZone15hasDaylightTimeEv@Qt_6 6.1.2
 _ZNK9QTimeZone18daylightTimeOffsetERK9QDateTime@Qt_6 6.1.2
 _ZNK9QTimeZone18previousTransitionERK9QDateTime@Qt_6 6.1.2
 _ZNK9QTimeZone18standardTimeOffsetERK9QDateTime@Qt_6 6.1.2
 _ZNK9QTimeZone2idEv@Qt_6 6.1.2
 _ZNK9QTimeZone7commentEv@Qt_6 6.1.2
 _ZNK9QTimeZone7countryEv@Qt_6 6.1.2
 _ZNK9QTimeZone7isValidEv@Qt_6 6.1.2
 _ZNK9QTimeZone9territoryEv@Qt_6 6.2.0
 _ZNK9QTimeZoneeqERKS_@Qt_6 6.1.2
 _ZNK9QTimeZoneneERKS_@Qt_6 6.1.2
 _ZNK9QUrlQuery10isDetachedEv@Qt_6 6.1.2
 _ZNK9QUrlQuery10queryItemsE6QFlagsIN4QUrl25ComponentFormattingOptionEE@Qt_6 6.1.2
 _ZNK9QUrlQuery12hasQueryItemERK7QString@Qt_6 6.1.2
 _ZNK9QUrlQuery14queryItemValueERK7QString6QFlagsIN4QUrl25ComponentFormattingOptionEE@Qt_6 6.1.2
 _ZNK9QUrlQuery18allQueryItemValuesERK7QString6QFlagsIN4QUrl25ComponentFormattingOptionEE@Qt_6 6.1.2
 _ZNK9QUrlQuery18queryPairDelimiterEv@Qt_6 6.1.2
 _ZNK9QUrlQuery19queryValueDelimiterEv@Qt_6 6.1.2
 _ZNK9QUrlQuery5queryE6QFlagsIN4QUrl25ComponentFormattingOptionEE@Qt_6 6.1.2
 _ZNK9QUrlQuery7isEmptyEv@Qt_6 6.1.2
 _ZNK9QUrlQueryeqERKS_@Qt_6 6.1.2
 _ZNK9QtPrivate14ExceptionStore12hasExceptionEv@Qt_6 6.1.2
 _ZNK9QtPrivate14ExceptionStore16rethrowExceptionEv@Qt_6 6.3.0
 _ZNK9QtPrivate14ExceptionStore9exceptionEv@Qt_6 6.1.2
 _ZNK9QtPrivate15ResultStoreBase10filterModeEv@Qt_6 6.1.2
 _ZNK9QtPrivate15ResultStoreBase13hasNextResultEv@Qt_6 6.1.2
 _ZNK9QtPrivate15ResultStoreBase23containsValidResultItemEi@Qt_6 6.1.2
 _ZNK9QtPrivate15ResultStoreBase3endEv@Qt_6 6.1.2
 _ZNK9QtPrivate15ResultStoreBase5beginEv@Qt_6 6.1.2
 _ZNK9QtPrivate15ResultStoreBase5countEv@Qt_6 6.1.2
 _ZNK9QtPrivate15ResultStoreBase8containsEi@Qt_6 6.1.2
 _ZNK9QtPrivate15ResultStoreBase8resultAtEi@Qt_6 6.1.2
 _ZNK9QtPrivate18ResultIteratorBase11resultIndexEv@Qt_6 6.1.2
 _ZNK9QtPrivate18ResultIteratorBase11vectorIndexEv@Qt_6 6.1.2
 _ZNK9QtPrivate18ResultIteratorBase23canIncrementVectorIndexEv@Qt_6 6.1.2
 _ZNK9QtPrivate18ResultIteratorBase7isValidEv@Qt_6 6.1.2
 _ZNK9QtPrivate18ResultIteratorBase8isVectorEv@Qt_6 6.1.2
 _ZNK9QtPrivate18ResultIteratorBase9batchSizeEv@Qt_6 6.1.2
 _ZNK9QtPrivate18ResultIteratorBaseeqERKS0_@Qt_6 6.1.2
 _ZNK9QtPrivate18ResultIteratorBaseneERKS0_@Qt_6 6.1.2
 _ZNK9QtPrivate20QPropertyBindingData15evaluateIfDirtyEPK20QUntypedPropertyData@Qt_6 6.1.2
 _ZNK9QtPrivate20QPropertyBindingData15notifyObserversEP20QUntypedPropertyData@Qt_6 6.1.2
 _ZNK9QtPrivate20QPropertyBindingData15notifyObserversEP20QUntypedPropertyDataP15QBindingStorage@Qt_6 6.2.0
 (subst)_ZNK9QtPrivate20QPropertyBindingData21notifyObserver_helperEP20QUntypedPropertyDataP15QBindingStorage24QPropertyObserverPointerR15QVarLengthArrayI19QBindingObserverPtrL{qptrdiff}256EE@Qt_6 6.4.0
 _ZNK9QtPrivate20QPropertyBindingData38registerWithCurrentlyEvaluatingBindingEv@Qt_6 6.1.2
 _ZNK9QtPrivate20QPropertyBindingData45registerWithCurrentlyEvaluatingBinding_helperEPNS_22BindingEvaluationStateE@Qt_6 6.1.2
 _ZSt19piecewise_construct@Qt_6 6.4.1
 _ZTI10QEventLoop@Qt_6 6.1.2
 _ZTI10QException@Qt_6 6.1.2
 _ZTI11QChildEvent@Qt_6 6.1.2
 _ZTI11QFileDevice@Qt_6 6.1.2
 _ZTI11QMetaObject@Qt_6 6.1.2
 _ZTI11QObjectData@Qt_6 6.1.2
 _ZTI11QTextStream@Qt_6 6.1.2
 _ZTI11QThreadPool@Qt_6 6.1.2
 _ZTI11QTimerEvent@Qt_6 6.1.2
 _ZTI11QTranslator@Qt_6 6.1.2
 _ZTI13QFileSelector@Qt_6 6.1.2
 _ZTI13QPluginLoader@Qt_6 6.1.2
 _ZTI13QSharedMemory@Qt_6 6.1.2
 _ZTI13QSignalMapper@Qt_6 6.1.2
 _ZTI14QTemporaryFile@Qt_6 6.1.2
 _ZTI15QAnimationGroup@Qt_6 6.1.2
 _ZTI15QPauseAnimation@Qt_6 6.1.2
 _ZTI15QSocketNotifier@Qt_6 6.1.2
 _ZTI16QAnimationDriver@Qt_6 6.1.2
 _ZTI16QCoreApplication@Qt_6 6.1.2
 _ZTI16QStringListModel@Qt_6 6.1.2
 _ZTI17QFactoryInterface@Qt_6 6.1.2
 _ZTI17QVariantAnimation@Qt_6 6.1.2
 _ZTI18QAbstractAnimation@Qt_6 6.1.2
 _ZTI18QAbstractItemModel@Qt_6 6.1.2
 _ZTI18QAbstractListModel@Qt_6 6.1.2
 _ZTI18QFileSystemWatcher@Qt_6 6.1.2
 _ZTI18QFutureWatcherBase@Qt_6 6.1.2
 _ZTI18QPropertyAnimation@Qt_6 6.1.2
 _ZTI19QAbstractProxyModel@Qt_6 6.1.2
 _ZTI19QAbstractTableModel@Qt_6 6.1.2
 _ZTI19QIdentityProxyModel@Qt_6 6.1.2
 _ZTI19QItemSelectionModel@Qt_6 6.1.2
 _ZTI19QUnhandledException@Qt_6 6.1.2
 _ZTI20QDeferredDeleteEvent@Qt_6 6.1.2
 _ZTI20QFutureInterfaceBase@Qt_6 6.1.2
 _ZTI20QTransposeProxyModel@Qt_6 6.1.2
 _ZTI21QObjectCleanupHandler@Qt_6 6.1.2
 _ZTI21QSortFilterProxyModel@Qt_6 6.1.2
 _ZTI23QParallelAnimationGroup@Qt_6 6.1.2
 _ZTI24QAbstractEventDispatcher@Qt_6 6.1.2
 _ZTI24QXmlStreamEntityResolver@Qt_6 6.1.2
 _ZTI25QSequentialAnimationGroup@Qt_6 6.1.2
 _ZTI26QAbstractNativeEventFilter@Qt_6 6.1.2
 _ZTI27QDynamicPropertyChangeEvent@Qt_6 6.1.2
 _ZTI28QConcatenateTablesProxyModel@Qt_6 6.1.2
 _ZTI5QFile@Qt_6 6.1.2
 _ZTI6QEvent@Qt_6 6.1.2
 _ZTI6QTimer@Qt_6 6.1.2
 _ZTI7QBuffer@Qt_6 6.1.2
 _ZTI7QObject@Qt_6 6.1.2
 _ZTI7QThread@Qt_6 6.1.2
 _ZTI8QLibrary@Qt_6 6.1.2
 _ZTI8QProcess@Qt_6 6.1.2
 _ZTI9QIODevice@Qt_6 6.1.2
 _ZTI9QMimeData@Qt_6 6.1.2
 _ZTI9QRunnable@Qt_6 6.1.2
 _ZTI9QSaveFile@Qt_6 6.1.2
 _ZTI9QSettings@Qt_6 6.1.2
 _ZTI9QTimeLine@Qt_6 6.1.2
 _ZTIN9QtPrivate15ResultStoreBaseE@Qt_6 6.1.2
 (arch=armel riscv64)_ZTIN9__gnu_cxx7__mutexE@Qt_6 6.3.0
 (arch=armel riscv64)_ZTISt11_Mutex_baseILN9__gnu_cxx12_Lock_policyE1EE@Qt_6 6.3.0
 (arch=!armel !riscv64)_ZTISt11_Mutex_baseILN9__gnu_cxx12_Lock_policyE2EE@Qt_6 6.3.0
 (arch=armel riscv64)_ZTISt16_Sp_counted_baseILN9__gnu_cxx12_Lock_policyE1EE@Qt_6 6.3.0
 (arch=!armel !riscv64)_ZTISt16_Sp_counted_baseILN9__gnu_cxx12_Lock_policyE2EE@Qt_6 6.3.0
 (arch=armel armhf)_ZTISt19_Sp_make_shared_tag@Qt_6 6.3.0
 _ZTIZN9QMetaType17registerConverterI5QListI11QModelIndexE9QIterableI13QMetaSequenceEN9QtPrivate33QSequentialIterableConvertFunctorIS3_EEEEbT1_EUlPKvPvE_@Qt_6 6.1.2
 _ZTIZN9QMetaType17registerConverterI5QListI21QPersistentModelIndexE9QIterableI13QMetaSequenceEN9QtPrivate33QSequentialIterableConvertFunctorIS3_EEEEbT1_EUlPKvPvE_@Qt_6 6.1.2
 _ZTIZN9QMetaType17registerConverterI5QListIN2Qt9DayOfWeekEE9QIterableI13QMetaSequenceEN9QtPrivate33QSequentialIterableConvertFunctorIS4_EEEEbT1_EUlPKvPvE_@Qt_6 6.1.2
 _ZTIZN9QMetaType17registerConverterI5QListIiE9QIterableI13QMetaSequenceEN9QtPrivate33QSequentialIterableConvertFunctorIS2_EEEEbT1_EUlPKvPvE_@Qt_6 6.1.2
 _ZTIZN9QMetaType19registerMutableViewI5QListI11QModelIndexE9QIterableI13QMetaSequenceEN9QtPrivate37QSequentialIterableMutableViewFunctorIS3_EEEEbT1_EUlPvSB_E_@Qt_6 6.1.2
 _ZTIZN9QMetaType19registerMutableViewI5QListI21QPersistentModelIndexE9QIterableI13QMetaSequenceEN9QtPrivate37QSequentialIterableMutableViewFunctorIS3_EEEEbT1_EUlPvSB_E_@Qt_6 6.1.2
 _ZTIZN9QMetaType19registerMutableViewI5QListIN2Qt9DayOfWeekEE9QIterableI13QMetaSequenceEN9QtPrivate37QSequentialIterableMutableViewFunctorIS4_EEEEbT1_EUlPvSC_E_@Qt_6 6.1.2
 _ZTIZN9QMetaType19registerMutableViewI5QListIiE9QIterableI13QMetaSequenceEN9QtPrivate37QSequentialIterableMutableViewFunctorIS2_EEEEbT1_EUlPvSA_E_@Qt_6 6.1.2
 _ZTS10QEventLoop@Qt_6 6.1.2
 _ZTS10QException@Qt_6 6.1.2
 _ZTS11QChildEvent@Qt_6 6.1.2
 _ZTS11QFileDevice@Qt_6 6.1.2
 _ZTS11QMetaObject@Qt_6 6.1.2
 _ZTS11QObjectData@Qt_6 6.1.2
 _ZTS11QTextStream@Qt_6 6.1.2
 _ZTS11QThreadPool@Qt_6 6.1.2
 _ZTS11QTimerEvent@Qt_6 6.1.2
 _ZTS11QTranslator@Qt_6 6.1.2
 _ZTS13QFileSelector@Qt_6 6.1.2
 _ZTS13QPluginLoader@Qt_6 6.1.2
 _ZTS13QSharedMemory@Qt_6 6.1.2
 _ZTS13QSignalMapper@Qt_6 6.1.2
 _ZTS14QTemporaryFile@Qt_6 6.1.2
 _ZTS15QAnimationGroup@Qt_6 6.1.2
 _ZTS15QPauseAnimation@Qt_6 6.1.2
 _ZTS15QSocketNotifier@Qt_6 6.1.2
 _ZTS16QAnimationDriver@Qt_6 6.1.2
 _ZTS16QCoreApplication@Qt_6 6.1.2
 _ZTS16QStringListModel@Qt_6 6.1.2
 _ZTS17QFactoryInterface@Qt_6 6.1.2
 _ZTS17QVariantAnimation@Qt_6 6.1.2
 _ZTS18QAbstractAnimation@Qt_6 6.1.2
 _ZTS18QAbstractItemModel@Qt_6 6.1.2
 _ZTS18QAbstractListModel@Qt_6 6.1.2
 _ZTS18QFileSystemWatcher@Qt_6 6.1.2
 _ZTS18QFutureWatcherBase@Qt_6 6.1.2
 _ZTS18QPropertyAnimation@Qt_6 6.1.2
 _ZTS19QAbstractProxyModel@Qt_6 6.1.2
 _ZTS19QAbstractTableModel@Qt_6 6.1.2
 _ZTS19QIdentityProxyModel@Qt_6 6.1.2
 _ZTS19QItemSelectionModel@Qt_6 6.1.2
 _ZTS19QUnhandledException@Qt_6 6.1.2
 _ZTS20QDeferredDeleteEvent@Qt_6 6.1.2
 _ZTS20QFutureInterfaceBase@Qt_6 6.1.2
 _ZTS20QTransposeProxyModel@Qt_6 6.1.2
 _ZTS21QObjectCleanupHandler@Qt_6 6.1.2
 _ZTS21QSortFilterProxyModel@Qt_6 6.1.2
 _ZTS23QParallelAnimationGroup@Qt_6 6.1.2
 _ZTS24QAbstractEventDispatcher@Qt_6 6.1.2
 _ZTS24QXmlStreamEntityResolver@Qt_6 6.1.2
 _ZTS25QSequentialAnimationGroup@Qt_6 6.1.2
 _ZTS26QAbstractNativeEventFilter@Qt_6 6.1.2
 _ZTS27QDynamicPropertyChangeEvent@Qt_6 6.1.2
 _ZTS28QConcatenateTablesProxyModel@Qt_6 6.1.2
 _ZTS5QFile@Qt_6 6.1.2
 _ZTS6QEvent@Qt_6 6.1.2
 _ZTS6QTimer@Qt_6 6.1.2
 _ZTS7QBuffer@Qt_6 6.1.2
 _ZTS7QObject@Qt_6 6.1.2
 _ZTS7QThread@Qt_6 6.1.2
 _ZTS8QLibrary@Qt_6 6.1.2
 _ZTS8QProcess@Qt_6 6.1.2
 _ZTS9QIODevice@Qt_6 6.1.2
 _ZTS9QMimeData@Qt_6 6.1.2
 _ZTS9QRunnable@Qt_6 6.1.2
 _ZTS9QSaveFile@Qt_6 6.1.2
 _ZTS9QSettings@Qt_6 6.1.2
 _ZTS9QTimeLine@Qt_6 6.1.2
 _ZTSN9QtPrivate15ResultStoreBaseE@Qt_6 6.1.2
 (arch=armel riscv64)_ZTSN9__gnu_cxx7__mutexE@Qt_6 6.3.0
 (arch=armel riscv64)_ZTSSt11_Mutex_baseILN9__gnu_cxx12_Lock_policyE1EE@Qt_6 6.3.0
 (arch=!armel !riscv64)_ZTSSt11_Mutex_baseILN9__gnu_cxx12_Lock_policyE2EE@Qt_6 6.3.0
 (arch=armel riscv64)_ZTSSt16_Sp_counted_baseILN9__gnu_cxx12_Lock_policyE1EE@Qt_6 6.3.0
 (arch=!armel !riscv64)_ZTSSt16_Sp_counted_baseILN9__gnu_cxx12_Lock_policyE2EE@Qt_6 6.3.0
 _ZTSSt19_Sp_make_shared_tag@Qt_6 6.3.0
 _ZTSZN9QMetaType17registerConverterI5QListI11QModelIndexE9QIterableI13QMetaSequenceEN9QtPrivate33QSequentialIterableConvertFunctorIS3_EEEEbT1_EUlPKvPvE_@Qt_6 6.1.2
 _ZTSZN9QMetaType17registerConverterI5QListI21QPersistentModelIndexE9QIterableI13QMetaSequenceEN9QtPrivate33QSequentialIterableConvertFunctorIS3_EEEEbT1_EUlPKvPvE_@Qt_6 6.1.2
 _ZTSZN9QMetaType17registerConverterI5QListIN2Qt9DayOfWeekEE9QIterableI13QMetaSequenceEN9QtPrivate33QSequentialIterableConvertFunctorIS4_EEEEbT1_EUlPKvPvE_@Qt_6 6.1.2
 _ZTSZN9QMetaType17registerConverterI5QListIiE9QIterableI13QMetaSequenceEN9QtPrivate33QSequentialIterableConvertFunctorIS2_EEEEbT1_EUlPKvPvE_@Qt_6 6.1.2
 _ZTSZN9QMetaType19registerMutableViewI5QListI11QModelIndexE9QIterableI13QMetaSequenceEN9QtPrivate37QSequentialIterableMutableViewFunctorIS3_EEEEbT1_EUlPvSB_E_@Qt_6 6.1.2
 _ZTSZN9QMetaType19registerMutableViewI5QListI21QPersistentModelIndexE9QIterableI13QMetaSequenceEN9QtPrivate37QSequentialIterableMutableViewFunctorIS3_EEEEbT1_EUlPvSB_E_@Qt_6 6.1.2
 _ZTSZN9QMetaType19registerMutableViewI5QListIN2Qt9DayOfWeekEE9QIterableI13QMetaSequenceEN9QtPrivate37QSequentialIterableMutableViewFunctorIS4_EEEEbT1_EUlPvSC_E_@Qt_6 6.1.2
 _ZTSZN9QMetaType19registerMutableViewI5QListIiE9QIterableI13QMetaSequenceEN9QtPrivate37QSequentialIterableMutableViewFunctorIS2_EEEEbT1_EUlPvSA_E_@Qt_6 6.1.2
 _ZTV10QEventLoop@Qt_6 6.1.2
 _ZTV10QException@Qt_6 6.1.2
 _ZTV11QChildEvent@Qt_6 6.1.2
 _ZTV11QFileDevice@Qt_6 6.1.2
 _ZTV11QTextStream@Qt_6 6.1.2
 _ZTV11QThreadPool@Qt_6 6.1.2
 _ZTV11QTimerEvent@Qt_6 6.1.2
 _ZTV11QTranslator@Qt_6 6.1.2
 _ZTV13QFileSelector@Qt_6 6.1.2
 _ZTV13QPluginLoader@Qt_6 6.1.2
 _ZTV13QSharedMemory@Qt_6 6.1.2
 _ZTV13QSignalMapper@Qt_6 6.1.2
 _ZTV14QTemporaryFile@Qt_6 6.1.2
 _ZTV15QAnimationGroup@Qt_6 6.1.2
 _ZTV15QPauseAnimation@Qt_6 6.1.2
 _ZTV15QSocketNotifier@Qt_6 6.1.2
 _ZTV16QAnimationDriver@Qt_6 6.1.2
 _ZTV16QCoreApplication@Qt_6 6.1.2
 _ZTV16QStringListModel@Qt_6 6.1.2
 _ZTV17QFactoryInterface@Qt_6 6.1.2
 _ZTV17QVariantAnimation@Qt_6 6.1.2
 _ZTV18QAbstractAnimation@Qt_6 6.1.2
 _ZTV18QAbstractItemModel@Qt_6 6.1.2
 _ZTV18QAbstractListModel@Qt_6 6.1.2
 _ZTV18QFileSystemWatcher@Qt_6 6.1.2
 _ZTV18QFutureWatcherBase@Qt_6 6.1.2
 _ZTV18QPropertyAnimation@Qt_6 6.1.2
 _ZTV19QAbstractProxyModel@Qt_6 6.1.2
 _ZTV19QAbstractTableModel@Qt_6 6.1.2
 _ZTV19QIdentityProxyModel@Qt_6 6.1.2
 _ZTV19QItemSelectionModel@Qt_6 6.1.2
 _ZTV19QUnhandledException@Qt_6 6.1.2
 _ZTV20QDeferredDeleteEvent@Qt_6 6.1.2
 _ZTV20QFutureInterfaceBase@Qt_6 6.1.2
 _ZTV20QTransposeProxyModel@Qt_6 6.1.2
 _ZTV21QObjectCleanupHandler@Qt_6 6.1.2
 _ZTV21QSortFilterProxyModel@Qt_6 6.1.2
 _ZTV23QParallelAnimationGroup@Qt_6 6.1.2
 _ZTV24QAbstractEventDispatcher@Qt_6 6.1.2
 _ZTV24QXmlStreamEntityResolver@Qt_6 6.1.2
 _ZTV25QSequentialAnimationGroup@Qt_6 6.1.2
 _ZTV26QAbstractNativeEventFilter@Qt_6 6.1.2
 _ZTV27QDynamicPropertyChangeEvent@Qt_6 6.1.2
 _ZTV28QConcatenateTablesProxyModel@Qt_6 6.1.2
 _ZTV5QFile@Qt_6 6.1.2
 _ZTV6QEvent@Qt_6 6.1.2
 _ZTV6QTimer@Qt_6 6.1.2
 _ZTV7QBuffer@Qt_6 6.1.2
 _ZTV7QObject@Qt_6 6.1.2
 _ZTV7QThread@Qt_6 6.1.2
 _ZTV8QLibrary@Qt_6 6.1.2
 _ZTV8QProcess@Qt_6 6.1.2
 _ZTV9QIODevice@Qt_6 6.1.2
 _ZTV9QMimeData@Qt_6 6.1.2
 _ZTV9QRunnable@Qt_6 6.1.2
 _ZTV9QSaveFile@Qt_6 6.1.2
 _ZTV9QSettings@Qt_6 6.1.2
 _ZTV9QTimeLine@Qt_6 6.1.2
 _ZTVN9QtPrivate15ResultStoreBaseE@Qt_6 6.1.2
 (optional=templinst)_ZZN9QMetaType21registerConverterImplI5QListI11QModelIndexE9QIterableI13QMetaSequenceEEEbSt8functionIFbPKvPvEES_S_E10unregister@Qt_6 6.2.0
 (optional=templinst)_ZZN9QMetaType21registerConverterImplI5QListI21QPersistentModelIndexE9QIterableI13QMetaSequenceEEEbSt8functionIFbPKvPvEES_S_E10unregister@Qt_6 6.2.0
 (optional=templinst)_ZZN9QMetaType21registerConverterImplI5QListIN2Qt9DayOfWeekEE9QIterableI13QMetaSequenceEEEbSt8functionIFbPKvPvEES_S_E10unregister@Qt_6 6.2.0
 (optional=templinst)_ZZN9QMetaType21registerConverterImplI5QListIiE9QIterableI13QMetaSequenceEEEbSt8functionIFbPKvPvEES_S_E10unregister@Qt_6 6.2.0
 (optional=templinst)_ZZN9QMetaType23registerMutableViewImplI5QListI11QModelIndexE9QIterableI13QMetaSequenceEEEbSt8functionIFbPvS8_EES_S_E10unregister@Qt_6 6.2.0
 (optional=templinst)_ZZN9QMetaType23registerMutableViewImplI5QListI21QPersistentModelIndexE9QIterableI13QMetaSequenceEEEbSt8functionIFbPvS8_EES_S_E10unregister@Qt_6 6.2.0
 (optional=templinst)_ZZN9QMetaType23registerMutableViewImplI5QListIN2Qt9DayOfWeekEE9QIterableI13QMetaSequenceEEEbSt8functionIFbPvS9_EES_S_E10unregister@Qt_6 6.2.0
 (optional=templinst)_ZZN9QMetaType23registerMutableViewImplI5QListIiE9QIterableI13QMetaSequenceEEEbSt8functionIFbPvS7_EES_S_E10unregister@Qt_6 6.2.0
 (optional=templinst)_ZZN9QtPrivate16QMetaTypeForTypeI10QByteArrayE10getCopyCtrEvENUlPKNS_18QMetaTypeInterfaceEPvPKvE_4_FUNES5_S6_S8_@Qt_6 6.4.0
 (optional=templinst)_ZZN9QtPrivate16QMetaTypeForTypeI10QByteArrayE10getMoveCtrEvENUlPKNS_18QMetaTypeInterfaceEPvS6_E_4_FUNES5_S6_S6_@Qt_6 6.4.0
 (optional=templinst)_ZZN9QtPrivate16QMetaTypeForTypeI10QByteArrayE13getDefaultCtrEvENUlPKNS_18QMetaTypeInterfaceEPvE_4_FUNES5_S6_@Qt_6 6.4.0
 (optional=templinst)_ZZN9QtPrivate16QMetaTypeForTypeI10QByteArrayE7getDtorEvENUlPKNS_18QMetaTypeInterfaceEPvE_4_FUNES5_S6_@Qt_6 6.4.0
 (optional=templinst)_ZZN9QtPrivate16QMetaTypeForTypeI10QCborArrayE10getCopyCtrEvENUlPKNS_18QMetaTypeInterfaceEPvPKvE_4_FUNES5_S6_S8_@Qt_6 6.4.0
 (optional=templinst)_ZZN9QtPrivate16QMetaTypeForTypeI10QCborArrayE10getMoveCtrEvENUlPKNS_18QMetaTypeInterfaceEPvS6_E_4_FUNES5_S6_S6_@Qt_6 6.4.0
 (optional=templinst)_ZZN9QtPrivate16QMetaTypeForTypeI10QCborArrayE13getDefaultCtrEvENUlPKNS_18QMetaTypeInterfaceEPvE_4_FUNES5_S6_@Qt_6 6.4.0
 (optional=templinst)_ZZN9QtPrivate16QMetaTypeForTypeI10QCborArrayE7getDtorEvENUlPKNS_18QMetaTypeInterfaceEPvE_4_FUNES5_S6_@Qt_6 6.4.0
 (optional=templinst)_ZZN9QtPrivate16QMetaTypeForTypeI10QCborValueE10getCopyCtrEvENUlPKNS_18QMetaTypeInterfaceEPvPKvE_4_FUNES5_S6_S8_@Qt_6 6.4.0
 (optional=templinst)_ZZN9QtPrivate16QMetaTypeForTypeI10QCborValueE10getMoveCtrEvENUlPKNS_18QMetaTypeInterfaceEPvS6_E_4_FUNES5_S6_S6_@Qt_6 6.4.0
 (optional=templinst)_ZZN9QtPrivate16QMetaTypeForTypeI10QCborValueE13getDefaultCtrEvENUlPKNS_18QMetaTypeInterfaceEPvE_4_FUNES5_S6_@Qt_6 6.4.0
 (optional=templinst)_ZZN9QtPrivate16QMetaTypeForTypeI10QCborValueE7getDtorEvENUlPKNS_18QMetaTypeInterfaceEPvE_4_FUNES5_S6_@Qt_6 6.4.0
 (optional=templinst)_ZZN9QtPrivate16QMetaTypeForTypeI10QJsonArrayE10getCopyCtrEvENUlPKNS_18QMetaTypeInterfaceEPvPKvE_4_FUNES5_S6_S8_@Qt_6 6.4.0
 (optional=templinst)_ZZN9QtPrivate16QMetaTypeForTypeI10QJsonArrayE10getMoveCtrEvENUlPKNS_18QMetaTypeInterfaceEPvS6_E_4_FUNES5_S6_S6_@Qt_6 6.4.0
 (optional=templinst)_ZZN9QtPrivate16QMetaTypeForTypeI10QJsonArrayE13getDefaultCtrEvENUlPKNS_18QMetaTypeInterfaceEPvE_4_FUNES5_S6_@Qt_6 6.4.0
 (optional=templinst)_ZZN9QtPrivate16QMetaTypeForTypeI10QJsonArrayE7getDtorEvENUlPKNS_18QMetaTypeInterfaceEPvE_4_FUNES5_S6_@Qt_6 6.4.0
 (optional=templinst)_ZZN9QtPrivate16QMetaTypeForTypeI10QJsonValueE10getCopyCtrEvENUlPKNS_18QMetaTypeInterfaceEPvPKvE_4_FUNES5_S6_S8_@Qt_6 6.4.0
 (optional=templinst)_ZZN9QtPrivate16QMetaTypeForTypeI10QJsonValueE10getMoveCtrEvENUlPKNS_18QMetaTypeInterfaceEPvS6_E_4_FUNES5_S6_S6_@Qt_6 6.4.0
 (optional=templinst)_ZZN9QtPrivate16QMetaTypeForTypeI10QJsonValueE13getDefaultCtrEvENUlPKNS_18QMetaTypeInterfaceEPvE_4_FUNES5_S6_@Qt_6 6.4.0
 (optional=templinst)_ZZN9QtPrivate16QMetaTypeForTypeI10QJsonValueE7getDtorEvENUlPKNS_18QMetaTypeInterfaceEPvE_4_FUNES5_S6_@Qt_6 6.4.0
 (optional=templinst)_ZZN9QtPrivate16QMetaTypeForTypeI11QJsonObjectE10getCopyCtrEvENUlPKNS_18QMetaTypeInterfaceEPvPKvE_4_FUNES5_S6_S8_@Qt_6 6.4.0
 (optional=templinst)_ZZN9QtPrivate16QMetaTypeForTypeI11QJsonObjectE10getMoveCtrEvENUlPKNS_18QMetaTypeInterfaceEPvS6_E_4_FUNES5_S6_S6_@Qt_6 6.4.0
 (optional=templinst)_ZZN9QtPrivate16QMetaTypeForTypeI11QJsonObjectE13getDefaultCtrEvENUlPKNS_18QMetaTypeInterfaceEPvE_4_FUNES5_S6_@Qt_6 6.4.0
 (optional=templinst)_ZZN9QtPrivate16QMetaTypeForTypeI11QJsonObjectE7getDtorEvENUlPKNS_18QMetaTypeInterfaceEPvE_4_FUNES5_S6_@Qt_6 6.4.0
 (optional=templinst)_ZZN9QtPrivate16QMetaTypeForTypeI11QModelIndexE10getCopyCtrEvENUlPKNS_18QMetaTypeInterfaceEPvPKvE_4_FUNES5_S6_S8_@Qt_6 6.4.0
 (optional=templinst)_ZZN9QtPrivate16QMetaTypeForTypeI11QModelIndexE10getMoveCtrEvENUlPKNS_18QMetaTypeInterfaceEPvS6_E_4_FUNES5_S6_S6_@Qt_6 6.4.0
 (optional=templinst)_ZZN9QtPrivate16QMetaTypeForTypeI11QModelIndexE13getDefaultCtrEvENUlPKNS_18QMetaTypeInterfaceEPvE_4_FUNES5_S6_@Qt_6 6.4.0
 (optional=templinst)_ZZN9QtPrivate16QMetaTypeForTypeI12QEasingCurveE10getCopyCtrEvENUlPKNS_18QMetaTypeInterfaceEPvPKvE_4_FUNES5_S6_S8_@Qt_6 6.4.0
 (optional=templinst)_ZZN9QtPrivate16QMetaTypeForTypeI12QEasingCurveE10getMoveCtrEvENUlPKNS_18QMetaTypeInterfaceEPvS6_E_4_FUNES5_S6_S6_@Qt_6 6.4.0
 (optional=templinst)_ZZN9QtPrivate16QMetaTypeForTypeI12QEasingCurveE13getDefaultCtrEvENUlPKNS_18QMetaTypeInterfaceEPvE_4_FUNES5_S6_@Qt_6 6.4.0
 (optional=templinst)_ZZN9QtPrivate16QMetaTypeForTypeI12QEasingCurveE7getDtorEvENUlPKNS_18QMetaTypeInterfaceEPvE_4_FUNES5_S6_@Qt_6 6.4.0
 (optional=templinst)_ZZN9QtPrivate16QMetaTypeForTypeI13QJsonDocumentE10getCopyCtrEvENUlPKNS_18QMetaTypeInterfaceEPvPKvE_4_FUNES5_S6_S8_@Qt_6 6.4.0
 (optional=templinst)_ZZN9QtPrivate16QMetaTypeForTypeI13QJsonDocumentE10getMoveCtrEvENUlPKNS_18QMetaTypeInterfaceEPvS6_E_4_FUNES5_S6_S6_@Qt_6 6.4.0
 (optional=templinst)_ZZN9QtPrivate16QMetaTypeForTypeI13QJsonDocumentE13getDefaultCtrEvENUlPKNS_18QMetaTypeInterfaceEPvE_4_FUNES5_S6_@Qt_6 6.4.0
 (optional=templinst)_ZZN9QtPrivate16QMetaTypeForTypeI13QJsonDocumentE7getDtorEvENUlPKNS_18QMetaTypeInterfaceEPvE_4_FUNES5_S6_@Qt_6 6.4.0
 (optional=templinst)_ZZN9QtPrivate16QMetaTypeForTypeI15QCborSimpleTypeE10getCopyCtrEvENUlPKNS_18QMetaTypeInterfaceEPvPKvE_4_FUNES5_S6_S8_@Qt_6 6.4.0
 (optional=templinst)_ZZN9QtPrivate16QMetaTypeForTypeI15QCborSimpleTypeE10getMoveCtrEvENUlPKNS_18QMetaTypeInterfaceEPvS6_E_4_FUNES5_S6_S6_@Qt_6 6.4.0
 (optional=templinst)_ZZN9QtPrivate16QMetaTypeForTypeI15QCborSimpleTypeE13getDefaultCtrEvENUlPKNS_18QMetaTypeInterfaceEPvE_4_FUNES5_S6_@Qt_6 6.4.0
 (optional=templinst)_ZZN9QtPrivate16QMetaTypeForTypeI18QRegularExpressionE10getCopyCtrEvENUlPKNS_18QMetaTypeInterfaceEPvPKvE_4_FUNES5_S6_S8_@Qt_6 6.4.0
 (optional=templinst)_ZZN9QtPrivate16QMetaTypeForTypeI18QRegularExpressionE10getMoveCtrEvENUlPKNS_18QMetaTypeInterfaceEPvS6_E_4_FUNES5_S6_S6_@Qt_6 6.4.0
 (optional=templinst)_ZZN9QtPrivate16QMetaTypeForTypeI18QRegularExpressionE13getDefaultCtrEvENUlPKNS_18QMetaTypeInterfaceEPvE_4_FUNES5_S6_@Qt_6 6.4.0
 (optional=templinst)_ZZN9QtPrivate16QMetaTypeForTypeI18QRegularExpressionE7getDtorEvENUlPKNS_18QMetaTypeInterfaceEPvE_4_FUNES5_S6_@Qt_6 6.4.0
 (optional=templinst)_ZZN9QtPrivate16QMetaTypeForTypeI21QPersistentModelIndexE10getCopyCtrEvENUlPKNS_18QMetaTypeInterfaceEPvPKvE_4_FUNES5_S6_S8_@Qt_6 6.4.0
 (optional=templinst)_ZZN9QtPrivate16QMetaTypeForTypeI21QPersistentModelIndexE10getMoveCtrEvENUlPKNS_18QMetaTypeInterfaceEPvS6_E_4_FUNES5_S6_S6_@Qt_6 6.4.0
 (optional=templinst)_ZZN9QtPrivate16QMetaTypeForTypeI21QPersistentModelIndexE13getDefaultCtrEvENUlPKNS_18QMetaTypeInterfaceEPvE_4_FUNES5_S6_@Qt_6 6.4.0
 (optional=templinst)_ZZN9QtPrivate16QMetaTypeForTypeI21QPersistentModelIndexE7getDtorEvENUlPKNS_18QMetaTypeInterfaceEPvE_4_FUNES5_S6_@Qt_6 6.4.0
 (optional=templinst)_ZZN9QtPrivate16QMetaTypeForTypeI4QMapI7QString8QVariantEE10getCopyCtrEvENUlPKNS_18QMetaTypeInterfaceEPvPKvE_4_FUNES8_S9_SB_@Qt_6 6.4.0
 (optional=templinst)_ZZN9QtPrivate16QMetaTypeForTypeI4QMapI7QString8QVariantEE10getMoveCtrEvENUlPKNS_18QMetaTypeInterfaceEPvS9_E_4_FUNES8_S9_S9_@Qt_6 6.4.0
 (optional=templinst)_ZZN9QtPrivate16QMetaTypeForTypeI4QMapI7QString8QVariantEE13getDefaultCtrEvENUlPKNS_18QMetaTypeInterfaceEPvE_4_FUNES8_S9_@Qt_6 6.4.0
 (optional=templinst)_ZZN9QtPrivate16QMetaTypeForTypeI4QMapI7QString8QVariantEE7getDtorEvENUlPKNS_18QMetaTypeInterfaceEPvE_4_FUNES8_S9_@Qt_6 6.4.0
 (optional=templinst)_ZZN9QtPrivate16QMetaTypeForTypeI4QUrlE10getCopyCtrEvENUlPKNS_18QMetaTypeInterfaceEPvPKvE_4_FUNES5_S6_S8_@Qt_6 6.4.0
 (optional=templinst)_ZZN9QtPrivate16QMetaTypeForTypeI4QUrlE10getMoveCtrEvENUlPKNS_18QMetaTypeInterfaceEPvS6_E_4_FUNES5_S6_S6_@Qt_6 6.4.0
 (optional=templinst)_ZZN9QtPrivate16QMetaTypeForTypeI4QUrlE13getDefaultCtrEvENUlPKNS_18QMetaTypeInterfaceEPvE_4_FUNES5_S6_@Qt_6 6.4.0
 (optional=templinst)_ZZN9QtPrivate16QMetaTypeForTypeI4QUrlE7getDtorEvENUlPKNS_18QMetaTypeInterfaceEPvE_4_FUNES5_S6_@Qt_6 6.4.0
 (optional=templinst)_ZZN9QtPrivate16QMetaTypeForTypeI5QCharE10getCopyCtrEvENUlPKNS_18QMetaTypeInterfaceEPvPKvE_4_FUNES5_S6_S8_@Qt_6 6.4.0
 (optional=templinst)_ZZN9QtPrivate16QMetaTypeForTypeI5QCharE10getMoveCtrEvENUlPKNS_18QMetaTypeInterfaceEPvS6_E_4_FUNES5_S6_S6_@Qt_6 6.4.0
 (optional=templinst)_ZZN9QtPrivate16QMetaTypeForTypeI5QCharE13getDefaultCtrEvENUlPKNS_18QMetaTypeInterfaceEPvE_4_FUNES5_S6_@Qt_6 6.4.0
 (optional=templinst)_ZZN9QtPrivate16QMetaTypeForTypeI5QDateE10getCopyCtrEvENUlPKNS_18QMetaTypeInterfaceEPvPKvE_4_FUNES5_S6_S8_@Qt_6 6.4.0
 (optional=templinst)_ZZN9QtPrivate16QMetaTypeForTypeI5QDateE10getMoveCtrEvENUlPKNS_18QMetaTypeInterfaceEPvS6_E_4_FUNES5_S6_S6_@Qt_6 6.4.0
 (optional=templinst)_ZZN9QtPrivate16QMetaTypeForTypeI5QDateE13getDefaultCtrEvENUlPKNS_18QMetaTypeInterfaceEPvE_4_FUNES5_S6_@Qt_6 6.4.0
 (optional=templinst)_ZZN9QtPrivate16QMetaTypeForTypeI5QHashI7QString8QVariantEE10getCopyCtrEvENUlPKNS_18QMetaTypeInterfaceEPvPKvE_4_FUNES8_S9_SB_@Qt_6 6.4.0
 (optional=templinst)_ZZN9QtPrivate16QMetaTypeForTypeI5QHashI7QString8QVariantEE10getMoveCtrEvENUlPKNS_18QMetaTypeInterfaceEPvS9_E_4_FUNES8_S9_S9_@Qt_6 6.4.0
 (optional=templinst)_ZZN9QtPrivate16QMetaTypeForTypeI5QHashI7QString8QVariantEE13getDefaultCtrEvENUlPKNS_18QMetaTypeInterfaceEPvE_4_FUNES8_S9_@Qt_6 6.4.0
 (optional=templinst)_ZZN9QtPrivate16QMetaTypeForTypeI5QHashI7QString8QVariantEE7getDtorEvENUlPKNS_18QMetaTypeInterfaceEPvE_4_FUNES8_S9_@Qt_6 6.4.0
 (optional=templinst)_ZZN9QtPrivate16QMetaTypeForTypeI5QLineE10getCopyCtrEvENUlPKNS_18QMetaTypeInterfaceEPvPKvE_4_FUNES5_S6_S8_@Qt_6 6.4.0
 (optional=templinst)_ZZN9QtPrivate16QMetaTypeForTypeI5QLineE10getMoveCtrEvENUlPKNS_18QMetaTypeInterfaceEPvS6_E_4_FUNES5_S6_S6_@Qt_6 6.4.0
 (optional=templinst)_ZZN9QtPrivate16QMetaTypeForTypeI5QLineE13getDefaultCtrEvENUlPKNS_18QMetaTypeInterfaceEPvE_4_FUNES5_S6_@Qt_6 6.4.0
 (optional=templinst)_ZZN9QtPrivate16QMetaTypeForTypeI5QListI10QByteArrayEE10getCopyCtrEvENUlPKNS_18QMetaTypeInterfaceEPvPKvE_4_FUNES7_S8_SA_@Qt_6 6.4.0
 (optional=templinst)_ZZN9QtPrivate16QMetaTypeForTypeI5QListI10QByteArrayEE10getMoveCtrEvENUlPKNS_18QMetaTypeInterfaceEPvS8_E_4_FUNES7_S8_S8_@Qt_6 6.4.0
 (optional=templinst)_ZZN9QtPrivate16QMetaTypeForTypeI5QListI10QByteArrayEE13getDefaultCtrEvENUlPKNS_18QMetaTypeInterfaceEPvE_4_FUNES7_S8_@Qt_6 6.4.0
 (optional=templinst)_ZZN9QtPrivate16QMetaTypeForTypeI5QListI10QByteArrayEE7getDtorEvENUlPKNS_18QMetaTypeInterfaceEPvE_4_FUNES7_S8_@Qt_6 6.4.0
 (optional=templinst)_ZZN9QtPrivate16QMetaTypeForTypeI5QListI7QStringEE10getCopyCtrEvENUlPKNS_18QMetaTypeInterfaceEPvPKvE_4_FUNES7_S8_SA_@Qt_6 6.4.0
 (optional=templinst)_ZZN9QtPrivate16QMetaTypeForTypeI5QListI7QStringEE10getMoveCtrEvENUlPKNS_18QMetaTypeInterfaceEPvS8_E_4_FUNES7_S8_S8_@Qt_6 6.4.0
 (optional=templinst)_ZZN9QtPrivate16QMetaTypeForTypeI5QListI7QStringEE13getDefaultCtrEvENUlPKNS_18QMetaTypeInterfaceEPvE_4_FUNES7_S8_@Qt_6 6.4.0
 (optional=templinst)_ZZN9QtPrivate16QMetaTypeForTypeI5QListI7QStringEE7getDtorEvENUlPKNS_18QMetaTypeInterfaceEPvE_4_FUNES7_S8_@Qt_6 6.4.0
 (optional=templinst)_ZZN9QtPrivate16QMetaTypeForTypeI5QListI8QVariantEE10getCopyCtrEvENUlPKNS_18QMetaTypeInterfaceEPvPKvE_4_FUNES7_S8_SA_@Qt_6 6.4.0
 (optional=templinst)_ZZN9QtPrivate16QMetaTypeForTypeI5QListI8QVariantEE10getMoveCtrEvENUlPKNS_18QMetaTypeInterfaceEPvS8_E_4_FUNES7_S8_S8_@Qt_6 6.4.0
 (optional=templinst)_ZZN9QtPrivate16QMetaTypeForTypeI5QListI8QVariantEE13getDefaultCtrEvENUlPKNS_18QMetaTypeInterfaceEPvE_4_FUNES7_S8_@Qt_6 6.4.0
 (optional=templinst)_ZZN9QtPrivate16QMetaTypeForTypeI5QListI8QVariantEE7getDtorEvENUlPKNS_18QMetaTypeInterfaceEPvE_4_FUNES7_S8_@Qt_6 6.4.0
 (optional=templinst)_ZZN9QtPrivate16QMetaTypeForTypeI5QRectE10getCopyCtrEvENUlPKNS_18QMetaTypeInterfaceEPvPKvE_4_FUNES5_S6_S8_@Qt_6 6.4.0
 (optional=templinst)_ZZN9QtPrivate16QMetaTypeForTypeI5QRectE10getMoveCtrEvENUlPKNS_18QMetaTypeInterfaceEPvS6_E_4_FUNES5_S6_S6_@Qt_6 6.4.0
 (optional=templinst)_ZZN9QtPrivate16QMetaTypeForTypeI5QRectE13getDefaultCtrEvENUlPKNS_18QMetaTypeInterfaceEPvE_4_FUNES5_S6_@Qt_6 6.4.0
 (optional=templinst)_ZZN9QtPrivate16QMetaTypeForTypeI5QSizeE10getCopyCtrEvENUlPKNS_18QMetaTypeInterfaceEPvPKvE_4_FUNES5_S6_S8_@Qt_6 6.4.0
 (optional=templinst)_ZZN9QtPrivate16QMetaTypeForTypeI5QSizeE10getMoveCtrEvENUlPKNS_18QMetaTypeInterfaceEPvS6_E_4_FUNES5_S6_S6_@Qt_6 6.4.0
 (optional=templinst)_ZZN9QtPrivate16QMetaTypeForTypeI5QSizeE13getDefaultCtrEvENUlPKNS_18QMetaTypeInterfaceEPvE_4_FUNES5_S6_@Qt_6 6.4.0
 (optional=templinst)_ZZN9QtPrivate16QMetaTypeForTypeI5QTimeE10getCopyCtrEvENUlPKNS_18QMetaTypeInterfaceEPvPKvE_4_FUNES5_S6_S8_@Qt_6 6.4.0
 (optional=templinst)_ZZN9QtPrivate16QMetaTypeForTypeI5QTimeE10getMoveCtrEvENUlPKNS_18QMetaTypeInterfaceEPvS6_E_4_FUNES5_S6_S6_@Qt_6 6.4.0
 (optional=templinst)_ZZN9QtPrivate16QMetaTypeForTypeI5QTimeE13getDefaultCtrEvENUlPKNS_18QMetaTypeInterfaceEPvE_4_FUNES5_S6_@Qt_6 6.4.0
 (optional=templinst)_ZZN9QtPrivate16QMetaTypeForTypeI5QUuidE10getCopyCtrEvENUlPKNS_18QMetaTypeInterfaceEPvPKvE_4_FUNES5_S6_S8_@Qt_6 6.4.0
 (optional=templinst)_ZZN9QtPrivate16QMetaTypeForTypeI5QUuidE10getMoveCtrEvENUlPKNS_18QMetaTypeInterfaceEPvS6_E_4_FUNES5_S6_S6_@Qt_6 6.4.0
 (optional=templinst)_ZZN9QtPrivate16QMetaTypeForTypeI5QUuidE13getDefaultCtrEvENUlPKNS_18QMetaTypeInterfaceEPvE_4_FUNES5_S6_@Qt_6 6.4.0
 (optional=templinst)_ZZN9QtPrivate16QMetaTypeForTypeI6QLineFE10getCopyCtrEvENUlPKNS_18QMetaTypeInterfaceEPvPKvE_4_FUNES5_S6_S8_@Qt_6 6.4.0
 (optional=templinst)_ZZN9QtPrivate16QMetaTypeForTypeI6QLineFE10getMoveCtrEvENUlPKNS_18QMetaTypeInterfaceEPvS6_E_4_FUNES5_S6_S6_@Qt_6 6.4.0
 (optional=templinst)_ZZN9QtPrivate16QMetaTypeForTypeI6QLineFE13getDefaultCtrEvENUlPKNS_18QMetaTypeInterfaceEPvE_4_FUNES5_S6_@Qt_6 6.4.0
 (optional=templinst)_ZZN9QtPrivate16QMetaTypeForTypeI6QPointE10getCopyCtrEvENUlPKNS_18QMetaTypeInterfaceEPvPKvE_4_FUNES5_S6_S8_@Qt_6 6.4.0
 (optional=templinst)_ZZN9QtPrivate16QMetaTypeForTypeI6QPointE10getMoveCtrEvENUlPKNS_18QMetaTypeInterfaceEPvS6_E_4_FUNES5_S6_S6_@Qt_6 6.4.0
 (optional=templinst)_ZZN9QtPrivate16QMetaTypeForTypeI6QPointE13getDefaultCtrEvENUlPKNS_18QMetaTypeInterfaceEPvE_4_FUNES5_S6_@Qt_6 6.4.0
 (optional=templinst)_ZZN9QtPrivate16QMetaTypeForTypeI6QRectFE10getCopyCtrEvENUlPKNS_18QMetaTypeInterfaceEPvPKvE_4_FUNES5_S6_S8_@Qt_6 6.4.0
 (optional=templinst)_ZZN9QtPrivate16QMetaTypeForTypeI6QRectFE10getMoveCtrEvENUlPKNS_18QMetaTypeInterfaceEPvS6_E_4_FUNES5_S6_S6_@Qt_6 6.4.0
 (optional=templinst)_ZZN9QtPrivate16QMetaTypeForTypeI6QRectFE13getDefaultCtrEvENUlPKNS_18QMetaTypeInterfaceEPvE_4_FUNES5_S6_@Qt_6 6.4.0
 (optional=templinst)_ZZN9QtPrivate16QMetaTypeForTypeI6QSizeFE10getCopyCtrEvENUlPKNS_18QMetaTypeInterfaceEPvPKvE_4_FUNES5_S6_S8_@Qt_6 6.4.0
 (optional=templinst)_ZZN9QtPrivate16QMetaTypeForTypeI6QSizeFE10getMoveCtrEvENUlPKNS_18QMetaTypeInterfaceEPvS6_E_4_FUNES5_S6_S6_@Qt_6 6.4.0
 (optional=templinst)_ZZN9QtPrivate16QMetaTypeForTypeI6QSizeFE13getDefaultCtrEvENUlPKNS_18QMetaTypeInterfaceEPvE_4_FUNES5_S6_@Qt_6 6.4.0
 (optional=templinst)_ZZN9QtPrivate16QMetaTypeForTypeI7QLocaleE10getCopyCtrEvENUlPKNS_18QMetaTypeInterfaceEPvPKvE_4_FUNES5_S6_S8_@Qt_6 6.4.0
 (optional=templinst)_ZZN9QtPrivate16QMetaTypeForTypeI7QLocaleE10getMoveCtrEvENUlPKNS_18QMetaTypeInterfaceEPvS6_E_4_FUNES5_S6_S6_@Qt_6 6.4.0
 (optional=templinst)_ZZN9QtPrivate16QMetaTypeForTypeI7QLocaleE13getDefaultCtrEvENUlPKNS_18QMetaTypeInterfaceEPvE_4_FUNES5_S6_@Qt_6 6.4.0
 (optional=templinst)_ZZN9QtPrivate16QMetaTypeForTypeI7QLocaleE7getDtorEvENUlPKNS_18QMetaTypeInterfaceEPvE_4_FUNES5_S6_@Qt_6 6.4.0
 (optional=templinst)_ZZN9QtPrivate16QMetaTypeForTypeI7QPointFE10getCopyCtrEvENUlPKNS_18QMetaTypeInterfaceEPvPKvE_4_FUNES5_S6_S8_@Qt_6 6.4.0
 (optional=templinst)_ZZN9QtPrivate16QMetaTypeForTypeI7QPointFE10getMoveCtrEvENUlPKNS_18QMetaTypeInterfaceEPvS6_E_4_FUNES5_S6_S6_@Qt_6 6.4.0
 (optional=templinst)_ZZN9QtPrivate16QMetaTypeForTypeI7QPointFE13getDefaultCtrEvENUlPKNS_18QMetaTypeInterfaceEPvE_4_FUNES5_S6_@Qt_6 6.4.0
 (optional=templinst)_ZZN9QtPrivate16QMetaTypeForTypeI7QStringE10getCopyCtrEvENUlPKNS_18QMetaTypeInterfaceEPvPKvE_4_FUNES5_S6_S8_@Qt_6 6.4.0
 (optional=templinst)_ZZN9QtPrivate16QMetaTypeForTypeI7QStringE10getMoveCtrEvENUlPKNS_18QMetaTypeInterfaceEPvS6_E_4_FUNES5_S6_S6_@Qt_6 6.4.0
 (optional=templinst)_ZZN9QtPrivate16QMetaTypeForTypeI7QStringE13getDefaultCtrEvENUlPKNS_18QMetaTypeInterfaceEPvE_4_FUNES5_S6_@Qt_6 6.4.0
 (optional=templinst)_ZZN9QtPrivate16QMetaTypeForTypeI7QStringE7getDtorEvENUlPKNS_18QMetaTypeInterfaceEPvE_4_FUNES5_S6_@Qt_6 6.4.0
 (optional=templinst)_ZZN9QtPrivate16QMetaTypeForTypeI8QCborMapE10getCopyCtrEvENUlPKNS_18QMetaTypeInterfaceEPvPKvE_4_FUNES5_S6_S8_@Qt_6 6.4.0
 (optional=templinst)_ZZN9QtPrivate16QMetaTypeForTypeI8QCborMapE10getMoveCtrEvENUlPKNS_18QMetaTypeInterfaceEPvS6_E_4_FUNES5_S6_S6_@Qt_6 6.4.0
 (optional=templinst)_ZZN9QtPrivate16QMetaTypeForTypeI8QCborMapE13getDefaultCtrEvENUlPKNS_18QMetaTypeInterfaceEPvE_4_FUNES5_S6_@Qt_6 6.4.0
 (optional=templinst)_ZZN9QtPrivate16QMetaTypeForTypeI8QCborMapE7getDtorEvENUlPKNS_18QMetaTypeInterfaceEPvE_4_FUNES5_S6_@Qt_6 6.4.0
 (optional=templinst)_ZZN9QtPrivate16QMetaTypeForTypeI8QVariantE10getCopyCtrEvENUlPKNS_18QMetaTypeInterfaceEPvPKvE_4_FUNES5_S6_S8_@Qt_6 6.4.0
 (optional=templinst)_ZZN9QtPrivate16QMetaTypeForTypeI8QVariantE10getMoveCtrEvENUlPKNS_18QMetaTypeInterfaceEPvS6_E_4_FUNES5_S6_S6_@Qt_6 6.4.0
 (optional=templinst)_ZZN9QtPrivate16QMetaTypeForTypeI8QVariantE13getDefaultCtrEvENUlPKNS_18QMetaTypeInterfaceEPvE_4_FUNES5_S6_@Qt_6 6.4.0
 (optional=templinst)_ZZN9QtPrivate16QMetaTypeForTypeI8QVariantE7getDtorEvENUlPKNS_18QMetaTypeInterfaceEPvE_4_FUNES5_S6_@Qt_6 6.4.0
 (optional=templinst)_ZZN9QtPrivate16QMetaTypeForTypeI9QBitArrayE10getCopyCtrEvENUlPKNS_18QMetaTypeInterfaceEPvPKvE_4_FUNES5_S6_S8_@Qt_6 6.4.0
 (optional=templinst)_ZZN9QtPrivate16QMetaTypeForTypeI9QBitArrayE10getMoveCtrEvENUlPKNS_18QMetaTypeInterfaceEPvS6_E_4_FUNES5_S6_S6_@Qt_6 6.4.0
 (optional=templinst)_ZZN9QtPrivate16QMetaTypeForTypeI9QBitArrayE13getDefaultCtrEvENUlPKNS_18QMetaTypeInterfaceEPvE_4_FUNES5_S6_@Qt_6 6.4.0
 (optional=templinst)_ZZN9QtPrivate16QMetaTypeForTypeI9QBitArrayE7getDtorEvENUlPKNS_18QMetaTypeInterfaceEPvE_4_FUNES5_S6_@Qt_6 6.4.0
 (optional=templinst)_ZZN9QtPrivate16QMetaTypeForTypeI9QDateTimeE10getCopyCtrEvENUlPKNS_18QMetaTypeInterfaceEPvPKvE_4_FUNES5_S6_S8_@Qt_6 6.4.0
 (optional=templinst)_ZZN9QtPrivate16QMetaTypeForTypeI9QDateTimeE10getMoveCtrEvENUlPKNS_18QMetaTypeInterfaceEPvS6_E_4_FUNES5_S6_S6_@Qt_6 6.4.0
 (optional=templinst)_ZZN9QtPrivate16QMetaTypeForTypeI9QDateTimeE13getDefaultCtrEvENUlPKNS_18QMetaTypeInterfaceEPvE_4_FUNES5_S6_@Qt_6 6.4.0
 (optional=templinst)_ZZN9QtPrivate16QMetaTypeForTypeI9QDateTimeE7getDtorEvENUlPKNS_18QMetaTypeInterfaceEPvE_4_FUNES5_S6_@Qt_6 6.4.0
 (optional=templinst)_ZZN9QtPrivate16QMetaTypeForTypeIDiE10getCopyCtrEvENUlPKNS_18QMetaTypeInterfaceEPvPKvE_4_FUNES4_S5_S7_@Qt_6 6.4.0
 (optional=templinst)_ZZN9QtPrivate16QMetaTypeForTypeIDiE10getMoveCtrEvENUlPKNS_18QMetaTypeInterfaceEPvS5_E_4_FUNES4_S5_S5_@Qt_6 6.4.0
 (optional=templinst)_ZZN9QtPrivate16QMetaTypeForTypeIDiE13getDefaultCtrEvENUlPKNS_18QMetaTypeInterfaceEPvE_4_FUNES4_S5_@Qt_6 6.4.0
 (optional=templinst)_ZZN9QtPrivate16QMetaTypeForTypeIDnE10getCopyCtrEvENUlPKNS_18QMetaTypeInterfaceEPvPKvE_4_FUNES4_S5_S7_@Qt_6 6.4.0
 (optional=templinst)_ZZN9QtPrivate16QMetaTypeForTypeIDnE10getMoveCtrEvENUlPKNS_18QMetaTypeInterfaceEPvS5_E_4_FUNES4_S5_S5_@Qt_6 6.4.0
 (optional=templinst)_ZZN9QtPrivate16QMetaTypeForTypeIDnE13getDefaultCtrEvENUlPKNS_18QMetaTypeInterfaceEPvE_4_FUNES4_S5_@Qt_6 6.4.0
 (optional=templinst)_ZZN9QtPrivate16QMetaTypeForTypeIDsE10getCopyCtrEvENUlPKNS_18QMetaTypeInterfaceEPvPKvE_4_FUNES4_S5_S7_@Qt_6 6.4.0
 (optional=templinst)_ZZN9QtPrivate16QMetaTypeForTypeIDsE10getMoveCtrEvENUlPKNS_18QMetaTypeInterfaceEPvS5_E_4_FUNES4_S5_S5_@Qt_6 6.4.0
 (optional=templinst)_ZZN9QtPrivate16QMetaTypeForTypeIDsE13getDefaultCtrEvENUlPKNS_18QMetaTypeInterfaceEPvE_4_FUNES4_S5_@Qt_6 6.4.0
 (optional=templinst)_ZZN9QtPrivate16QMetaTypeForTypeIP7QObjectE10getCopyCtrEvENUlPKNS_18QMetaTypeInterfaceEPvPKvE_4_FUNES6_S7_S9_@Qt_6 6.4.0
 (optional=templinst)_ZZN9QtPrivate16QMetaTypeForTypeIP7QObjectE10getMoveCtrEvENUlPKNS_18QMetaTypeInterfaceEPvS7_E_4_FUNES6_S7_S7_@Qt_6 6.4.0
 (optional=templinst)_ZZN9QtPrivate16QMetaTypeForTypeIP7QObjectE13getDefaultCtrEvENUlPKNS_18QMetaTypeInterfaceEPvE_4_FUNES6_S7_@Qt_6 6.4.0
 (optional=templinst)_ZZN9QtPrivate16QMetaTypeForTypeIPvE10getCopyCtrEvENUlPKNS_18QMetaTypeInterfaceES1_PKvE_4_FUNES5_S1_S7_@Qt_6 6.4.0
 (optional=templinst)_ZZN9QtPrivate16QMetaTypeForTypeIPvE10getMoveCtrEvENUlPKNS_18QMetaTypeInterfaceES1_S1_E_4_FUNES5_S1_S1_@Qt_6 6.4.0
 (optional=templinst)_ZZN9QtPrivate16QMetaTypeForTypeIPvE13getDefaultCtrEvENUlPKNS_18QMetaTypeInterfaceES1_E_4_FUNES5_S1_@Qt_6 6.4.0
 (optional=templinst)_ZZN9QtPrivate16QMetaTypeForTypeISt4pairI8QVariantS2_EE10getCopyCtrEvENUlPKNS_18QMetaTypeInterfaceEPvPKvE_4_FUNES7_S8_SA_@Qt_6 6.4.0
 (optional=templinst)_ZZN9QtPrivate16QMetaTypeForTypeISt4pairI8QVariantS2_EE10getMoveCtrEvENUlPKNS_18QMetaTypeInterfaceEPvS8_E_4_FUNES7_S8_S8_@Qt_6 6.4.0
 (optional=templinst)_ZZN9QtPrivate16QMetaTypeForTypeISt4pairI8QVariantS2_EE13getDefaultCtrEvENUlPKNS_18QMetaTypeInterfaceEPvE_4_FUNES7_S8_@Qt_6 6.4.0
 (optional=templinst)_ZZN9QtPrivate16QMetaTypeForTypeISt4pairI8QVariantS2_EE7getDtorEvENUlPKNS_18QMetaTypeInterfaceEPvE_4_FUNES7_S8_@Qt_6 6.4.0
 (optional=templinst)_ZZN9QtPrivate16QMetaTypeForTypeIaE10getCopyCtrEvENUlPKNS_18QMetaTypeInterfaceEPvPKvE_4_FUNES4_S5_S7_@Qt_6 6.4.0
 (optional=templinst)_ZZN9QtPrivate16QMetaTypeForTypeIaE10getMoveCtrEvENUlPKNS_18QMetaTypeInterfaceEPvS5_E_4_FUNES4_S5_S5_@Qt_6 6.4.0
 (optional=templinst)_ZZN9QtPrivate16QMetaTypeForTypeIaE13getDefaultCtrEvENUlPKNS_18QMetaTypeInterfaceEPvE_4_FUNES4_S5_@Qt_6 6.4.0
 (optional=templinst)_ZZN9QtPrivate16QMetaTypeForTypeIbE10getCopyCtrEvENUlPKNS_18QMetaTypeInterfaceEPvPKvE_4_FUNES4_S5_S7_@Qt_6 6.4.0
 (optional=templinst)_ZZN9QtPrivate16QMetaTypeForTypeIbE10getMoveCtrEvENUlPKNS_18QMetaTypeInterfaceEPvS5_E_4_FUNES4_S5_S5_@Qt_6 6.4.0
 (optional=templinst)_ZZN9QtPrivate16QMetaTypeForTypeIbE13getDefaultCtrEvENUlPKNS_18QMetaTypeInterfaceEPvE_4_FUNES4_S5_@Qt_6 6.4.0
 (optional=templinst)_ZZN9QtPrivate16QMetaTypeForTypeIcE10getCopyCtrEvENUlPKNS_18QMetaTypeInterfaceEPvPKvE_4_FUNES4_S5_S7_@Qt_6 6.4.0
 (optional=templinst)_ZZN9QtPrivate16QMetaTypeForTypeIcE10getMoveCtrEvENUlPKNS_18QMetaTypeInterfaceEPvS5_E_4_FUNES4_S5_S5_@Qt_6 6.4.0
 (optional=templinst)_ZZN9QtPrivate16QMetaTypeForTypeIcE13getDefaultCtrEvENUlPKNS_18QMetaTypeInterfaceEPvE_4_FUNES4_S5_@Qt_6 6.4.0
 (optional=templinst)_ZZN9QtPrivate16QMetaTypeForTypeIdE10getCopyCtrEvENUlPKNS_18QMetaTypeInterfaceEPvPKvE_4_FUNES4_S5_S7_@Qt_6 6.4.0
 (optional=templinst)_ZZN9QtPrivate16QMetaTypeForTypeIdE10getMoveCtrEvENUlPKNS_18QMetaTypeInterfaceEPvS5_E_4_FUNES4_S5_S5_@Qt_6 6.4.0
 (optional=templinst)_ZZN9QtPrivate16QMetaTypeForTypeIdE13getDefaultCtrEvENUlPKNS_18QMetaTypeInterfaceEPvE_4_FUNES4_S5_@Qt_6 6.4.0
 (optional=templinst)_ZZN9QtPrivate16QMetaTypeForTypeIfE10getCopyCtrEvENUlPKNS_18QMetaTypeInterfaceEPvPKvE_4_FUNES4_S5_S7_@Qt_6 6.4.0
 (optional=templinst)_ZZN9QtPrivate16QMetaTypeForTypeIfE10getMoveCtrEvENUlPKNS_18QMetaTypeInterfaceEPvS5_E_4_FUNES4_S5_S5_@Qt_6 6.4.0
 (optional=templinst)_ZZN9QtPrivate16QMetaTypeForTypeIfE13getDefaultCtrEvENUlPKNS_18QMetaTypeInterfaceEPvE_4_FUNES4_S5_@Qt_6 6.4.0
 (optional=templinst)_ZZN9QtPrivate16QMetaTypeForTypeIhE10getCopyCtrEvENUlPKNS_18QMetaTypeInterfaceEPvPKvE_4_FUNES4_S5_S7_@Qt_6 6.4.0
 (optional=templinst)_ZZN9QtPrivate16QMetaTypeForTypeIhE10getMoveCtrEvENUlPKNS_18QMetaTypeInterfaceEPvS5_E_4_FUNES4_S5_S5_@Qt_6 6.4.0
 (optional=templinst)_ZZN9QtPrivate16QMetaTypeForTypeIhE13getDefaultCtrEvENUlPKNS_18QMetaTypeInterfaceEPvE_4_FUNES4_S5_@Qt_6 6.4.0
 (optional=templinst)_ZZN9QtPrivate16QMetaTypeForTypeIiE10getCopyCtrEvENUlPKNS_18QMetaTypeInterfaceEPvPKvE_4_FUNES4_S5_S7_@Qt_6 6.4.0
 (optional=templinst)_ZZN9QtPrivate16QMetaTypeForTypeIiE10getMoveCtrEvENUlPKNS_18QMetaTypeInterfaceEPvS5_E_4_FUNES4_S5_S5_@Qt_6 6.4.0
 (optional=templinst)_ZZN9QtPrivate16QMetaTypeForTypeIiE13getDefaultCtrEvENUlPKNS_18QMetaTypeInterfaceEPvE_4_FUNES4_S5_@Qt_6 6.4.0
 (optional=templinst)_ZZN9QtPrivate16QMetaTypeForTypeIjE10getCopyCtrEvENUlPKNS_18QMetaTypeInterfaceEPvPKvE_4_FUNES4_S5_S7_@Qt_6 6.4.0
 (optional=templinst)_ZZN9QtPrivate16QMetaTypeForTypeIjE10getMoveCtrEvENUlPKNS_18QMetaTypeInterfaceEPvS5_E_4_FUNES4_S5_S5_@Qt_6 6.4.0
 (optional=templinst)_ZZN9QtPrivate16QMetaTypeForTypeIjE13getDefaultCtrEvENUlPKNS_18QMetaTypeInterfaceEPvE_4_FUNES4_S5_@Qt_6 6.4.0
 (optional=templinst)_ZZN9QtPrivate16QMetaTypeForTypeIlE10getCopyCtrEvENUlPKNS_18QMetaTypeInterfaceEPvPKvE_4_FUNES4_S5_S7_@Qt_6 6.4.0
 (optional=templinst)_ZZN9QtPrivate16QMetaTypeForTypeIlE10getMoveCtrEvENUlPKNS_18QMetaTypeInterfaceEPvS5_E_4_FUNES4_S5_S5_@Qt_6 6.4.0
 (optional=templinst)_ZZN9QtPrivate16QMetaTypeForTypeIlE13getDefaultCtrEvENUlPKNS_18QMetaTypeInterfaceEPvE_4_FUNES4_S5_@Qt_6 6.4.0
 (optional=templinst)_ZZN9QtPrivate16QMetaTypeForTypeImE10getCopyCtrEvENUlPKNS_18QMetaTypeInterfaceEPvPKvE_4_FUNES4_S5_S7_@Qt_6 6.4.0
 (optional=templinst)_ZZN9QtPrivate16QMetaTypeForTypeImE10getMoveCtrEvENUlPKNS_18QMetaTypeInterfaceEPvS5_E_4_FUNES4_S5_S5_@Qt_6 6.4.0
 (optional=templinst)_ZZN9QtPrivate16QMetaTypeForTypeImE13getDefaultCtrEvENUlPKNS_18QMetaTypeInterfaceEPvE_4_FUNES4_S5_@Qt_6 6.4.0
 (optional=templinst)_ZZN9QtPrivate16QMetaTypeForTypeIsE10getCopyCtrEvENUlPKNS_18QMetaTypeInterfaceEPvPKvE_4_FUNES4_S5_S7_@Qt_6 6.4.0
 (optional=templinst)_ZZN9QtPrivate16QMetaTypeForTypeIsE10getMoveCtrEvENUlPKNS_18QMetaTypeInterfaceEPvS5_E_4_FUNES4_S5_S5_@Qt_6 6.4.0
 (optional=templinst)_ZZN9QtPrivate16QMetaTypeForTypeIsE13getDefaultCtrEvENUlPKNS_18QMetaTypeInterfaceEPvE_4_FUNES4_S5_@Qt_6 6.4.0
 (optional=templinst)_ZZN9QtPrivate16QMetaTypeForTypeItE10getCopyCtrEvENUlPKNS_18QMetaTypeInterfaceEPvPKvE_4_FUNES4_S5_S7_@Qt_6 6.4.0
 (optional=templinst)_ZZN9QtPrivate16QMetaTypeForTypeItE10getMoveCtrEvENUlPKNS_18QMetaTypeInterfaceEPvS5_E_4_FUNES4_S5_S5_@Qt_6 6.4.0
 (optional=templinst)_ZZN9QtPrivate16QMetaTypeForTypeItE13getDefaultCtrEvENUlPKNS_18QMetaTypeInterfaceEPvE_4_FUNES4_S5_@Qt_6 6.4.0
 (optional=templinst)_ZZN9QtPrivate16QMetaTypeForTypeIxE10getCopyCtrEvENUlPKNS_18QMetaTypeInterfaceEPvPKvE_4_FUNES4_S5_S7_@Qt_6 6.4.0
 (optional=templinst)_ZZN9QtPrivate16QMetaTypeForTypeIxE10getMoveCtrEvENUlPKNS_18QMetaTypeInterfaceEPvS5_E_4_FUNES4_S5_S5_@Qt_6 6.4.0
 (optional=templinst)_ZZN9QtPrivate16QMetaTypeForTypeIxE13getDefaultCtrEvENUlPKNS_18QMetaTypeInterfaceEPvE_4_FUNES4_S5_@Qt_6 6.4.0
 (optional=templinst)_ZZN9QtPrivate16QMetaTypeForTypeIyE10getCopyCtrEvENUlPKNS_18QMetaTypeInterfaceEPvPKvE_4_FUNES4_S5_S7_@Qt_6 6.4.0
 (optional=templinst)_ZZN9QtPrivate16QMetaTypeForTypeIyE10getMoveCtrEvENUlPKNS_18QMetaTypeInterfaceEPvS5_E_4_FUNES4_S5_S5_@Qt_6 6.4.0
 (optional=templinst)_ZZN9QtPrivate16QMetaTypeForTypeIyE13getDefaultCtrEvENUlPKNS_18QMetaTypeInterfaceEPvE_4_FUNES4_S5_@Qt_6 6.4.0
 _ZZNSt19_Sp_make_shared_tag5_S_tiEvE5__tag@Qt_6 6.3.0
 _ZanRK9QBitArrayS1_@Qt_6 6.1.2
 _ZeoRK9QBitArrayS1_@Qt_6 6.1.2
 _ZeqRK16QRandomGeneratorS1_@Qt_6 6.1.2
 _Zls6QDebug14QCborKnownTags@Qt_6 6.1.2
 _Zls6QDebug15QCborSimpleType@Qt_6 6.1.2
 _Zls6QDebug5QDate@Qt_6 6.1.2
 _Zls6QDebug5QTime@Qt_6 6.1.2
 _Zls6QDebug6QFlagsIN13QIODeviceBase12OpenModeFlagEE@Qt_6 6.1.2
 _Zls6QDebug6QFlagsIN18QRegularExpression13PatternOptionEE@Qt_6 6.1.2
 _Zls6QDebug6QFlagsIN4QDir6FilterEE@Qt_6 6.1.2
 _Zls6QDebug8QCborTag@Qt_6 6.1.2
 _Zls6QDebugN8QVariant4TypeE@Qt_6 6.1.2
 _Zls6QDebugPK7QObject@Qt_6 6.1.2
 _Zls6QDebugRK10QCborArray@Qt_6 6.1.2
 _Zls6QDebugRK10QCborValue@Qt_6 6.1.2
 _Zls6QDebugRK10QJsonArray@Qt_6 6.1.2
 _Zls6QDebugRK10QJsonValue@Qt_6 6.1.2
 _Zls6QDebugRK11QJsonObject@Qt_6 6.1.2
 _Zls6QDebugRK11QModelIndex@Qt_6 6.1.2
 _Zls6QDebugRK12QEasingCurve@Qt_6 6.1.2
 _Zls6QDebugRK12QStorageInfo@Qt_6 6.1.2
 _Zls6QDebugRK13QJsonDocument@Qt_6 6.1.2
 _Zls6QDebugRK13QTypeRevision@Qt_6 6.1.2
 _Zls6QDebugRK14QVersionNumber@Qt_6 6.1.2
 _Zls6QDebugRK18QRegularExpression@Qt_6 6.1.2
 _Zls6QDebugRK19QItemSelectionRange@Qt_6 6.1.2
 _Zls6QDebugRK21QPersistentModelIndex@Qt_6 6.1.2
 _Zls6QDebugRK23QOperatingSystemVersion@Qt_6 6.1.2
 _Zls6QDebugRK23QRegularExpressionMatch@Qt_6 6.1.2
 _Zls6QDebugRK4QDir@Qt_6 6.1.2
 _Zls6QDebugRK4QUrl@Qt_6 6.1.2
 _Zls6QDebugRK5QLine@Qt_6 6.1.2
 _Zls6QDebugRK5QRect@Qt_6 6.1.2
 _Zls6QDebugRK5QSize@Qt_6 6.1.2
 _Zls6QDebugRK5QUuid@Qt_6 6.1.2
 _Zls6QDebugRK6QLineF@Qt_6 6.1.2
 _Zls6QDebugRK6QPoint@Qt_6 6.1.2
 _Zls6QDebugRK6QRectF@Qt_6 6.1.2
 _Zls6QDebugRK6QSizeF@Qt_6 6.1.2
 _Zls6QDebugRK7QLocale@Qt_6 6.1.2
 _Zls6QDebugRK7QPointF@Qt_6 6.1.2
 _Zls6QDebugRK8QCborMap@Qt_6 6.1.2
 _Zls6QDebugRK8QMargins@Qt_6 6.1.2
 _Zls6QDebugRK9QBitArray@Qt_6 6.1.2
 _Zls6QDebugRK9QDateTime@Qt_6 6.1.2
 _Zls6QDebugRK9QFileInfo@Qt_6 6.1.2
 _Zls6QDebugRK9QMarginsF@Qt_6 6.1.2
 _Zls6QDebugRK9QMimeType@Qt_6 6.1.2
 _Zls6QDebugRK9QTimeZone@Qt_6 6.1.2
 _ZlsR11QDataStream15QCborSimpleType@Qt_6 6.1.2
 _ZlsR11QDataStream5QChar@Qt_6 6.1.2
 _ZlsR11QDataStream5QDate@Qt_6 6.1.2
 _ZlsR11QDataStream5QTime@Qt_6 6.1.2
 _ZlsR11QDataStream8qfloat16@Qt_6 6.3.0
 _ZlsR11QDataStreamRK10QByteArray@Qt_6 6.1.2
 _ZlsR11QDataStreamRK10QCborArray@Qt_6 6.1.2
 _ZlsR11QDataStreamRK10QCborValue@Qt_6 6.1.2
 _ZlsR11QDataStreamRK10QJsonArray@Qt_6 6.1.2
 _ZlsR11QDataStreamRK10QJsonValue@Qt_6 6.1.2
 _ZlsR11QDataStreamRK11QJsonObject@Qt_6 6.1.2
 _ZlsR11QDataStreamRK12QEasingCurve@Qt_6 6.1.2
 _ZlsR11QDataStreamRK13QJsonDocument@Qt_6 6.1.2
 _ZlsR11QDataStreamRK13QTypeRevision@Qt_6 6.1.2
 _ZlsR11QDataStreamRK14QVersionNumber@Qt_6 6.1.2
 _ZlsR11QDataStreamRK18QRegularExpression@Qt_6 6.1.2
 _ZlsR11QDataStreamRK4QUrl@Qt_6 6.1.2
 _ZlsR11QDataStreamRK5QLine@Qt_6 6.1.2
 _ZlsR11QDataStreamRK5QRect@Qt_6 6.1.2
 _ZlsR11QDataStreamRK5QSize@Qt_6 6.1.2
 _ZlsR11QDataStreamRK5QUuid@Qt_6 6.1.2
 _ZlsR11QDataStreamRK6QLineF@Qt_6 6.1.2
 _ZlsR11QDataStreamRK6QPoint@Qt_6 6.1.2
 _ZlsR11QDataStreamRK6QRectF@Qt_6 6.1.2
 _ZlsR11QDataStreamRK6QSizeF@Qt_6 6.1.2
 _ZlsR11QDataStreamRK7QLocale@Qt_6 6.1.2
 _ZlsR11QDataStreamRK7QPointF@Qt_6 6.1.2
 _ZlsR11QDataStreamRK7QString@Qt_6 6.1.2
 _ZlsR11QDataStreamRK8QCborMap@Qt_6 6.1.2
 _ZlsR11QDataStreamRK8QMargins@Qt_6 6.1.2
 _ZlsR11QDataStreamRK8QVariant@Qt_6 6.1.2
 _ZlsR11QDataStreamRK9QBitArray@Qt_6 6.1.2
 _ZlsR11QDataStreamRK9QDateTime@Qt_6 6.1.2
 _ZlsR11QDataStreamRK9QMarginsF@Qt_6 6.1.2
 _ZlsR11QDataStreamRK9QTimeZone@Qt_6 6.1.2
 _ZltRK13QElapsedTimerS1_@Qt_6 6.1.2
 _ZorRK9QBitArrayS1_@Qt_6 6.1.2
 _Zpl14QDeadlineTimerx@Qt_6 6.1.2
 _ZrsR11QDataStreamR10QByteArray@Qt_6 6.1.2
 _ZrsR11QDataStreamR10QCborArray@Qt_6 6.1.2
 _ZrsR11QDataStreamR10QCborValue@Qt_6 6.1.2
 _ZrsR11QDataStreamR10QJsonArray@Qt_6 6.1.2
 _ZrsR11QDataStreamR10QJsonValue@Qt_6 6.1.2
 _ZrsR11QDataStreamR11QJsonObject@Qt_6 6.1.2
 _ZrsR11QDataStreamR12QEasingCurve@Qt_6 6.1.2
 _ZrsR11QDataStreamR13QJsonDocument@Qt_6 6.1.2
 _ZrsR11QDataStreamR13QTypeRevision@Qt_6 6.1.2
 _ZrsR11QDataStreamR14QVersionNumber@Qt_6 6.1.2
 _ZrsR11QDataStreamR15QCborSimpleType@Qt_6 6.1.2
 _ZrsR11QDataStreamR18QRegularExpression@Qt_6 6.1.2
 _ZrsR11QDataStreamR4QUrl@Qt_6 6.1.2
 _ZrsR11QDataStreamR5QChar@Qt_6 6.1.2
 _ZrsR11QDataStreamR5QDate@Qt_6 6.1.2
 _ZrsR11QDataStreamR5QLine@Qt_6 6.1.2
 _ZrsR11QDataStreamR5QRect@Qt_6 6.1.2
 _ZrsR11QDataStreamR5QSize@Qt_6 6.1.2
 _ZrsR11QDataStreamR5QTime@Qt_6 6.1.2
 _ZrsR11QDataStreamR5QUuid@Qt_6 6.1.2
 _ZrsR11QDataStreamR6QLineF@Qt_6 6.1.2
 _ZrsR11QDataStreamR6QPoint@Qt_6 6.1.2
 _ZrsR11QDataStreamR6QRectF@Qt_6 6.1.2
 _ZrsR11QDataStreamR6QSizeF@Qt_6 6.1.2
 _ZrsR11QDataStreamR7QLocale@Qt_6 6.1.2
 _ZrsR11QDataStreamR7QPointF@Qt_6 6.1.2
 _ZrsR11QDataStreamR7QString@Qt_6 6.1.2
 _ZrsR11QDataStreamR8QCborMap@Qt_6 6.1.2
 _ZrsR11QDataStreamR8QMargins@Qt_6 6.1.2
 _ZrsR11QDataStreamR8QVariant@Qt_6 6.1.2
 _ZrsR11QDataStreamR8qfloat16@Qt_6 6.3.0
 _ZrsR11QDataStreamR9QBitArray@Qt_6 6.1.2
 _ZrsR11QDataStreamR9QDateTime@Qt_6 6.1.2
 _ZrsR11QDataStreamR9QMarginsF@Qt_6 6.1.2
 _ZrsR11QDataStreamR9QTimeZone@Qt_6 6.1.2
 qDetectCpuFeatures@Qt_6 6.4.0
 qMetaTypeGuiHelper@Qt_6 6.1.2
 qMetaTypeWidgetsHelper@Qt_6 6.1.2
 qVersion@Qt_6 6.1.2
 qtHookData@Qt_6 6.1.2
 qt_cpu_features@Qt_6 6.1.2
 qt_disable_lowpriority_timers@Qt_6 6.1.2
 qt_resourceFeatureZlib@Qt_6 6.1.2
 qt_resourceFeatureZstd@Qt_6 6.1.2
 qt_signal_spy_callback_set@Qt_6 6.1.2
 qt_sine_table@Qt_6 6.1.2
 qt_startup_hook@Qt_6 6.1.2
 qt_version_tag@Qt_6.0 6.1.2
 qt_version_tag@Qt_6.1 6.1.2
 qt_version_tag@Qt_6.2 6.2.0
 qt_version_tag@Qt_6.3 6.3.0
 qt_version_tag@Qt_6.4 6.4.0
 qt_version_tag_6_0@Qt_6 6.1.2
 qt_version_tag_6_1@Qt_6 6.1.2
 qt_version_tag_6_2@Qt_6 6.2.0
 qt_version_tag_6_3@Qt_6 6.3.0
 qt_version_tag_6_4@Qt_6 6.4.0
