# SymbolsHelper-Confirmed: 6.4.1 amd64
libQt6Xml.so.6 libqt6xml6 #MINVER#
| libqt6xml6 #MINVER#, qt6-base-abi (= 6.4.2)
* Build-Depends-Package: qt6-base-dev
 Qt_6.0@Qt_6.0 6.1.2
 Qt_6.1@Qt_6.1 6.1.2
 Qt_6.2@Qt_6.2 6.2.0
 Qt_6.3@Qt_6.3 6.3.0
 Qt_6.4@Qt_6.4 6.4.0
 Qt_6@Qt_6 6.1.2
 (symver)Qt_6_PRIVATE_API 0 1
 _ZN10QDomEntityC1EP17QDomEntityPrivate@Qt_6 6.1.2
 _ZN10QDomEntityC1ERKS_@Qt_6 6.1.2
 _ZN10QDomEntityC1Ev@Qt_6 6.1.2
 _ZN10QDomEntityC2EP17QDomEntityPrivate@Qt_6 6.1.2
 _ZN10QDomEntityC2ERKS_@Qt_6 6.1.2
 _ZN10QDomEntityC2Ev@Qt_6 6.1.2
 _ZN10QDomEntityaSERKS_@Qt_6 6.1.2
 _ZN11QDomCommentC1EP18QDomCommentPrivate@Qt_6 6.1.2
 _ZN11QDomCommentC1ERKS_@Qt_6 6.1.2
 _ZN11QDomCommentC1Ev@Qt_6 6.1.2
 _ZN11QDomCommentC2EP18QDomCommentPrivate@Qt_6 6.1.2
 _ZN11QDomCommentC2ERKS_@Qt_6 6.1.2
 _ZN11QDomCommentC2Ev@Qt_6 6.1.2
 _ZN11QDomCommentaSERKS_@Qt_6 6.1.2
 _ZN11QDomElement10setTagNameERK7QString@Qt_6 6.1.2
 _ZN11QDomElement12setAttributeERK7QStringS2_@Qt_6 6.1.2
 _ZN11QDomElement12setAttributeERK7QStringd@Qt_6 6.1.2
 _ZN11QDomElement12setAttributeERK7QStringf@Qt_6 6.1.2
 _ZN11QDomElement12setAttributeERK7QStringx@Qt_6 6.1.2
 _ZN11QDomElement12setAttributeERK7QStringy@Qt_6 6.1.2
 _ZN11QDomElement13attributeNodeERK7QString@Qt_6 6.1.2
 _ZN11QDomElement14setAttributeNSERK7QStringS2_S2_@Qt_6 6.1.2
 _ZN11QDomElement14setAttributeNSERK7QStringS2_d@Qt_6 6.1.2
 _ZN11QDomElement14setAttributeNSERK7QStringS2_x@Qt_6 6.1.2
 _ZN11QDomElement14setAttributeNSERK7QStringS2_y@Qt_6 6.1.2
 _ZN11QDomElement15attributeNodeNSERK7QStringS2_@Qt_6 6.1.2
 _ZN11QDomElement15removeAttributeERK7QString@Qt_6 6.1.2
 _ZN11QDomElement16setAttributeNodeERK8QDomAttr@Qt_6 6.1.2
 _ZN11QDomElement17removeAttributeNSERK7QStringS2_@Qt_6 6.1.2
 _ZN11QDomElement18setAttributeNodeNSERK8QDomAttr@Qt_6 6.1.2
 _ZN11QDomElement19removeAttributeNodeERK8QDomAttr@Qt_6 6.1.2
 _ZN11QDomElementC1EP18QDomElementPrivate@Qt_6 6.1.2
 _ZN11QDomElementC1ERKS_@Qt_6 6.1.2
 _ZN11QDomElementC1Ev@Qt_6 6.1.2
 _ZN11QDomElementC2EP18QDomElementPrivate@Qt_6 6.1.2
 _ZN11QDomElementC2ERKS_@Qt_6 6.1.2
 _ZN11QDomElementC2Ev@Qt_6 6.1.2
 _ZN11QDomElementaSERKS_@Qt_6 6.1.2
 _ZN12QDomDocument10importNodeERK8QDomNodeb@Qt_6 6.1.2
 _ZN12QDomDocument10setContentEP16QXmlStreamReaderbP7QStringPiS4_@Qt_6 6.1.2
 _ZN12QDomDocument10setContentEP9QIODeviceP7QStringPiS4_@Qt_6 6.1.2
 _ZN12QDomDocument10setContentEP9QIODevicebP7QStringPiS4_@Qt_6 6.1.2
 _ZN12QDomDocument10setContentERK10QByteArrayP7QStringPiS5_@Qt_6 6.1.2
 _ZN12QDomDocument10setContentERK10QByteArraybP7QStringPiS5_@Qt_6 6.1.2
 _ZN12QDomDocument10setContentERK7QStringPS0_PiS4_@Qt_6 6.1.2
 _ZN12QDomDocument10setContentERK7QStringbPS0_PiS4_@Qt_6 6.1.2
 _ZN12QDomDocument11elementByIdERK7QString@Qt_6 6.1.2
 _ZN12QDomDocument13createCommentERK7QString@Qt_6 6.1.2
 _ZN12QDomDocument13createElementERK7QString@Qt_6 6.1.2
 _ZN12QDomDocument14createTextNodeERK7QString@Qt_6 6.1.2
 _ZN12QDomDocument15createAttributeERK7QString@Qt_6 6.1.2
 _ZN12QDomDocument15createElementNSERK7QStringS2_@Qt_6 6.1.2
 _ZN12QDomDocument17createAttributeNSERK7QStringS2_@Qt_6 6.1.2
 _ZN12QDomDocument18createCDATASectionERK7QString@Qt_6 6.1.2
 _ZN12QDomDocument19elementsByTagNameNSERK7QStringS2_@Qt_6 6.1.2
 _ZN12QDomDocument21createEntityReferenceERK7QString@Qt_6 6.1.2
 _ZN12QDomDocument22createDocumentFragmentEv@Qt_6 6.1.2
 _ZN12QDomDocument27createProcessingInstructionERK7QStringS2_@Qt_6 6.1.2
 _ZN12QDomDocumentC1EP19QDomDocumentPrivate@Qt_6 6.1.2
 _ZN12QDomDocumentC1ERK16QDomDocumentType@Qt_6 6.1.2
 _ZN12QDomDocumentC1ERK7QString@Qt_6 6.1.2
 _ZN12QDomDocumentC1ERKS_@Qt_6 6.1.2
 _ZN12QDomDocumentC1Ev@Qt_6 6.1.2
 _ZN12QDomDocumentC2EP19QDomDocumentPrivate@Qt_6 6.1.2
 _ZN12QDomDocumentC2ERK16QDomDocumentType@Qt_6 6.1.2
 _ZN12QDomDocumentC2ERK7QString@Qt_6 6.1.2
 _ZN12QDomDocumentC2ERKS_@Qt_6 6.1.2
 _ZN12QDomDocumentC2Ev@Qt_6 6.1.2
 _ZN12QDomDocumentD1Ev@Qt_6 6.1.2
 _ZN12QDomDocumentD2Ev@Qt_6 6.1.2
 _ZN12QDomDocumentaSERKS_@Qt_6 6.1.2
 _ZN12QDomNodeListC1EP19QDomNodeListPrivate@Qt_6 6.1.2
 _ZN12QDomNodeListC1ERKS_@Qt_6 6.1.2
 _ZN12QDomNodeListC1Ev@Qt_6 6.1.2
 _ZN12QDomNodeListC2EP19QDomNodeListPrivate@Qt_6 6.1.2
 _ZN12QDomNodeListC2ERKS_@Qt_6 6.1.2
 _ZN12QDomNodeListC2Ev@Qt_6 6.1.2
 _ZN12QDomNodeListD1Ev@Qt_6 6.1.2
 _ZN12QDomNodeListD2Ev@Qt_6 6.1.2
 _ZN12QDomNodeListaSERKS_@Qt_6 6.1.2
 _ZN12QDomNotationC1EP19QDomNotationPrivate@Qt_6 6.1.2
 _ZN12QDomNotationC1ERKS_@Qt_6 6.1.2
 _ZN12QDomNotationC1Ev@Qt_6 6.1.2
 _ZN12QDomNotationC2EP19QDomNotationPrivate@Qt_6 6.1.2
 _ZN12QDomNotationC2ERKS_@Qt_6 6.1.2
 _ZN12QDomNotationC2Ev@Qt_6 6.1.2
 _ZN12QDomNotationaSERKS_@Qt_6 6.1.2
 _ZN16QDomCDATASectionC1EP23QDomCDATASectionPrivate@Qt_6 6.1.2
 _ZN16QDomCDATASectionC1ERKS_@Qt_6 6.1.2
 _ZN16QDomCDATASectionC1Ev@Qt_6 6.1.2
 _ZN16QDomCDATASectionC2EP23QDomCDATASectionPrivate@Qt_6 6.1.2
 _ZN16QDomCDATASectionC2ERKS_@Qt_6 6.1.2
 _ZN16QDomCDATASectionC2Ev@Qt_6 6.1.2
 _ZN16QDomCDATASectionaSERKS_@Qt_6 6.1.2
 _ZN16QDomDocumentTypeC1EP23QDomDocumentTypePrivate@Qt_6 6.1.2
 _ZN16QDomDocumentTypeC1ERKS_@Qt_6 6.1.2
 _ZN16QDomDocumentTypeC1Ev@Qt_6 6.1.2
 _ZN16QDomDocumentTypeC2EP23QDomDocumentTypePrivate@Qt_6 6.1.2
 _ZN16QDomDocumentTypeC2ERKS_@Qt_6 6.1.2
 _ZN16QDomDocumentTypeC2Ev@Qt_6 6.1.2
 _ZN16QDomDocumentTypeaSERKS_@Qt_6 6.1.2
 _ZN16QDomNamedNodeMap12setNamedItemERK8QDomNode@Qt_6 6.1.2
 _ZN16QDomNamedNodeMap14setNamedItemNSERK8QDomNode@Qt_6 6.1.2
 _ZN16QDomNamedNodeMap15removeNamedItemERK7QString@Qt_6 6.1.2
 _ZN16QDomNamedNodeMap17removeNamedItemNSERK7QStringS2_@Qt_6 6.1.2
 _ZN16QDomNamedNodeMapC1EP23QDomNamedNodeMapPrivate@Qt_6 6.1.2
 _ZN16QDomNamedNodeMapC1ERKS_@Qt_6 6.1.2
 _ZN16QDomNamedNodeMapC1Ev@Qt_6 6.1.2
 _ZN16QDomNamedNodeMapC2EP23QDomNamedNodeMapPrivate@Qt_6 6.1.2
 _ZN16QDomNamedNodeMapC2ERKS_@Qt_6 6.1.2
 _ZN16QDomNamedNodeMapC2Ev@Qt_6 6.1.2
 _ZN16QDomNamedNodeMapD1Ev@Qt_6 6.1.2
 _ZN16QDomNamedNodeMapD2Ev@Qt_6 6.1.2
 _ZN16QDomNamedNodeMapaSERKS_@Qt_6 6.1.2
 _ZN17QDomCharacterData10appendDataERK7QString@Qt_6 6.1.2
 _ZN17QDomCharacterData10deleteDataEmm@Qt_6 6.1.2
 _ZN17QDomCharacterData10insertDataEmRK7QString@Qt_6 6.1.2
 _ZN17QDomCharacterData11replaceDataEmmRK7QString@Qt_6 6.1.2
 _ZN17QDomCharacterData13substringDataEmm@Qt_6 6.1.2
 _ZN17QDomCharacterData7setDataERK7QString@Qt_6 6.1.2
 _ZN17QDomCharacterDataC1EP24QDomCharacterDataPrivate@Qt_6 6.1.2
 _ZN17QDomCharacterDataC1ERKS_@Qt_6 6.1.2
 _ZN17QDomCharacterDataC1Ev@Qt_6 6.1.2
 _ZN17QDomCharacterDataC2EP24QDomCharacterDataPrivate@Qt_6 6.1.2
 _ZN17QDomCharacterDataC2ERKS_@Qt_6 6.1.2
 _ZN17QDomCharacterDataC2Ev@Qt_6 6.1.2
 _ZN17QDomCharacterDataaSERKS_@Qt_6 6.1.2
 _ZN18QDomImplementation14createDocumentERK7QStringS2_RK16QDomDocumentType@Qt_6 6.1.2
 _ZN18QDomImplementation17invalidDataPolicyEv@Qt_6 6.1.2
 _ZN18QDomImplementation18createDocumentTypeERK7QStringS2_S2_@Qt_6 6.1.2
 _ZN18QDomImplementation20setInvalidDataPolicyENS_17InvalidDataPolicyE@Qt_6 6.1.2
 _ZN18QDomImplementation6isNullEv@Qt_6 6.1.2
 _ZN18QDomImplementationC1EP25QDomImplementationPrivate@Qt_6 6.1.2
 _ZN18QDomImplementationC1ERKS_@Qt_6 6.1.2
 _ZN18QDomImplementationC1Ev@Qt_6 6.1.2
 _ZN18QDomImplementationC2EP25QDomImplementationPrivate@Qt_6 6.1.2
 _ZN18QDomImplementationC2ERKS_@Qt_6 6.1.2
 _ZN18QDomImplementationC2Ev@Qt_6 6.1.2
 _ZN18QDomImplementationD1Ev@Qt_6 6.1.2
 _ZN18QDomImplementationD2Ev@Qt_6 6.1.2
 _ZN18QDomImplementationaSERKS_@Qt_6 6.1.2
 _ZN19QDomEntityReferenceC1EP26QDomEntityReferencePrivate@Qt_6 6.1.2
 _ZN19QDomEntityReferenceC1ERKS_@Qt_6 6.1.2
 _ZN19QDomEntityReferenceC1Ev@Qt_6 6.1.2
 _ZN19QDomEntityReferenceC2EP26QDomEntityReferencePrivate@Qt_6 6.1.2
 _ZN19QDomEntityReferenceC2ERKS_@Qt_6 6.1.2
 _ZN19QDomEntityReferenceC2Ev@Qt_6 6.1.2
 _ZN19QDomEntityReferenceaSERKS_@Qt_6 6.1.2
 _ZN20QDomDocumentFragmentC1EP27QDomDocumentFragmentPrivate@Qt_6 6.1.2
 _ZN20QDomDocumentFragmentC1ERKS_@Qt_6 6.1.2
 _ZN20QDomDocumentFragmentC1Ev@Qt_6 6.1.2
 _ZN20QDomDocumentFragmentC2EP27QDomDocumentFragmentPrivate@Qt_6 6.1.2
 _ZN20QDomDocumentFragmentC2ERKS_@Qt_6 6.1.2
 _ZN20QDomDocumentFragmentC2Ev@Qt_6 6.1.2
 _ZN20QDomDocumentFragmentaSERKS_@Qt_6 6.1.2
 _ZN25QDomProcessingInstruction7setDataERK7QString@Qt_6 6.1.2
 _ZN25QDomProcessingInstructionC1EP32QDomProcessingInstructionPrivate@Qt_6 6.1.2
 _ZN25QDomProcessingInstructionC1ERKS_@Qt_6 6.1.2
 _ZN25QDomProcessingInstructionC1Ev@Qt_6 6.1.2
 _ZN25QDomProcessingInstructionC2EP32QDomProcessingInstructionPrivate@Qt_6 6.1.2
 _ZN25QDomProcessingInstructionC2ERKS_@Qt_6 6.1.2
 _ZN25QDomProcessingInstructionC2Ev@Qt_6 6.1.2
 _ZN25QDomProcessingInstructionaSERKS_@Qt_6 6.1.2
 _ZN8QDomAttr8setValueERK7QString@Qt_6 6.1.2
 _ZN8QDomAttrC1EP15QDomAttrPrivate@Qt_6 6.1.2
 _ZN8QDomAttrC1ERKS_@Qt_6 6.1.2
 _ZN8QDomAttrC1Ev@Qt_6 6.1.2
 _ZN8QDomAttrC2EP15QDomAttrPrivate@Qt_6 6.1.2
 _ZN8QDomAttrC2ERKS_@Qt_6 6.1.2
 _ZN8QDomAttrC2Ev@Qt_6 6.1.2
 _ZN8QDomAttraSERKS_@Qt_6 6.1.2
 _ZN8QDomNode11appendChildERKS_@Qt_6 6.1.2
 _ZN8QDomNode11insertAfterERKS_S1_@Qt_6 6.1.2
 _ZN8QDomNode11removeChildERKS_@Qt_6 6.1.2
 _ZN8QDomNode12insertBeforeERKS_S1_@Qt_6 6.1.2
 _ZN8QDomNode12replaceChildERKS_S1_@Qt_6 6.1.2
 _ZN8QDomNode12setNodeValueERK7QString@Qt_6 6.1.2
 _ZN8QDomNode5clearEv@Qt_6 6.1.2
 _ZN8QDomNode9normalizeEv@Qt_6 6.1.2
 _ZN8QDomNode9setPrefixERK7QString@Qt_6 6.1.2
 _ZN8QDomNodeC1EP15QDomNodePrivate@Qt_6 6.1.2
 _ZN8QDomNodeC1ERKS_@Qt_6 6.1.2
 _ZN8QDomNodeC1Ev@Qt_6 6.1.2
 _ZN8QDomNodeC2EP15QDomNodePrivate@Qt_6 6.1.2
 _ZN8QDomNodeC2ERKS_@Qt_6 6.1.2
 _ZN8QDomNodeC2Ev@Qt_6 6.1.2
 _ZN8QDomNodeD1Ev@Qt_6 6.1.2
 _ZN8QDomNodeD2Ev@Qt_6 6.1.2
 _ZN8QDomNodeaSERKS_@Qt_6 6.1.2
 _ZN8QDomText9splitTextEi@Qt_6 6.1.2
 _ZN8QDomTextC1EP15QDomTextPrivate@Qt_6 6.1.2
 _ZN8QDomTextC1ERKS_@Qt_6 6.1.2
 _ZN8QDomTextC1Ev@Qt_6 6.1.2
 _ZN8QDomTextC2EP15QDomTextPrivate@Qt_6 6.1.2
 _ZN8QDomTextC2ERKS_@Qt_6 6.1.2
 _ZN8QDomTextC2Ev@Qt_6 6.1.2
 _ZN8QDomTextaSERKS_@Qt_6 6.1.2
 _ZNK10QDomEntity12notationNameEv@Qt_6 6.1.2
 _ZNK10QDomEntity8publicIdEv@Qt_6 6.1.2
 _ZNK10QDomEntity8systemIdEv@Qt_6 6.1.2
 _ZNK11QDomElement10attributesEv@Qt_6 6.1.2
 _ZNK11QDomElement11attributeNSERK7QStringS2_S2_@Qt_6 6.1.2
 _ZNK11QDomElement12hasAttributeERK7QString@Qt_6 6.1.2
 _ZNK11QDomElement14hasAttributeNSERK7QStringS2_@Qt_6 6.1.2
 _ZNK11QDomElement17elementsByTagNameERK7QString@Qt_6 6.1.2
 _ZNK11QDomElement19elementsByTagNameNSERK7QStringS2_@Qt_6 6.1.2
 _ZNK11QDomElement4textEv@Qt_6 6.1.2
 _ZNK11QDomElement7tagNameEv@Qt_6 6.1.2
 _ZNK11QDomElement9attributeERK7QStringS2_@Qt_6 6.1.2
 _ZNK12QDomDocument11toByteArrayEi@Qt_6 6.1.2
 _ZNK12QDomDocument14implementationEv@Qt_6 6.1.2
 _ZNK12QDomDocument15documentElementEv@Qt_6 6.1.2
 _ZNK12QDomDocument17elementsByTagNameERK7QString@Qt_6 6.1.2
 _ZNK12QDomDocument7doctypeEv@Qt_6 6.1.2
 _ZNK12QDomDocument8toStringEi@Qt_6 6.1.2
 _ZNK12QDomNodeList4itemEi@Qt_6 6.1.2
 _ZNK12QDomNodeList6lengthEv@Qt_6 6.1.2
 _ZNK12QDomNodeListeqERKS_@Qt_6 6.1.2
 _ZNK12QDomNodeListneERKS_@Qt_6 6.1.2
 _ZNK12QDomNotation8publicIdEv@Qt_6 6.1.2
 _ZNK12QDomNotation8systemIdEv@Qt_6 6.1.2
 _ZNK16QDomDocumentType14internalSubsetEv@Qt_6 6.1.2
 _ZNK16QDomDocumentType4nameEv@Qt_6 6.1.2
 _ZNK16QDomDocumentType8entitiesEv@Qt_6 6.1.2
 _ZNK16QDomDocumentType8publicIdEv@Qt_6 6.1.2
 _ZNK16QDomDocumentType8systemIdEv@Qt_6 6.1.2
 _ZNK16QDomDocumentType9notationsEv@Qt_6 6.1.2
 _ZNK16QDomNamedNodeMap11namedItemNSERK7QStringS2_@Qt_6 6.1.2
 _ZNK16QDomNamedNodeMap4itemEi@Qt_6 6.1.2
 _ZNK16QDomNamedNodeMap6lengthEv@Qt_6 6.1.2
 _ZNK16QDomNamedNodeMap8containsERK7QString@Qt_6 6.1.2
 _ZNK16QDomNamedNodeMap9namedItemERK7QString@Qt_6 6.1.2
 _ZNK16QDomNamedNodeMapeqERKS_@Qt_6 6.1.2
 _ZNK16QDomNamedNodeMapneERKS_@Qt_6 6.1.2
 _ZNK17QDomCharacterData4dataEv@Qt_6 6.1.2
 _ZNK17QDomCharacterData6lengthEv@Qt_6 6.1.2
 _ZNK17QDomCharacterData8nodeTypeEv@Qt_6 6.1.2
 _ZNK18QDomImplementation10hasFeatureERK7QStringS2_@Qt_6 6.1.2
 _ZNK18QDomImplementationeqERKS_@Qt_6 6.1.2
 _ZNK18QDomImplementationneERKS_@Qt_6 6.1.2
 _ZNK25QDomProcessingInstruction4dataEv@Qt_6 6.1.2
 _ZNK25QDomProcessingInstruction6targetEv@Qt_6 6.1.2
 _ZNK8QDomAttr12ownerElementEv@Qt_6 6.1.2
 _ZNK8QDomAttr4nameEv@Qt_6 6.1.2
 _ZNK8QDomAttr5valueEv@Qt_6 6.1.2
 _ZNK8QDomAttr9specifiedEv@Qt_6 6.1.2
 _ZNK8QDomNode10attributesEv@Qt_6 6.1.2
 _ZNK8QDomNode10childNodesEv@Qt_6 6.1.2
 _ZNK8QDomNode10firstChildEv@Qt_6 6.1.2
 _ZNK8QDomNode10isDocumentEv@Qt_6 6.1.2
 _ZNK8QDomNode10isNotationEv@Qt_6 6.1.2
 _ZNK8QDomNode10lineNumberEv@Qt_6 6.1.2
 _ZNK8QDomNode10parentNodeEv@Qt_6 6.1.2
 _ZNK8QDomNode10toDocumentEv@Qt_6 6.1.2
 _ZNK8QDomNode10toNotationEv@Qt_6 6.1.2
 _ZNK8QDomNode11isSupportedERK7QStringS2_@Qt_6 6.1.2
 _ZNK8QDomNode11nextSiblingEv@Qt_6 6.1.2
 _ZNK8QDomNode12columnNumberEv@Qt_6 6.1.2
 _ZNK8QDomNode12namespaceURIEv@Qt_6 6.1.2
 _ZNK8QDomNode13hasAttributesEv@Qt_6 6.1.2
 _ZNK8QDomNode13hasChildNodesEv@Qt_6 6.1.2
 _ZNK8QDomNode13ownerDocumentEv@Qt_6 6.1.2
 _ZNK8QDomNode14isCDATASectionEv@Qt_6 6.1.2
 _ZNK8QDomNode14isDocumentTypeEv@Qt_6 6.1.2
 _ZNK8QDomNode14toCDATASectionEv@Qt_6 6.1.2
 _ZNK8QDomNode14toDocumentTypeEv@Qt_6 6.1.2
 _ZNK8QDomNode15isCharacterDataEv@Qt_6 6.1.2
 _ZNK8QDomNode15previousSiblingEv@Qt_6 6.1.2
 _ZNK8QDomNode15toCharacterDataEv@Qt_6 6.1.2
 _ZNK8QDomNode16lastChildElementERK7QStringS2_@Qt_6 6.1.2
 _ZNK8QDomNode17firstChildElementERK7QStringS2_@Qt_6 6.1.2
 _ZNK8QDomNode17isEntityReferenceEv@Qt_6 6.1.2
 _ZNK8QDomNode17toEntityReferenceEv@Qt_6 6.1.2
 _ZNK8QDomNode18isDocumentFragmentEv@Qt_6 6.1.2
 _ZNK8QDomNode18nextSiblingElementERK7QStringS2_@Qt_6 6.1.2
 _ZNK8QDomNode18toDocumentFragmentEv@Qt_6 6.1.2
 _ZNK8QDomNode22previousSiblingElementERK7QStringS2_@Qt_6 6.1.2
 _ZNK8QDomNode23isProcessingInstructionEv@Qt_6 6.1.2
 _ZNK8QDomNode23toProcessingInstructionEv@Qt_6 6.1.2
 _ZNK8QDomNode4saveER11QTextStreamiNS_14EncodingPolicyE@Qt_6 6.1.2
 _ZNK8QDomNode6isAttrEv@Qt_6 6.1.2
 _ZNK8QDomNode6isNullEv@Qt_6 6.1.2
 _ZNK8QDomNode6isTextEv@Qt_6 6.1.2
 _ZNK8QDomNode6prefixEv@Qt_6 6.1.2
 _ZNK8QDomNode6toAttrEv@Qt_6 6.1.2
 _ZNK8QDomNode6toTextEv@Qt_6 6.1.2
 _ZNK8QDomNode8isEntityEv@Qt_6 6.1.2
 _ZNK8QDomNode8nodeNameEv@Qt_6 6.1.2
 _ZNK8QDomNode8nodeTypeEv@Qt_6 6.1.2
 _ZNK8QDomNode8toEntityEv@Qt_6 6.1.2
 _ZNK8QDomNode9cloneNodeEb@Qt_6 6.1.2
 _ZNK8QDomNode9isCommentEv@Qt_6 6.1.2
 _ZNK8QDomNode9isElementEv@Qt_6 6.1.2
 _ZNK8QDomNode9lastChildEv@Qt_6 6.1.2
 _ZNK8QDomNode9localNameEv@Qt_6 6.1.2
 _ZNK8QDomNode9namedItemERK7QString@Qt_6 6.1.2
 _ZNK8QDomNode9nodeValueEv@Qt_6 6.1.2
 _ZNK8QDomNode9toCommentEv@Qt_6 6.1.2
 _ZNK8QDomNode9toElementEv@Qt_6 6.1.2
 _ZNK8QDomNodeeqERKS_@Qt_6 6.1.2
 _ZNK8QDomNodeneERKS_@Qt_6 6.1.2
 _ZlsR11QTextStreamRK8QDomNode@Qt_6 6.1.2
