# SymbolsHelper-Confirmed: 6.2.4 amd64 armel armhf i386 mipsel ppc64 ppc64el riscv64 s390x sh4 sparc64
libQt6Network.so.6 libqt6network6 #MINVER#
| libqt6network6 #MINVER#, qt6-base-abi (= 6.2.4)
* Build-Depends-Package: qt6-base-dev
 Qt_6.0@Qt_6.0 6.1.2
 Qt_6.1@Qt_6.1 6.1.2
 Qt_6.2@Qt_6.2 6.2.0
 Qt_6@Qt_6 6.1.2
 (symver)Qt_6_PRIVATE_API 0 1
 _Z15qIsEffectiveTLD11QStringView@Qt_6 6.1.2
 _Z19qt_qhostinfo_lookupRK7QStringP7QObjectPKcPbPi@Qt_6 6.1.2
 _Z24qt_ForceTlsSecurityLevelv@Qt_6 6.1.2
 (subst)_Z5qHashRK12QHostAddress{size_t}@Qt_6 6.1.2
 (subst)_Z5qHashRK13QOcspResponse{size_t}@Qt_6 6.1.2
 (subst)_Z5qHashRK15QSslCertificate{size_t}@Qt_6 6.1.2
 (subst)_Z5qHashRK27QSslDiffieHellmanParameters{size_t}@Qt_6 6.1.2
 (subst)_Z5qHashRK9QSslError{size_t}@Qt_6 6.1.2
 _ZGVZN9QMetaType21registerConverterImplI5QListI14QNetworkCookieE9QIterableI13QMetaSequenceEEEbSt8functionIFbPKvPvEES_S_E10unregister@Qt_6 6.2.0
 _ZGVZN9QMetaType21registerConverterImplI5QListI9QSslErrorE9QIterableI13QMetaSequenceEEEbSt8functionIFbPKvPvEES_S_E10unregister@Qt_6 6.2.0
 _ZGVZN9QMetaType21registerConverterImplI5QListISt4pairI10QByteArrayS3_EE9QIterableI13QMetaSequenceEEEbSt8functionIFbPKvPvEES_S_E10unregister@Qt_6 6.2.0
 _ZGVZN9QMetaType21registerConverterImplISt4pairI10QByteArrayS2_EN17QtMetaTypePrivate25QPairVariantInterfaceImplEEEbSt8functionIFbPKvPvEES_S_E10unregister@Qt_6 6.2.0
 _ZGVZN9QMetaType23registerMutableViewImplI5QListI14QNetworkCookieE9QIterableI13QMetaSequenceEEEbSt8functionIFbPvS8_EES_S_E10unregister@Qt_6 6.2.0
 _ZGVZN9QMetaType23registerMutableViewImplI5QListI9QSslErrorE9QIterableI13QMetaSequenceEEEbSt8functionIFbPvS8_EES_S_E10unregister@Qt_6 6.2.0
 _ZGVZN9QMetaType23registerMutableViewImplI5QListISt4pairI10QByteArrayS3_EE9QIterableI13QMetaSequenceEEEbSt8functionIFbPvSA_EES_S_E10unregister@Qt_6 6.2.0
 _ZN10QDnsLookup11nameChangedERK7QString@Qt_6 6.1.2
 _ZN10QDnsLookup11qt_metacallEN11QMetaObject4CallEiPPv@Qt_6 6.1.2
 _ZN10QDnsLookup11qt_metacastEPKc@Qt_6 6.1.2
 _ZN10QDnsLookup11typeChangedENS_4TypeE@Qt_6 6.1.2
 _ZN10QDnsLookup12bindableNameEv@Qt_6 6.1.2
 _ZN10QDnsLookup12bindableTypeEv@Qt_6 6.1.2
 _ZN10QDnsLookup13setNameserverERK12QHostAddress@Qt_6 6.1.2
 _ZN10QDnsLookup16staticMetaObjectE@Qt_6 6.1.2
 _ZN10QDnsLookup17nameserverChangedERK12QHostAddress@Qt_6 6.1.2
 _ZN10QDnsLookup18bindableNameserverEv@Qt_6 6.1.2
 _ZN10QDnsLookup5abortEv@Qt_6 6.1.2
 _ZN10QDnsLookup6lookupEv@Qt_6 6.1.2
 _ZN10QDnsLookup7setNameERK7QString@Qt_6 6.1.2
 _ZN10QDnsLookup7setTypeENS_4TypeE@Qt_6 6.1.2
 _ZN10QDnsLookup8finishedEv@Qt_6 6.1.2
 _ZN10QDnsLookupC1ENS_4TypeERK7QStringP7QObject@Qt_6 6.1.2
 _ZN10QDnsLookupC1ENS_4TypeERK7QStringRK12QHostAddressP7QObject@Qt_6 6.1.2
 _ZN10QDnsLookupC1EP7QObject@Qt_6 6.1.2
 _ZN10QDnsLookupC2ENS_4TypeERK7QStringP7QObject@Qt_6 6.1.2
 _ZN10QDnsLookupC2ENS_4TypeERK7QStringRK12QHostAddressP7QObject@Qt_6 6.1.2
 _ZN10QDnsLookupC2EP7QObject@Qt_6 6.1.2
 _ZN10QDnsLookupD0Ev@Qt_6 6.1.2
 _ZN10QDnsLookupD1Ev@Qt_6 6.1.2
 _ZN10QDnsLookupD2Ev@Qt_6 6.1.2
 _ZN10QSslCipherC1ERK7QString@Qt_6 6.1.2
 _ZN10QSslCipherC1ERK7QStringN4QSsl11SslProtocolE@Qt_6 6.1.2
 _ZN10QSslCipherC1ERKS_@Qt_6 6.1.2
 _ZN10QSslCipherC1Ev@Qt_6 6.1.2
 _ZN10QSslCipherC2ERK7QString@Qt_6 6.1.2
 _ZN10QSslCipherC2ERK7QStringN4QSsl11SslProtocolE@Qt_6 6.1.2
 _ZN10QSslCipherC2ERKS_@Qt_6 6.1.2
 _ZN10QSslCipherC2Ev@Qt_6 6.1.2
 _ZN10QSslCipherD1Ev@Qt_6 6.1.2
 _ZN10QSslCipherD2Ev@Qt_6 6.1.2
 _ZN10QSslCipheraSERKS_@Qt_6 6.1.2
 _ZN10QSslSocket11modeChangedENS_7SslModeE@Qt_6 6.1.2
 _ZN10QSslSocket11qt_metacallEN11QMetaObject4CallEiPPv@Qt_6 6.1.2
 _ZN10QSslSocket11qt_metacastEPKc@Qt_6 6.1.2
 _ZN10QSslSocket11setProtocolEN4QSsl11SslProtocolE@Qt_6 6.1.2
 _ZN10QSslSocket11supportsSslEv@Qt_6 6.1.2
 _ZN10QSslSocket12socketOptionEN15QAbstractSocket12SocketOptionE@Qt_6 6.1.2
 _ZN10QSslSocket13activeBackendEv@Qt_6 6.1.2
 _ZN10QSslSocket13alertReceivedEN4QSsl10AlertLevelENS0_9AlertTypeERK7QString@Qt_6 6.1.2
 _ZN10QSslSocket13connectToHostERK7QStringt6QFlagsIN13QIODeviceBase12OpenModeFlagEEN15QAbstractSocket20NetworkLayerProtocolE@Qt_6 6.1.2
 _ZN10QSslSocket13setPrivateKeyERK7QSslKey@Qt_6 6.1.2
 _ZN10QSslSocket13setPrivateKeyERK7QStringN4QSsl12KeyAlgorithmENS3_14EncodingFormatERK10QByteArray@Qt_6 6.1.2
 _ZN10QSslSocket15ignoreSslErrorsERK5QListI9QSslErrorE@Qt_6 6.1.2
 _ZN10QSslSocket15ignoreSslErrorsEv@Qt_6 6.1.2
 _ZN10QSslSocket15peerVerifyErrorERK9QSslError@Qt_6 6.1.2
 _ZN10QSslSocket15setSocketOptionEN15QAbstractSocket12SocketOptionERK8QVariant@Qt_6 6.1.2
 _ZN10QSslSocket16setActiveBackendERK7QString@Qt_6 6.1.2
 _ZN10QSslSocket16staticMetaObjectE@Qt_6 6.1.2
 _ZN10QSslSocket16waitForConnectedEi@Qt_6 6.1.2
 _ZN10QSslSocket16waitForEncryptedEi@Qt_6 6.1.2
 _ZN10QSslSocket16waitForReadyReadEi@Qt_6 6.1.2
 _ZN10QSslSocket17availableBackendsEv@Qt_6 6.1.2
 _ZN10QSslSocket17setPeerVerifyModeENS_14PeerVerifyModeE@Qt_6 6.1.2
 _ZN10QSslSocket17setPeerVerifyNameERK7QString@Qt_6 6.1.2
 _ZN10QSslSocket17setReadBufferSizeEx@Qt_6 6.1.2
 _ZN10QSslSocket17supportedFeaturesERK7QString@Qt_6 6.1.2
 _ZN10QSslSocket18disconnectFromHostEv@Qt_6 6.1.2
 _ZN10QSslSocket18implementedClassesERK7QString@Qt_6 6.1.2
 _ZN10QSslSocket18isClassImplementedEN4QSsl16ImplementedClassERK7QString@Qt_6 6.1.2
 _ZN10QSslSocket18isFeatureSupportedEN4QSsl16SupportedFeatureERK7QString@Qt_6 6.1.2
 _ZN10QSslSocket18setPeerVerifyDepthEi@Qt_6 6.1.2
 _ZN10QSslSocket18supportedProtocolsERK7QString@Qt_6 6.1.2
 _ZN10QSslSocket19isProtocolSupportedEN4QSsl11SslProtocolERK7QString@Qt_6 6.1.2
 _ZN10QSslSocket19setLocalCertificateERK15QSslCertificate@Qt_6 6.1.2
 _ZN10QSslSocket19setLocalCertificateERK7QStringN4QSsl14EncodingFormatE@Qt_6 6.1.2
 (subst)_ZN10QSslSocket19setSocketDescriptorE{qptrdiff}N15QAbstractSocket11SocketStateE6QFlagsIN13QIODeviceBase12OpenModeFlagEE@Qt_6 6.1.2
 _ZN10QSslSocket19setSslConfigurationERK17QSslConfiguration@Qt_6 6.1.2
 _ZN10QSslSocket19waitForBytesWrittenEi@Qt_6 6.1.2
 _ZN10QSslSocket19waitForDisconnectedEi@Qt_6 6.1.2
 _ZN10QSslSocket21encryptedBytesWrittenEx@Qt_6 6.1.2
 _ZN10QSslSocket21startClientEncryptionEv@Qt_6 6.1.2
 _ZN10QSslSocket21startServerEncryptionEv@Qt_6 6.1.2
 _ZN10QSslSocket22connectToHostEncryptedERK7QStringt6QFlagsIN13QIODeviceBase12OpenModeFlagEEN15QAbstractSocket20NetworkLayerProtocolE@Qt_6 6.1.2
 _ZN10QSslSocket22connectToHostEncryptedERK7QStringtS2_6QFlagsIN13QIODeviceBase12OpenModeFlagEEN15QAbstractSocket20NetworkLayerProtocolE@Qt_6 6.1.2
 _ZN10QSslSocket23sslLibraryVersionNumberEv@Qt_6 6.1.2
 _ZN10QSslSocket23sslLibraryVersionStringEv@Qt_6 6.1.2
 _ZN10QSslSocket24newSessionTicketReceivedEv@Qt_6 6.1.2
 _ZN10QSslSocket24setLocalCertificateChainERK5QListI15QSslCertificateE@Qt_6 6.1.2
 _ZN10QSslSocket27handshakeInterruptedOnErrorERK9QSslError@Qt_6 6.1.2
 _ZN10QSslSocket28continueInterruptedHandshakeEv@Qt_6 6.1.2
 _ZN10QSslSocket28sslLibraryBuildVersionNumberEv@Qt_6 6.1.2
 _ZN10QSslSocket28sslLibraryBuildVersionStringEv@Qt_6 6.1.2
 _ZN10QSslSocket34preSharedKeyAuthenticationRequiredEP29QSslPreSharedKeyAuthenticator@Qt_6 6.1.2
 _ZN10QSslSocket5closeEv@Qt_6 6.1.2
 _ZN10QSslSocket6resumeEv@Qt_6 6.1.2
 _ZN10QSslSocket8readDataEPcx@Qt_6 6.1.2
 _ZN10QSslSocket8skipDataEx@Qt_6 6.1.2
 _ZN10QSslSocket9alertSentEN4QSsl10AlertLevelENS0_9AlertTypeERK7QString@Qt_6 6.1.2
 _ZN10QSslSocket9encryptedEv@Qt_6 6.1.2
 _ZN10QSslSocket9sslErrorsERK5QListI9QSslErrorE@Qt_6 6.1.2
 _ZN10QSslSocket9writeDataEPKcx@Qt_6 6.1.2
 _ZN10QSslSocketC1EP7QObject@Qt_6 6.1.2
 _ZN10QSslSocketC2EP7QObject@Qt_6 6.1.2
 _ZN10QSslSocketD0Ev@Qt_6 6.1.2
 _ZN10QSslSocketD1Ev@Qt_6 6.1.2
 _ZN10QSslSocketD2Ev@Qt_6 6.1.2
 _ZN10QTcpServer11acceptErrorEN15QAbstractSocket11SocketErrorE@Qt_6 6.1.2
 _ZN10QTcpServer11qt_metacallEN11QMetaObject4CallEiPPv@Qt_6 6.1.2
 _ZN10QTcpServer11qt_metacastEPKc@Qt_6 6.1.2
 _ZN10QTcpServer13newConnectionEv@Qt_6 6.1.2
 _ZN10QTcpServer14pauseAcceptingEv@Qt_6 6.1.2
 _ZN10QTcpServer15resumeAcceptingEv@Qt_6 6.1.2
 _ZN10QTcpServer16staticMetaObjectE@Qt_6 6.1.2
 (subst)_ZN10QTcpServer18incomingConnectionE{qptrdiff}@Qt_6 6.1.2
 (subst)_ZN10QTcpServer19setSocketDescriptorE{qptrdiff}@Qt_6 6.1.2
 _ZN10QTcpServer20addPendingConnectionEP10QTcpSocket@Qt_6 6.1.2
 _ZN10QTcpServer20waitForNewConnectionEiPb@Qt_6 6.1.2
 _ZN10QTcpServer21nextPendingConnectionEv@Qt_6 6.1.2
 _ZN10QTcpServer24setMaxPendingConnectionsEi@Qt_6 6.1.2
 _ZN10QTcpServer5closeEv@Qt_6 6.1.2
 _ZN10QTcpServer6listenERK12QHostAddresst@Qt_6 6.1.2
 _ZN10QTcpServer8setProxyERK13QNetworkProxy@Qt_6 6.1.2
 _ZN10QTcpServerC1EP7QObject@Qt_6 6.1.2
 _ZN10QTcpServerC2EP7QObject@Qt_6 6.1.2
 _ZN10QTcpServerD0Ev@Qt_6 6.1.2
 _ZN10QTcpServerD1Ev@Qt_6 6.1.2
 _ZN10QTcpServerD2Ev@Qt_6 6.1.2
 _ZN10QTcpSocket11qt_metacallEN11QMetaObject4CallEiPPv@Qt_6 6.1.2
 _ZN10QTcpSocket11qt_metacastEPKc@Qt_6 6.1.2
 _ZN10QTcpSocket16staticMetaObjectE@Qt_6 6.1.2
 _ZN10QTcpSocketC1EN15QAbstractSocket10SocketTypeER17QTcpSocketPrivateP7QObject@Qt_6 6.1.2
 _ZN10QTcpSocketC1EP7QObject@Qt_6 6.1.2
 _ZN10QTcpSocketC1ER17QTcpSocketPrivateP7QObject@Qt_6 6.1.2
 _ZN10QTcpSocketC2EN15QAbstractSocket10SocketTypeER17QTcpSocketPrivateP7QObject@Qt_6 6.1.2
 _ZN10QTcpSocketC2EP7QObject@Qt_6 6.1.2
 _ZN10QTcpSocketC2ER17QTcpSocketPrivateP7QObject@Qt_6 6.1.2
 _ZN10QTcpSocketD0Ev@Qt_6 6.1.2
 _ZN10QTcpSocketD1Ev@Qt_6 6.1.2
 _ZN10QTcpSocketD2Ev@Qt_6 6.1.2
 _ZN10QUdpSocket11qt_metacallEN11QMetaObject4CallEiPPv@Qt_6 6.1.2
 _ZN10QUdpSocket11qt_metacastEPKc@Qt_6 6.1.2
 _ZN10QUdpSocket12readDatagramEPcxP12QHostAddressPt@Qt_6 6.1.2
 _ZN10QUdpSocket13writeDatagramEPKcxRK12QHostAddresst@Qt_6 6.1.2
 _ZN10QUdpSocket13writeDatagramERK16QNetworkDatagram@Qt_6 6.1.2
 _ZN10QUdpSocket15receiveDatagramEx@Qt_6 6.1.2
 _ZN10QUdpSocket16staticMetaObjectE@Qt_6 6.1.2
 _ZN10QUdpSocket18joinMulticastGroupERK12QHostAddress@Qt_6 6.1.2
 _ZN10QUdpSocket18joinMulticastGroupERK12QHostAddressRK17QNetworkInterface@Qt_6 6.1.2
 _ZN10QUdpSocket19leaveMulticastGroupERK12QHostAddress@Qt_6 6.1.2
 _ZN10QUdpSocket19leaveMulticastGroupERK12QHostAddressRK17QNetworkInterface@Qt_6 6.1.2
 _ZN10QUdpSocket21setMulticastInterfaceERK17QNetworkInterface@Qt_6 6.1.2
 _ZN10QUdpSocketC1EP7QObject@Qt_6 6.1.2
 _ZN10QUdpSocketC2EP7QObject@Qt_6 6.1.2
 _ZN10QUdpSocketD0Ev@Qt_6 6.1.2
 _ZN10QUdpSocketD1Ev@Qt_6 6.1.2
 _ZN10QUdpSocketD2Ev@Qt_6 6.1.2
 _ZN11QHstsPolicy21setIncludesSubDomainsEb@Qt_6 6.1.2
 _ZN11QHstsPolicy7setHostERK7QStringN4QUrl11ParsingModeE@Qt_6 6.1.2
 _ZN11QHstsPolicy9setExpiryERK9QDateTime@Qt_6 6.1.2
 _ZN11QHstsPolicyC1ERK9QDateTime6QFlagsINS_10PolicyFlagEERK7QStringN4QUrl11ParsingModeE@Qt_6 6.1.2
 _ZN11QHstsPolicyC1ERKS_@Qt_6 6.1.2
 _ZN11QHstsPolicyC1Ev@Qt_6 6.1.2
 _ZN11QHstsPolicyC2ERK9QDateTime6QFlagsINS_10PolicyFlagEERK7QStringN4QUrl11ParsingModeE@Qt_6 6.1.2
 _ZN11QHstsPolicyC2ERKS_@Qt_6 6.1.2
 _ZN11QHstsPolicyC2Ev@Qt_6 6.1.2
 _ZN11QHstsPolicyD1Ev@Qt_6 6.1.2
 _ZN11QHstsPolicyD2Ev@Qt_6 6.1.2
 _ZN11QHstsPolicyaSERKS_@Qt_6 6.1.2
 (arch=linux-any)_ZN11QSctpServer11qt_metacallEN11QMetaObject4CallEiPPv@Qt_6 6.1.2
 (arch=linux-any)_ZN11QSctpServer11qt_metacastEPKc@Qt_6 6.1.2
 (arch=linux-any)_ZN11QSctpServer16staticMetaObjectE@Qt_6 6.1.2
 (subst|arch=linux-any)_ZN11QSctpServer18incomingConnectionE{qptrdiff}@Qt_6 6.1.2
 (arch=linux-any)_ZN11QSctpServer22setMaximumChannelCountEi@Qt_6 6.1.2
 (arch=linux-any)_ZN11QSctpServer29nextPendingDatagramConnectionEv@Qt_6 6.1.2
 (arch=linux-any)_ZN11QSctpServerC1EP7QObject@Qt_6 6.1.2
 (arch=linux-any)_ZN11QSctpServerC2EP7QObject@Qt_6 6.1.2
 (arch=linux-any)_ZN11QSctpServerD0Ev@Qt_6 6.1.2
 (arch=linux-any)_ZN11QSctpServerD1Ev@Qt_6 6.1.2
 (arch=linux-any)_ZN11QSctpServerD2Ev@Qt_6 6.1.2
 (arch=linux-any)_ZN11QSctpSocket11qt_metacallEN11QMetaObject4CallEiPPv@Qt_6 6.1.2
 (arch=linux-any)_ZN11QSctpSocket11qt_metacastEPKc@Qt_6 6.1.2
 (arch=linux-any)_ZN11QSctpSocket12readDatagramEv@Qt_6 6.1.2
 (arch=linux-any)_ZN11QSctpSocket12readLineDataEPcx@Qt_6 6.1.2
 (arch=linux-any)_ZN11QSctpSocket13writeDatagramERK16QNetworkDatagram@Qt_6 6.1.2
 (arch=linux-any)_ZN11QSctpSocket16staticMetaObjectE@Qt_6 6.1.2
 (arch=linux-any)_ZN11QSctpSocket18disconnectFromHostEv@Qt_6 6.1.2
 (arch=linux-any)_ZN11QSctpSocket22setMaximumChannelCountEi@Qt_6 6.1.2
 (arch=linux-any)_ZN11QSctpSocket5closeEv@Qt_6 6.1.2
 (arch=linux-any)_ZN11QSctpSocket8readDataEPcx@Qt_6 6.1.2
 (arch=linux-any)_ZN11QSctpSocketC1EP7QObject@Qt_6 6.1.2
 (arch=linux-any)_ZN11QSctpSocketC2EP7QObject@Qt_6 6.1.2
 (arch=linux-any)_ZN11QSctpSocketD0Ev@Qt_6 6.1.2
 (arch=linux-any)_ZN11QSctpSocketD1Ev@Qt_6 6.1.2
 (arch=linux-any)_ZN11QSctpSocketD2Ev@Qt_6 6.1.2
 _ZN12QHostAddress10setAddressENS_14SpecialAddressE@Qt_6 6.1.2
 _ZN12QHostAddress10setAddressEPK8sockaddr@Qt_6 6.1.2
 _ZN12QHostAddress10setAddressEPKh@Qt_6 6.1.2
 _ZN12QHostAddress10setAddressERK12QIPv6Address@Qt_6 6.1.2
 _ZN12QHostAddress10setAddressERK7QString@Qt_6 6.1.2
 _ZN12QHostAddress10setAddressEj@Qt_6 6.1.2
 _ZN12QHostAddress10setScopeIdERK7QString@Qt_6 6.1.2
 _ZN12QHostAddress11parseSubnetERK7QString@Qt_6 6.1.2
 _ZN12QHostAddress16staticMetaObjectE@Qt_6 6.2.0
 _ZN12QHostAddress5clearEv@Qt_6 6.1.2
 _ZN12QHostAddressC1ENS_14SpecialAddressE@Qt_6 6.1.2
 _ZN12QHostAddressC1EPK8sockaddr@Qt_6 6.1.2
 _ZN12QHostAddressC1EPKh@Qt_6 6.1.2
 _ZN12QHostAddressC1ERK12QIPv6Address@Qt_6 6.1.2
 _ZN12QHostAddressC1ERK7QString@Qt_6 6.1.2
 _ZN12QHostAddressC1ERKS_@Qt_6 6.1.2
 _ZN12QHostAddressC1Ej@Qt_6 6.1.2
 _ZN12QHostAddressC1Ev@Qt_6 6.1.2
 _ZN12QHostAddressC2ENS_14SpecialAddressE@Qt_6 6.1.2
 _ZN12QHostAddressC2EPK8sockaddr@Qt_6 6.1.2
 _ZN12QHostAddressC2EPKh@Qt_6 6.1.2
 _ZN12QHostAddressC2ERK12QIPv6Address@Qt_6 6.1.2
 _ZN12QHostAddressC2ERK7QString@Qt_6 6.1.2
 _ZN12QHostAddressC2ERKS_@Qt_6 6.1.2
 _ZN12QHostAddressC2Ej@Qt_6 6.1.2
 _ZN12QHostAddressC2Ev@Qt_6 6.1.2
 _ZN12QHostAddressD1Ev@Qt_6 6.1.2
 _ZN12QHostAddressD2Ev@Qt_6 6.1.2
 _ZN12QHostAddressaSENS_14SpecialAddressE@Qt_6 6.1.2
 _ZN12QHostAddressaSERKS_@Qt_6 6.1.2
 _ZN12QLocalServer11qt_metacallEN11QMetaObject4CallEiPPv@Qt_6 6.1.2
 _ZN12QLocalServer11qt_metacastEPKc@Qt_6 6.1.2
 _ZN12QLocalServer12removeServerERK7QString@Qt_6 6.1.2
 _ZN12QLocalServer13newConnectionEv@Qt_6 6.1.2
 _ZN12QLocalServer16setSocketOptionsE6QFlagsINS_12SocketOptionEE@Qt_6 6.1.2
 _ZN12QLocalServer16staticMetaObjectE@Qt_6 6.1.2
 (subst)_ZN12QLocalServer18incomingConnectionE{quintptr}@Qt_6 6.1.2
 _ZN12QLocalServer20waitForNewConnectionEiPb@Qt_6 6.1.2
 _ZN12QLocalServer21bindableSocketOptionsEv@Qt_6 6.1.2
 _ZN12QLocalServer21nextPendingConnectionEv@Qt_6 6.1.2
 _ZN12QLocalServer24setMaxPendingConnectionsEi@Qt_6 6.1.2
 _ZN12QLocalServer5closeEv@Qt_6 6.1.2
 _ZN12QLocalServer6listenERK7QString@Qt_6 6.1.2
 (subst)_ZN12QLocalServer6listenE{qptrdiff}@Qt_6 6.1.2
 _ZN12QLocalServerC1EP7QObject@Qt_6 6.1.2
 _ZN12QLocalServerC2EP7QObject@Qt_6 6.1.2
 _ZN12QLocalServerD0Ev@Qt_6 6.1.2
 _ZN12QLocalServerD1Ev@Qt_6 6.1.2
 _ZN12QLocalServerD2Ev@Qt_6 6.1.2
 _ZN12QLocalSocket11qt_metacallEN11QMetaObject4CallEiPPv@Qt_6 6.1.2
 _ZN12QLocalSocket11qt_metacastEPKc@Qt_6 6.1.2
 _ZN12QLocalSocket12disconnectedEv@Qt_6 6.1.2
 _ZN12QLocalSocket12stateChangedENS_16LocalSocketStateE@Qt_6 6.1.2
 _ZN12QLocalSocket13errorOccurredENS_16LocalSocketErrorE@Qt_6 6.1.2
 _ZN12QLocalSocket13setServerNameERK7QString@Qt_6 6.1.2
 _ZN12QLocalSocket15connectToServerE6QFlagsIN13QIODeviceBase12OpenModeFlagEE@Qt_6 6.1.2
 _ZN12QLocalSocket15connectToServerERK7QString6QFlagsIN13QIODeviceBase12OpenModeFlagEE@Qt_6 6.1.2
 _ZN12QLocalSocket16setSocketOptionsE6QFlagsINS_12SocketOptionEE@Qt_6 6.2.0
 _ZN12QLocalSocket16staticMetaObjectE@Qt_6 6.1.2
 _ZN12QLocalSocket16waitForConnectedEi@Qt_6 6.1.2
 _ZN12QLocalSocket16waitForReadyReadEi@Qt_6 6.1.2
 _ZN12QLocalSocket17setReadBufferSizeEx@Qt_6 6.1.2
 (subst)_ZN12QLocalSocket19setSocketDescriptorE{qptrdiff}NS_16LocalSocketStateE6QFlagsIN13QIODeviceBase12OpenModeFlagEE@Qt_6 6.1.2
 _ZN12QLocalSocket19waitForBytesWrittenEi@Qt_6 6.1.2
 _ZN12QLocalSocket19waitForDisconnectedEi@Qt_6 6.1.2
 _ZN12QLocalSocket20disconnectFromServerEv@Qt_6 6.1.2
 _ZN12QLocalSocket21bindableSocketOptionsEv@Qt_6 6.2.0
 _ZN12QLocalSocket4openE6QFlagsIN13QIODeviceBase12OpenModeFlagEE@Qt_6 6.1.2
 _ZN12QLocalSocket5abortEv@Qt_6 6.1.2
 _ZN12QLocalSocket5closeEv@Qt_6 6.1.2
 _ZN12QLocalSocket5flushEv@Qt_6 6.1.2
 _ZN12QLocalSocket8readDataEPcx@Qt_6 6.1.2
 _ZN12QLocalSocket8skipDataEx@Qt_6 6.1.2
 _ZN12QLocalSocket9connectedEv@Qt_6 6.1.2
 _ZN12QLocalSocket9writeDataEPKcx@Qt_6 6.1.2
 _ZN12QLocalSocketC1EP7QObject@Qt_6 6.1.2
 _ZN12QLocalSocketC2EP7QObject@Qt_6 6.1.2
 _ZN12QLocalSocketD0Ev@Qt_6 6.1.2
 _ZN12QLocalSocketD1Ev@Qt_6 6.1.2
 _ZN12QLocalSocketD2Ev@Qt_6 6.1.2
 _ZN13QMetaSequence12MetaSequenceI5QListI14QNetworkCookieEE5valueE@Qt_6 6.1.2
 _ZN13QMetaSequence12MetaSequenceI5QListI9QSslErrorEE5valueE@Qt_6 6.1.2
 _ZN13QMetaSequence12MetaSequenceI5QListISt4pairI10QByteArrayS3_EEE5valueE@Qt_6 6.1.2
 _ZN13QNetworkProxy11setHostNameERK7QString@Qt_6 6.1.2
 _ZN13QNetworkProxy11setPasswordERK7QString@Qt_6 6.1.2
 _ZN13QNetworkProxy12setRawHeaderERK10QByteArrayS2_@Qt_6 6.1.2
 _ZN13QNetworkProxy15setCapabilitiesE6QFlagsINS_10CapabilityEE@Qt_6 6.1.2
 _ZN13QNetworkProxy16applicationProxyEv@Qt_6 6.1.2
 _ZN13QNetworkProxy19setApplicationProxyERKS_@Qt_6 6.1.2
 _ZN13QNetworkProxy7setPortEt@Qt_6 6.1.2
 _ZN13QNetworkProxy7setTypeENS_9ProxyTypeE@Qt_6 6.1.2
 _ZN13QNetworkProxy7setUserERK7QString@Qt_6 6.1.2
 _ZN13QNetworkProxy9setHeaderEN15QNetworkRequest12KnownHeadersERK8QVariant@Qt_6 6.1.2
 _ZN13QNetworkProxyC1ENS_9ProxyTypeERK7QStringtS3_S3_@Qt_6 6.1.2
 _ZN13QNetworkProxyC1ERKS_@Qt_6 6.1.2
 _ZN13QNetworkProxyC1Ev@Qt_6 6.1.2
 _ZN13QNetworkProxyC2ENS_9ProxyTypeERK7QStringtS3_S3_@Qt_6 6.1.2
 _ZN13QNetworkProxyC2ERKS_@Qt_6 6.1.2
 _ZN13QNetworkProxyC2Ev@Qt_6 6.1.2
 _ZN13QNetworkProxyD1Ev@Qt_6 6.1.2
 _ZN13QNetworkProxyD2Ev@Qt_6 6.1.2
 _ZN13QNetworkProxyaSERKS_@Qt_6 6.1.2
 _ZN13QNetworkReply10redirectedERK4QUrl@Qt_6 6.1.2
 _ZN13QNetworkReply10setRequestERK15QNetworkRequest@Qt_6 6.1.2
 _ZN13QNetworkReply11qt_metacallEN11QMetaObject4CallEiPPv@Qt_6 6.1.2
 _ZN13QNetworkReply11qt_metacastEPKc@Qt_6 6.1.2
 _ZN13QNetworkReply11setFinishedEb@Qt_6 6.1.2
 _ZN13QNetworkReply12setAttributeEN15QNetworkRequest9AttributeERK8QVariant@Qt_6 6.1.2
 _ZN13QNetworkReply12setOperationEN21QNetworkAccessManager9OperationE@Qt_6 6.1.2
 _ZN13QNetworkReply12setRawHeaderERK10QByteArrayS2_@Qt_6 6.1.2
 _ZN13QNetworkReply13errorOccurredENS_12NetworkErrorE@Qt_6 6.1.2
 _ZN13QNetworkReply14uploadProgressExx@Qt_6 6.1.2
 _ZN13QNetworkReply15ignoreSslErrorsERK5QListI9QSslErrorE@Qt_6 6.1.2
 _ZN13QNetworkReply15ignoreSslErrorsEv@Qt_6 6.1.2
 _ZN13QNetworkReply15metaDataChangedEv@Qt_6 6.1.2
 _ZN13QNetworkReply15redirectAllowedEv@Qt_6 6.1.2
 _ZN13QNetworkReply16downloadProgressExx@Qt_6 6.1.2
 _ZN13QNetworkReply16staticMetaObjectE@Qt_6 6.1.2
 _ZN13QNetworkReply17setReadBufferSizeEx@Qt_6 6.1.2
 _ZN13QNetworkReply19setSslConfigurationERK17QSslConfiguration@Qt_6 6.1.2
 _ZN13QNetworkReply29ignoreSslErrorsImplementationERK5QListI9QSslErrorE@Qt_6 6.1.2
 _ZN13QNetworkReply33setSslConfigurationImplementationERK17QSslConfiguration@Qt_6 6.1.2
 _ZN13QNetworkReply34preSharedKeyAuthenticationRequiredEP29QSslPreSharedKeyAuthenticator@Qt_6 6.1.2
 _ZN13QNetworkReply5closeEv@Qt_6 6.1.2
 _ZN13QNetworkReply6setUrlERK4QUrl@Qt_6 6.1.2
 _ZN13QNetworkReply8finishedEv@Qt_6 6.1.2
 _ZN13QNetworkReply8setErrorENS_12NetworkErrorERK7QString@Qt_6 6.1.2
 _ZN13QNetworkReply9encryptedEv@Qt_6 6.1.2
 _ZN13QNetworkReply9setHeaderEN15QNetworkRequest12KnownHeadersERK8QVariant@Qt_6 6.1.2
 _ZN13QNetworkReply9sslErrorsERK5QListI9QSslErrorE@Qt_6 6.1.2
 _ZN13QNetworkReply9writeDataEPKcx@Qt_6 6.1.2
 _ZN13QNetworkReplyC1EP7QObject@Qt_6 6.1.2
 _ZN13QNetworkReplyC1ER20QNetworkReplyPrivateP7QObject@Qt_6 6.1.2
 _ZN13QNetworkReplyC2EP7QObject@Qt_6 6.1.2
 _ZN13QNetworkReplyC2ER20QNetworkReplyPrivateP7QObject@Qt_6 6.1.2
 _ZN13QNetworkReplyD0Ev@Qt_6 6.1.2
 _ZN13QNetworkReplyD1Ev@Qt_6 6.1.2
 _ZN13QNetworkReplyD2Ev@Qt_6 6.1.2
 _ZN13QOcspResponseC1EOS_@Qt_6 6.1.2
 _ZN13QOcspResponseC1ERKS_@Qt_6 6.1.2
 _ZN13QOcspResponseC1Ev@Qt_6 6.1.2
 _ZN13QOcspResponseC2EOS_@Qt_6 6.1.2
 _ZN13QOcspResponseC2ERKS_@Qt_6 6.1.2
 _ZN13QOcspResponseC2Ev@Qt_6 6.1.2
 _ZN13QOcspResponseD1Ev@Qt_6 6.1.2
 _ZN13QOcspResponseD2Ev@Qt_6 6.1.2
 _ZN13QOcspResponseaSEOS_@Qt_6 6.1.2
 _ZN13QOcspResponseaSERKS_@Qt_6 6.1.2
 _ZN14QAuthenticator11setPasswordERK7QString@Qt_6 6.1.2
 _ZN14QAuthenticator6detachEv@Qt_6 6.1.2
 _ZN14QAuthenticator7setUserERK7QString@Qt_6 6.1.2
 _ZN14QAuthenticator8setRealmERK7QString@Qt_6 6.1.2
 _ZN14QAuthenticator9setOptionERK7QStringRK8QVariant@Qt_6 6.1.2
 _ZN14QAuthenticatorC1ERKS_@Qt_6 6.1.2
 _ZN14QAuthenticatorC1Ev@Qt_6 6.1.2
 _ZN14QAuthenticatorC2ERKS_@Qt_6 6.1.2
 _ZN14QAuthenticatorC2Ev@Qt_6 6.1.2
 _ZN14QAuthenticatorD1Ev@Qt_6 6.1.2
 _ZN14QAuthenticatorD2Ev@Qt_6 6.1.2
 _ZN14QAuthenticatoraSERKS_@Qt_6 6.1.2
 _ZN14QDnsTextRecordC1ERKS_@Qt_6 6.1.2
 _ZN14QDnsTextRecordC1Ev@Qt_6 6.1.2
 _ZN14QDnsTextRecordC2ERKS_@Qt_6 6.1.2
 _ZN14QDnsTextRecordC2Ev@Qt_6 6.1.2
 _ZN14QDnsTextRecordD1Ev@Qt_6 6.1.2
 _ZN14QDnsTextRecordD2Ev@Qt_6 6.1.2
 _ZN14QDnsTextRecordaSERKS_@Qt_6 6.1.2
 _ZN14QHttpMultiPart11qt_metacallEN11QMetaObject4CallEiPPv@Qt_6 6.1.2
 _ZN14QHttpMultiPart11qt_metacastEPKc@Qt_6 6.1.2
 _ZN14QHttpMultiPart11setBoundaryERK10QByteArray@Qt_6 6.1.2
 _ZN14QHttpMultiPart14setContentTypeENS_11ContentTypeE@Qt_6 6.1.2
 _ZN14QHttpMultiPart16staticMetaObjectE@Qt_6 6.1.2
 _ZN14QHttpMultiPart6appendERK9QHttpPart@Qt_6 6.1.2
 _ZN14QHttpMultiPartC1ENS_11ContentTypeEP7QObject@Qt_6 6.1.2
 _ZN14QHttpMultiPartC1EP7QObject@Qt_6 6.1.2
 _ZN14QHttpMultiPartC2ENS_11ContentTypeEP7QObject@Qt_6 6.1.2
 _ZN14QHttpMultiPartC2EP7QObject@Qt_6 6.1.2
 _ZN14QHttpMultiPartD0Ev@Qt_6 6.1.2
 _ZN14QHttpMultiPartD1Ev@Qt_6 6.1.2
 _ZN14QHttpMultiPartD2Ev@Qt_6 6.1.2
 _ZN14QNetworkCookie11setHttpOnlyEb@Qt_6 6.1.2
 _ZN14QNetworkCookie12parseCookiesERK10QByteArray@Qt_6 6.1.2
 _ZN14QNetworkCookie16staticMetaObjectE@Qt_6 6.1.2
 _ZN14QNetworkCookie17setExpirationDateERK9QDateTime@Qt_6 6.1.2
 _ZN14QNetworkCookie17setSameSitePolicyENS_8SameSiteE@Qt_6 6.1.2
 _ZN14QNetworkCookie7setNameERK10QByteArray@Qt_6 6.1.2
 _ZN14QNetworkCookie7setPathERK7QString@Qt_6 6.1.2
 _ZN14QNetworkCookie8setValueERK10QByteArray@Qt_6 6.1.2
 _ZN14QNetworkCookie9normalizeERK4QUrl@Qt_6 6.1.2
 _ZN14QNetworkCookie9setDomainERK7QString@Qt_6 6.1.2
 _ZN14QNetworkCookie9setSecureEb@Qt_6 6.1.2
 _ZN14QNetworkCookieC1ERK10QByteArrayS2_@Qt_6 6.1.2
 _ZN14QNetworkCookieC1ERKS_@Qt_6 6.1.2
 _ZN14QNetworkCookieC2ERK10QByteArrayS2_@Qt_6 6.1.2
 _ZN14QNetworkCookieC2ERKS_@Qt_6 6.1.2
 _ZN14QNetworkCookieD1Ev@Qt_6 6.1.2
 _ZN14QNetworkCookieD2Ev@Qt_6 6.1.2
 _ZN14QNetworkCookieaSERKS_@Qt_6 6.1.2
 _ZN14QSslKeyPrivate7decryptEN11QTlsPrivate6CipherERK10QByteArrayS4_S4_@Qt_6 6.2.0
 _ZN14QSslKeyPrivate7encryptEN11QTlsPrivate6CipherERK10QByteArrayS4_S4_@Qt_6 6.2.0
 _ZN15QAbstractSocket11qt_metacallEN11QMetaObject4CallEiPPv@Qt_6 6.1.2
 _ZN15QAbstractSocket11qt_metacastEPKc@Qt_6 6.1.2
 _ZN15QAbstractSocket11setPeerNameERK7QString@Qt_6 6.1.2
 _ZN15QAbstractSocket11setPeerPortEt@Qt_6 6.1.2
 _ZN15QAbstractSocket12disconnectedEv@Qt_6 6.1.2
 _ZN15QAbstractSocket12readLineDataEPcx@Qt_6 6.1.2
 _ZN15QAbstractSocket12setLocalPortEt@Qt_6 6.1.2
 _ZN15QAbstractSocket12setPauseModeE6QFlagsINS_9PauseModeEE@Qt_6 6.1.2
 _ZN15QAbstractSocket12socketOptionENS_12SocketOptionE@Qt_6 6.1.2
 _ZN15QAbstractSocket12stateChangedENS_11SocketStateE@Qt_6 6.1.2
 _ZN15QAbstractSocket13connectToHostERK12QHostAddresst6QFlagsIN13QIODeviceBase12OpenModeFlagEE@Qt_6 6.1.2
 _ZN15QAbstractSocket13connectToHostERK7QStringt6QFlagsIN13QIODeviceBase12OpenModeFlagEENS_20NetworkLayerProtocolE@Qt_6 6.1.2
 _ZN15QAbstractSocket13errorOccurredENS_11SocketErrorE@Qt_6 6.1.2
 _ZN15QAbstractSocket14setPeerAddressERK12QHostAddress@Qt_6 6.1.2
 _ZN15QAbstractSocket14setProtocolTagERK7QString@Qt_6 6.1.2
 _ZN15QAbstractSocket14setSocketErrorENS_11SocketErrorE@Qt_6 6.1.2
 _ZN15QAbstractSocket14setSocketStateENS_11SocketStateE@Qt_6 6.1.2
 _ZN15QAbstractSocket15setLocalAddressERK12QHostAddress@Qt_6 6.1.2
 _ZN15QAbstractSocket15setSocketOptionENS_12SocketOptionERK8QVariant@Qt_6 6.1.2
 _ZN15QAbstractSocket16staticMetaObjectE@Qt_6 6.1.2
 _ZN15QAbstractSocket16waitForConnectedEi@Qt_6 6.1.2
 _ZN15QAbstractSocket16waitForReadyReadEi@Qt_6 6.1.2
 _ZN15QAbstractSocket17setReadBufferSizeEx@Qt_6 6.1.2
 _ZN15QAbstractSocket18disconnectFromHostEv@Qt_6 6.1.2
 (subst)_ZN15QAbstractSocket19setSocketDescriptorE{qptrdiff}NS_11SocketStateE6QFlagsIN13QIODeviceBase12OpenModeFlagEE@Qt_6 6.1.2
 _ZN15QAbstractSocket19waitForBytesWrittenEi@Qt_6 6.1.2
 _ZN15QAbstractSocket19waitForDisconnectedEi@Qt_6 6.1.2
 _ZN15QAbstractSocket27proxyAuthenticationRequiredERK13QNetworkProxyP14QAuthenticator@Qt_6 6.1.2
 _ZN15QAbstractSocket4bindERK12QHostAddresst6QFlagsINS_8BindFlagEE@Qt_6 6.1.2
 _ZN15QAbstractSocket4bindEt6QFlagsINS_8BindFlagEE@Qt_6 6.1.2
 _ZN15QAbstractSocket5abortEv@Qt_6 6.1.2
 _ZN15QAbstractSocket5closeEv@Qt_6 6.1.2
 _ZN15QAbstractSocket5flushEv@Qt_6 6.1.2
 _ZN15QAbstractSocket6resumeEv@Qt_6 6.1.2
 _ZN15QAbstractSocket8readDataEPcx@Qt_6 6.1.2
 _ZN15QAbstractSocket8setProxyERK13QNetworkProxy@Qt_6 6.1.2
 _ZN15QAbstractSocket8skipDataEx@Qt_6 6.1.2
 _ZN15QAbstractSocket9connectedEv@Qt_6 6.1.2
 _ZN15QAbstractSocket9hostFoundEv@Qt_6 6.1.2
 _ZN15QAbstractSocket9writeDataEPKcx@Qt_6 6.1.2
 _ZN15QAbstractSocketC1ENS_10SocketTypeEP7QObject@Qt_6 6.1.2
 _ZN15QAbstractSocketC1ENS_10SocketTypeER22QAbstractSocketPrivateP7QObject@Qt_6 6.1.2
 _ZN15QAbstractSocketC2ENS_10SocketTypeEP7QObject@Qt_6 6.1.2
 _ZN15QAbstractSocketC2ENS_10SocketTypeER22QAbstractSocketPrivateP7QObject@Qt_6 6.1.2
 _ZN15QAbstractSocketD0Ev@Qt_6 6.1.2
 _ZN15QAbstractSocketD1Ev@Qt_6 6.1.2
 _ZN15QAbstractSocketD2Ev@Qt_6 6.1.2
 _ZN15QNetworkRequest11setPriorityENS_8PriorityE@Qt_6 6.1.2
 _ZN15QNetworkRequest12setAttributeENS_9AttributeERK8QVariant@Qt_6 6.1.2
 _ZN15QNetworkRequest12setRawHeaderERK10QByteArrayS2_@Qt_6 6.1.2
 _ZN15QNetworkRequest17setPeerVerifyNameERK7QString@Qt_6 6.1.2
 _ZN15QNetworkRequest18setTransferTimeoutEi@Qt_6 6.1.2
 _ZN15QNetworkRequest19setSslConfigurationERK17QSslConfiguration@Qt_6 6.1.2
 _ZN15QNetworkRequest20setOriginatingObjectEP7QObject@Qt_6 6.1.2
 _ZN15QNetworkRequest21setHttp2ConfigurationERK19QHttp2Configuration@Qt_6 6.1.2
 _ZN15QNetworkRequest26setMaximumRedirectsAllowedEi@Qt_6 6.1.2
 _ZN15QNetworkRequest35setDecompressedSafetyCheckThresholdEx@Qt_6 6.2.0
 _ZN15QNetworkRequest6setUrlERK4QUrl@Qt_6 6.1.2
 _ZN15QNetworkRequest9setHeaderENS_12KnownHeadersERK8QVariant@Qt_6 6.1.2
 _ZN15QNetworkRequestC1ERK4QUrl@Qt_6 6.1.2
 _ZN15QNetworkRequestC1ERKS_@Qt_6 6.1.2
 _ZN15QNetworkRequestC1Ev@Qt_6 6.1.2
 _ZN15QNetworkRequestC2ERK4QUrl@Qt_6 6.1.2
 _ZN15QNetworkRequestC2ERKS_@Qt_6 6.1.2
 _ZN15QNetworkRequestC2Ev@Qt_6 6.1.2
 _ZN15QNetworkRequestD1Ev@Qt_6 6.1.2
 _ZN15QNetworkRequestD2Ev@Qt_6 6.1.2
 _ZN15QNetworkRequestaSERKS_@Qt_6 6.1.2
 _ZN15QSslCertificate10fromDeviceEP9QIODeviceN4QSsl14EncodingFormatE@Qt_6 6.1.2
 _ZN15QSslCertificate12importPkcs12EP9QIODeviceP7QSslKeyPS_P5QListIS_ERK10QByteArray@Qt_6 6.1.2
 _ZN15QSslCertificate5clearEv@Qt_6 6.1.2
 _ZN15QSslCertificate6verifyERK5QListIS_ERK7QString@Qt_6 6.1.2
 _ZN15QSslCertificate8fromDataERK10QByteArrayN4QSsl14EncodingFormatE@Qt_6 6.1.2
 _ZN15QSslCertificate8fromPathERK7QStringN4QSsl14EncodingFormatENS_13PatternSyntaxE@Qt_6 6.1.2
 _ZN15QSslCertificateC1EP9QIODeviceN4QSsl14EncodingFormatE@Qt_6 6.1.2
 _ZN15QSslCertificateC1ERK10QByteArrayN4QSsl14EncodingFormatE@Qt_6 6.1.2
 _ZN15QSslCertificateC1ERKS_@Qt_6 6.1.2
 _ZN15QSslCertificateC2EP9QIODeviceN4QSsl14EncodingFormatE@Qt_6 6.1.2
 _ZN15QSslCertificateC2ERK10QByteArrayN4QSsl14EncodingFormatE@Qt_6 6.1.2
 _ZN15QSslCertificateC2ERKS_@Qt_6 6.1.2
 _ZN15QSslCertificateD1Ev@Qt_6 6.1.2
 _ZN15QSslCertificateD2Ev@Qt_6 6.1.2
 _ZN15QSslCertificateaSERKS_@Qt_6 6.1.2
 _ZN16QNetworkDatagram11setHopLimitEi@Qt_6 6.1.2
 _ZN16QNetworkDatagram14setDestinationERK12QHostAddresst@Qt_6 6.1.2
 _ZN16QNetworkDatagram17setInterfaceIndexEj@Qt_6 6.1.2
 _ZN16QNetworkDatagram24makeReply_helper_inplaceERK10QByteArray@Qt_6 6.1.2
 _ZN16QNetworkDatagram5clearEv@Qt_6 6.1.2
 _ZN16QNetworkDatagram7destroyEP23QNetworkDatagramPrivate@Qt_6 6.1.2
 _ZN16QNetworkDatagram7setDataERK10QByteArray@Qt_6 6.1.2
 _ZN16QNetworkDatagram9setSenderERK12QHostAddresst@Qt_6 6.1.2
 _ZN16QNetworkDatagramC1ER23QNetworkDatagramPrivate@Qt_6 6.1.2
 _ZN16QNetworkDatagramC1ERK10QByteArrayRK12QHostAddresst@Qt_6 6.1.2
 _ZN16QNetworkDatagramC1ERKS_@Qt_6 6.1.2
 _ZN16QNetworkDatagramC1Ev@Qt_6 6.1.2
 _ZN16QNetworkDatagramC2ER23QNetworkDatagramPrivate@Qt_6 6.1.2
 _ZN16QNetworkDatagramC2ERK10QByteArrayRK12QHostAddresst@Qt_6 6.1.2
 _ZN16QNetworkDatagramC2ERKS_@Qt_6 6.1.2
 _ZN16QNetworkDatagramC2Ev@Qt_6 6.1.2
 _ZN16QNetworkDatagramaSERKS_@Qt_6 6.1.2
 _ZN17QDnsServiceRecordC1ERKS_@Qt_6 6.1.2
 _ZN17QDnsServiceRecordC1Ev@Qt_6 6.1.2
 _ZN17QDnsServiceRecordC2ERKS_@Qt_6 6.1.2
 _ZN17QDnsServiceRecordC2Ev@Qt_6 6.1.2
 _ZN17QDnsServiceRecordD1Ev@Qt_6 6.1.2
 _ZN17QDnsServiceRecordD2Ev@Qt_6 6.1.2
 _ZN17QDnsServiceRecordaSERKS_@Qt_6 6.1.2
 _ZN17QNetworkCookieJar11qt_metacallEN11QMetaObject4CallEiPPv@Qt_6 6.1.2
 _ZN17QNetworkCookieJar11qt_metacastEPKc@Qt_6 6.1.2
 _ZN17QNetworkCookieJar12deleteCookieERK14QNetworkCookie@Qt_6 6.1.2
 _ZN17QNetworkCookieJar12insertCookieERK14QNetworkCookie@Qt_6 6.1.2
 _ZN17QNetworkCookieJar12updateCookieERK14QNetworkCookie@Qt_6 6.1.2
 _ZN17QNetworkCookieJar13setAllCookiesERK5QListI14QNetworkCookieE@Qt_6 6.1.2
 _ZN17QNetworkCookieJar16staticMetaObjectE@Qt_6 6.1.2
 _ZN17QNetworkCookieJar17setCookiesFromUrlERK5QListI14QNetworkCookieERK4QUrl@Qt_6 6.1.2
 _ZN17QNetworkCookieJarC1EP7QObject@Qt_6 6.1.2
 _ZN17QNetworkCookieJarC2EP7QObject@Qt_6 6.1.2
 _ZN17QNetworkCookieJarD0Ev@Qt_6 6.1.2
 _ZN17QNetworkCookieJarD1Ev@Qt_6 6.1.2
 _ZN17QNetworkCookieJarD2Ev@Qt_6 6.1.2
 _ZN17QNetworkDiskCache11qt_metacallEN11QMetaObject4CallEiPPv@Qt_6 6.1.2
 _ZN17QNetworkDiskCache11qt_metacastEPKc@Qt_6 6.1.2
 _ZN17QNetworkDiskCache14updateMetaDataERK21QNetworkCacheMetaData@Qt_6 6.1.2
 _ZN17QNetworkDiskCache16staticMetaObjectE@Qt_6 6.1.2
 _ZN17QNetworkDiskCache17setCacheDirectoryERK7QString@Qt_6 6.1.2
 _ZN17QNetworkDiskCache19setMaximumCacheSizeEx@Qt_6 6.1.2
 _ZN17QNetworkDiskCache4dataERK4QUrl@Qt_6 6.1.2
 _ZN17QNetworkDiskCache5clearEv@Qt_6 6.1.2
 _ZN17QNetworkDiskCache6expireEv@Qt_6 6.1.2
 _ZN17QNetworkDiskCache6insertEP9QIODevice@Qt_6 6.1.2
 _ZN17QNetworkDiskCache6removeERK4QUrl@Qt_6 6.1.2
 _ZN17QNetworkDiskCache7prepareERK21QNetworkCacheMetaData@Qt_6 6.1.2
 _ZN17QNetworkDiskCache8metaDataERK4QUrl@Qt_6 6.1.2
 _ZN17QNetworkDiskCacheC1EP7QObject@Qt_6 6.1.2
 _ZN17QNetworkDiskCacheC2EP7QObject@Qt_6 6.1.2
 _ZN17QNetworkDiskCacheD0Ev@Qt_6 6.1.2
 _ZN17QNetworkDiskCacheD1Ev@Qt_6 6.1.2
 _ZN17QNetworkDiskCacheD2Ev@Qt_6 6.1.2
 _ZN17QNetworkInterface12allAddressesEv@Qt_6 6.1.2
 _ZN17QNetworkInterface13allInterfacesEv@Qt_6 6.1.2
 _ZN17QNetworkInterface16staticMetaObjectE@Qt_6 6.1.2
 _ZN17QNetworkInterface17interfaceFromNameERK7QString@Qt_6 6.1.2
 _ZN17QNetworkInterface18interfaceFromIndexEi@Qt_6 6.1.2
 _ZN17QNetworkInterface22interfaceIndexFromNameERK7QString@Qt_6 6.1.2
 _ZN17QNetworkInterface22interfaceNameFromIndexEi@Qt_6 6.1.2
 _ZN17QNetworkInterfaceC1ERKS_@Qt_6 6.1.2
 _ZN17QNetworkInterfaceC1Ev@Qt_6 6.1.2
 _ZN17QNetworkInterfaceC2ERKS_@Qt_6 6.1.2
 _ZN17QNetworkInterfaceC2Ev@Qt_6 6.1.2
 _ZN17QNetworkInterfaceD1Ev@Qt_6 6.1.2
 _ZN17QNetworkInterfaceD2Ev@Qt_6 6.1.2
 _ZN17QNetworkInterfaceaSERKS_@Qt_6 6.1.2
 _ZN17QPasswordDigestor15deriveKeyPbkdf1EN18QCryptographicHash9AlgorithmERK10QByteArrayS4_iy@Qt_6 6.1.2
 _ZN17QPasswordDigestor15deriveKeyPbkdf2EN18QCryptographicHash9AlgorithmERK10QByteArrayS4_iy@Qt_6 6.1.2
 _ZN17QSslConfiguration10setCiphersERK5QListI10QSslCipherE@Qt_6 6.1.2
 _ZN17QSslConfiguration10setCiphersERK7QString@Qt_6 6.1.2
 _ZN17QSslConfiguration11setProtocolEN4QSsl11SslProtocolE@Qt_6 6.1.2
 _ZN17QSslConfiguration12setSslOptionEN4QSsl9SslOptionEb@Qt_6 6.1.2
 _ZN17QSslConfiguration13setPrivateKeyERK7QSslKey@Qt_6 6.1.2
 _ZN17QSslConfiguration16addCaCertificateERK15QSslCertificate@Qt_6 6.1.2
 _ZN17QSslConfiguration16setSessionTicketERK10QByteArray@Qt_6 6.1.2
 _ZN17QSslConfiguration16supportedCiphersEv@Qt_6 6.1.2
 _ZN17QSslConfiguration17ALPNProtocolHTTP2E@Qt_6 6.1.2
 _ZN17QSslConfiguration17addCaCertificatesERK5QListI15QSslCertificateE@Qt_6 6.1.2
 _ZN17QSslConfiguration17addCaCertificatesERK7QStringN4QSsl14EncodingFormatEN15QSslCertificate13PatternSyntaxE@Qt_6 6.1.2
 _ZN17QSslConfiguration17setCaCertificatesERK5QListI15QSslCertificateE@Qt_6 6.1.2
 _ZN17QSslConfiguration17setEllipticCurvesERK5QListI17QSslEllipticCurveE@Qt_6 6.1.2
 _ZN17QSslConfiguration17setPeerVerifyModeEN10QSslSocket14PeerVerifyModeE@Qt_6 6.1.2
 _ZN17QSslConfiguration18setPeerVerifyDepthEi@Qt_6 6.1.2
 _ZN17QSslConfiguration19NextProtocolHttp1_1E@Qt_6 6.1.2
 _ZN17QSslConfiguration19setLocalCertificateERK15QSslCertificate@Qt_6 6.1.2
 _ZN17QSslConfiguration20defaultConfigurationEv@Qt_6 6.1.2
 _ZN17QSslConfiguration20systemCaCertificatesEv@Qt_6 6.1.2
 _ZN17QSslConfiguration22setOcspStaplingEnabledEb@Qt_6 6.1.2
 _ZN17QSslConfiguration23setAllowedNextProtocolsERK5QListI10QByteArrayE@Qt_6 6.1.2
 _ZN17QSslConfiguration23setBackendConfigurationERK4QMapI10QByteArray8QVariantE@Qt_6 6.1.2
 _ZN17QSslConfiguration23setDefaultConfigurationERKS_@Qt_6 6.1.2
 _ZN17QSslConfiguration23supportedEllipticCurvesEv@Qt_6 6.1.2
 _ZN17QSslConfiguration24defaultDtlsConfigurationEv@Qt_6 6.1.2
 _ZN17QSslConfiguration24setLocalCertificateChainERK5QListI15QSslCertificateE@Qt_6 6.1.2
 _ZN17QSslConfiguration26setDiffieHellmanParametersERK27QSslDiffieHellmanParameters@Qt_6 6.1.2
 _ZN17QSslConfiguration27setDefaultDtlsConfigurationERKS_@Qt_6 6.1.2
 _ZN17QSslConfiguration27setPreSharedKeyIdentityHintERK10QByteArray@Qt_6 6.1.2
 _ZN17QSslConfiguration28setMissingCertificateIsFatalEb@Qt_6 6.1.2
 _ZN17QSslConfiguration29setBackendConfigurationOptionERK10QByteArrayRK8QVariant@Qt_6 6.1.2
 _ZN17QSslConfiguration32setDtlsCookieVerificationEnabledEb@Qt_6 6.1.2
 _ZN17QSslConfiguration32setHandshakeMustInterruptOnErrorEb@Qt_6 6.1.2
 _ZN17QSslConfigurationC1ERKS_@Qt_6 6.1.2
 _ZN17QSslConfigurationC1Ev@Qt_6 6.1.2
 _ZN17QSslConfigurationC2ERKS_@Qt_6 6.1.2
 _ZN17QSslConfigurationC2Ev@Qt_6 6.1.2
 _ZN17QSslConfigurationD1Ev@Qt_6 6.1.2
 _ZN17QSslConfigurationD2Ev@Qt_6 6.1.2
 _ZN17QSslConfigurationaSERKS_@Qt_6 6.1.2
 _ZN17QSslEllipticCurve12fromLongNameERK7QString@Qt_6 6.1.2
 _ZN17QSslEllipticCurve13fromShortNameERK7QString@Qt_6 6.1.2
 _ZN18QNetworkProxyQuery11setPeerPortEi@Qt_6 6.1.2
 _ZN18QNetworkProxyQuery12setLocalPortEi@Qt_6 6.1.2
 _ZN18QNetworkProxyQuery12setQueryTypeENS_9QueryTypeE@Qt_6 6.1.2
 _ZN18QNetworkProxyQuery14setProtocolTagERK7QString@Qt_6 6.1.2
 _ZN18QNetworkProxyQuery15setPeerHostNameERK7QString@Qt_6 6.1.2
 _ZN18QNetworkProxyQuery16staticMetaObjectE@Qt_6 6.1.2
 _ZN18QNetworkProxyQuery6setUrlERK4QUrl@Qt_6 6.1.2
 _ZN18QNetworkProxyQueryC1ERK4QUrlNS_9QueryTypeE@Qt_6 6.1.2
 _ZN18QNetworkProxyQueryC1ERK7QStringiS2_NS_9QueryTypeE@Qt_6 6.1.2
 _ZN18QNetworkProxyQueryC1ERKS_@Qt_6 6.1.2
 _ZN18QNetworkProxyQueryC1EtRK7QStringNS_9QueryTypeE@Qt_6 6.1.2
 _ZN18QNetworkProxyQueryC1Ev@Qt_6 6.1.2
 _ZN18QNetworkProxyQueryC2ERK4QUrlNS_9QueryTypeE@Qt_6 6.1.2
 _ZN18QNetworkProxyQueryC2ERK7QStringiS2_NS_9QueryTypeE@Qt_6 6.1.2
 _ZN18QNetworkProxyQueryC2ERKS_@Qt_6 6.1.2
 _ZN18QNetworkProxyQueryC2EtRK7QStringNS_9QueryTypeE@Qt_6 6.1.2
 _ZN18QNetworkProxyQueryC2Ev@Qt_6 6.1.2
 _ZN18QNetworkProxyQueryD1Ev@Qt_6 6.1.2
 _ZN18QNetworkProxyQueryD2Ev@Qt_6 6.1.2
 _ZN18QNetworkProxyQueryaSERKS_@Qt_6 6.1.2
 _ZN19QDtlsClientVerifier11qt_metacallEN11QMetaObject4CallEiPPv@Qt_6 6.1.2
 _ZN19QDtlsClientVerifier11qt_metacastEPKc@Qt_6 6.1.2
 _ZN19QDtlsClientVerifier12verifyClientEP10QUdpSocketRK10QByteArrayRK12QHostAddresst@Qt_6 6.1.2
 _ZN19QDtlsClientVerifier16staticMetaObjectE@Qt_6 6.1.2
 _ZN19QDtlsClientVerifier19GeneratorParametersC1EN18QCryptographicHash9AlgorithmERK10QByteArray@Qt_6 6.1.2
 _ZN19QDtlsClientVerifier19GeneratorParametersC1Ev@Qt_6 6.1.2
 _ZN19QDtlsClientVerifier19GeneratorParametersC2EN18QCryptographicHash9AlgorithmERK10QByteArray@Qt_6 6.1.2
 _ZN19QDtlsClientVerifier19GeneratorParametersC2Ev@Qt_6 6.1.2
 _ZN19QDtlsClientVerifier28setCookieGeneratorParametersERKNS_19GeneratorParametersE@Qt_6 6.1.2
 _ZN19QDtlsClientVerifierC1EP7QObject@Qt_6 6.1.2
 _ZN19QDtlsClientVerifierC2EP7QObject@Qt_6 6.1.2
 _ZN19QDtlsClientVerifierD0Ev@Qt_6 6.1.2
 _ZN19QDtlsClientVerifierD1Ev@Qt_6 6.1.2
 _ZN19QDtlsClientVerifierD2Ev@Qt_6 6.1.2
 _ZN19QHttp2Configuration15setMaxFrameSizeEj@Qt_6 6.1.2
 _ZN19QHttp2Configuration20setServerPushEnabledEb@Qt_6 6.1.2
 _ZN19QHttp2Configuration26setStreamReceiveWindowSizeEj@Qt_6 6.1.2
 _ZN19QHttp2Configuration27setSessionReceiveWindowSizeEj@Qt_6 6.1.2
 _ZN19QHttp2Configuration28setHuffmanCompressionEnabledEb@Qt_6 6.1.2
 _ZN19QHttp2Configuration4swapERS_@Qt_6 6.1.2
 _ZN19QHttp2ConfigurationC1EOS_@Qt_6 6.1.2
 _ZN19QHttp2ConfigurationC1ERKS_@Qt_6 6.1.2
 _ZN19QHttp2ConfigurationC1Ev@Qt_6 6.1.2
 _ZN19QHttp2ConfigurationC2EOS_@Qt_6 6.1.2
 _ZN19QHttp2ConfigurationC2ERKS_@Qt_6 6.1.2
 _ZN19QHttp2ConfigurationC2Ev@Qt_6 6.1.2
 _ZN19QHttp2ConfigurationD1Ev@Qt_6 6.1.2
 _ZN19QHttp2ConfigurationD2Ev@Qt_6 6.1.2
 _ZN19QHttp2ConfigurationaSEOS_@Qt_6 6.1.2
 _ZN19QHttp2ConfigurationaSERKS_@Qt_6 6.1.2
 _ZN19QNetworkInformation11qt_metacallEN11QMetaObject4CallEiPPv@Qt_6 6.1.2
 _ZN19QNetworkInformation11qt_metacastEPKc@Qt_6 6.1.2
 _ZN19QNetworkInformation16staticMetaObjectE@Qt_6 6.1.2
 _ZN19QNetworkInformation17availableBackendsEv@Qt_6 6.1.2
 _ZN19QNetworkInformation19reachabilityChangedENS_12ReachabilityE@Qt_6 6.1.2
 _ZN19QNetworkInformation28isBehindCaptivePortalChangedEb@Qt_6 6.2.0
 _ZN19QNetworkInformation4loadE11QStringView@Qt_6 6.1.2
 _ZN19QNetworkInformation4loadE6QFlagsINS_7FeatureEE@Qt_6 6.1.2
 _ZN19QNetworkInformation8instanceEv@Qt_6 6.1.2
 _ZN19QNetworkInformationD0Ev@Qt_6 6.1.2
 _ZN19QNetworkInformationD1Ev@Qt_6 6.1.2
 _ZN19QNetworkInformationD2Ev@Qt_6 6.1.2
 _ZN20QDnsDomainNameRecordC1ERKS_@Qt_6 6.1.2
 _ZN20QDnsDomainNameRecordC1Ev@Qt_6 6.1.2
 _ZN20QDnsDomainNameRecordC2ERKS_@Qt_6 6.1.2
 _ZN20QDnsDomainNameRecordC2Ev@Qt_6 6.1.2
 _ZN20QDnsDomainNameRecordD1Ev@Qt_6 6.1.2
 _ZN20QDnsDomainNameRecordD2Ev@Qt_6 6.1.2
 _ZN20QDnsDomainNameRecordaSERKS_@Qt_6 6.1.2
 _ZN20QNetworkAddressEntry10setNetmaskERK12QHostAddress@Qt_6 6.1.2
 _ZN20QNetworkAddressEntry12setBroadcastERK12QHostAddress@Qt_6 6.1.2
 _ZN20QNetworkAddressEntry15setPrefixLengthEi@Qt_6 6.1.2
 _ZN20QNetworkAddressEntry17setDnsEligibilityENS_20DnsEligibilityStatusE@Qt_6 6.1.2
 _ZN20QNetworkAddressEntry18setAddressLifetimeE14QDeadlineTimerS0_@Qt_6 6.1.2
 _ZN20QNetworkAddressEntry20clearAddressLifetimeEv@Qt_6 6.1.2
 _ZN20QNetworkAddressEntry5setIpERK12QHostAddress@Qt_6 6.1.2
 _ZN20QNetworkAddressEntryC1ERKS_@Qt_6 6.1.2
 _ZN20QNetworkAddressEntryC1Ev@Qt_6 6.1.2
 _ZN20QNetworkAddressEntryC2ERKS_@Qt_6 6.1.2
 _ZN20QNetworkAddressEntryC2Ev@Qt_6 6.1.2
 _ZN20QNetworkAddressEntryD1Ev@Qt_6 6.1.2
 _ZN20QNetworkAddressEntryD2Ev@Qt_6 6.1.2
 _ZN20QNetworkAddressEntryaSERKS_@Qt_6 6.1.2
 _ZN20QNetworkProxyFactory13proxyForQueryERK18QNetworkProxyQuery@Qt_6 6.1.2
 _ZN20QNetworkProxyFactory19systemProxyForQueryERK18QNetworkProxyQuery@Qt_6 6.1.2
 _ZN20QNetworkProxyFactory23usesSystemConfigurationEv@Qt_6 6.1.2
 _ZN20QNetworkProxyFactory25setUseSystemConfigurationEb@Qt_6 6.1.2
 _ZN20QNetworkProxyFactory26setApplicationProxyFactoryEPS_@Qt_6 6.1.2
 _ZN20QNetworkProxyFactoryC1Ev@Qt_6 6.1.2
 _ZN20QNetworkProxyFactoryC2Ev@Qt_6 6.1.2
 _ZN20QNetworkProxyFactoryD0Ev@Qt_6 6.1.2
 _ZN20QNetworkProxyFactoryD1Ev@Qt_6 6.1.2
 _ZN20QNetworkProxyFactoryD2Ev@Qt_6 6.1.2
 _ZN21QAbstractNetworkCache11qt_metacallEN11QMetaObject4CallEiPPv@Qt_6 6.1.2
 _ZN21QAbstractNetworkCache11qt_metacastEPKc@Qt_6 6.1.2
 _ZN21QAbstractNetworkCache16staticMetaObjectE@Qt_6 6.1.2
 _ZN21QAbstractNetworkCacheC1EP7QObject@Qt_6 6.1.2
 _ZN21QAbstractNetworkCacheC1ER28QAbstractNetworkCachePrivateP7QObject@Qt_6 6.1.2
 _ZN21QAbstractNetworkCacheC2EP7QObject@Qt_6 6.1.2
 _ZN21QAbstractNetworkCacheC2ER28QAbstractNetworkCachePrivateP7QObject@Qt_6 6.1.2
 _ZN21QAbstractNetworkCacheD0Ev@Qt_6 6.1.2
 _ZN21QAbstractNetworkCacheD1Ev@Qt_6 6.1.2
 _ZN21QAbstractNetworkCacheD2Ev@Qt_6 6.1.2
 _ZN21QDnsHostAddressRecordC1ERKS_@Qt_6 6.1.2
 _ZN21QDnsHostAddressRecordC1Ev@Qt_6 6.1.2
 _ZN21QDnsHostAddressRecordC2ERKS_@Qt_6 6.1.2
 _ZN21QDnsHostAddressRecordC2Ev@Qt_6 6.1.2
 _ZN21QDnsHostAddressRecordD1Ev@Qt_6 6.1.2
 _ZN21QDnsHostAddressRecordD2Ev@Qt_6 6.1.2
 _ZN21QDnsHostAddressRecordaSERKS_@Qt_6 6.1.2
 _ZN21QNetworkAccessManager11qt_metacallEN11QMetaObject4CallEiPPv@Qt_6 6.1.2
 _ZN21QNetworkAccessManager11qt_metacastEPKc@Qt_6 6.1.2
 _ZN21QNetworkAccessManager12setCookieJarEP17QNetworkCookieJar@Qt_6 6.1.2
 _ZN21QNetworkAccessManager13connectToHostERK7QStringt@Qt_6 6.1.2
 _ZN21QNetworkAccessManager13createRequestENS_9OperationERK15QNetworkRequestP9QIODevice@Qt_6 6.1.2
 _ZN21QNetworkAccessManager14deleteResourceERK15QNetworkRequest@Qt_6 6.1.2
 _ZN21QNetworkAccessManager15setProxyFactoryEP20QNetworkProxyFactory@Qt_6 6.1.2
 _ZN21QNetworkAccessManager16clearAccessCacheEv@Qt_6 6.1.2
 _ZN21QNetworkAccessManager16staticMetaObjectE@Qt_6 6.1.2
 _ZN21QNetworkAccessManager17sendCustomRequestERK15QNetworkRequestRK10QByteArrayP14QHttpMultiPart@Qt_6 6.1.2
 _ZN21QNetworkAccessManager17sendCustomRequestERK15QNetworkRequestRK10QByteArrayP9QIODevice@Qt_6 6.1.2
 _ZN21QNetworkAccessManager17sendCustomRequestERK15QNetworkRequestRK10QByteArrayS5_@Qt_6 6.1.2
 _ZN21QNetworkAccessManager17setRedirectPolicyEN15QNetworkRequest14RedirectPolicyE@Qt_6 6.1.2
 _ZN21QNetworkAccessManager18setTransferTimeoutEi@Qt_6 6.1.2
 _ZN21QNetworkAccessManager20clearConnectionCacheEv@Qt_6 6.1.2
 _ZN21QNetworkAccessManager20setAutoDeleteRepliesEb@Qt_6 6.1.2
 _ZN21QNetworkAccessManager22authenticationRequiredEP13QNetworkReplyP14QAuthenticator@Qt_6 6.1.2
 _ZN21QNetworkAccessManager22connectToHostEncryptedERK7QStringtRK17QSslConfiguration@Qt_6 6.1.2
 _ZN21QNetworkAccessManager22connectToHostEncryptedERK7QStringtRK17QSslConfigurationS2_@Qt_6 6.1.2
 _ZN21QNetworkAccessManager27proxyAuthenticationRequiredERK13QNetworkProxyP14QAuthenticator@Qt_6 6.1.2
 _ZN21QNetworkAccessManager31addStrictTransportSecurityHostsERK5QListI11QHstsPolicyE@Qt_6 6.1.2
 _ZN21QNetworkAccessManager33setStrictTransportSecurityEnabledEb@Qt_6 6.1.2
 _ZN21QNetworkAccessManager34enableStrictTransportSecurityStoreEbRK7QString@Qt_6 6.1.2
 _ZN21QNetworkAccessManager34preSharedKeyAuthenticationRequiredEP13QNetworkReplyP29QSslPreSharedKeyAuthenticator@Qt_6 6.1.2
 _ZN21QNetworkAccessManager3getERK15QNetworkRequest@Qt_6 6.1.2
 _ZN21QNetworkAccessManager3putERK15QNetworkRequestP14QHttpMultiPart@Qt_6 6.1.2
 _ZN21QNetworkAccessManager3putERK15QNetworkRequestP9QIODevice@Qt_6 6.1.2
 _ZN21QNetworkAccessManager3putERK15QNetworkRequestRK10QByteArray@Qt_6 6.1.2
 _ZN21QNetworkAccessManager4headERK15QNetworkRequest@Qt_6 6.1.2
 _ZN21QNetworkAccessManager4postERK15QNetworkRequestP14QHttpMultiPart@Qt_6 6.1.2
 _ZN21QNetworkAccessManager4postERK15QNetworkRequestP9QIODevice@Qt_6 6.1.2
 _ZN21QNetworkAccessManager4postERK15QNetworkRequestRK10QByteArray@Qt_6 6.1.2
 _ZN21QNetworkAccessManager8finishedEP13QNetworkReply@Qt_6 6.1.2
 _ZN21QNetworkAccessManager8setCacheEP21QAbstractNetworkCache@Qt_6 6.1.2
 _ZN21QNetworkAccessManager8setProxyERK13QNetworkProxy@Qt_6 6.1.2
 _ZN21QNetworkAccessManager9encryptedEP13QNetworkReply@Qt_6 6.1.2
 _ZN21QNetworkAccessManager9sslErrorsEP13QNetworkReplyRK5QListI9QSslErrorE@Qt_6 6.1.2
 _ZN21QNetworkAccessManagerC1EP7QObject@Qt_6 6.1.2
 _ZN21QNetworkAccessManagerC2EP7QObject@Qt_6 6.1.2
 _ZN21QNetworkAccessManagerD0Ev@Qt_6 6.1.2
 _ZN21QNetworkAccessManagerD1Ev@Qt_6 6.1.2
 _ZN21QNetworkAccessManagerD2Ev@Qt_6 6.1.2
 _ZN21QNetworkCacheMetaData13setAttributesERK5QHashIN15QNetworkRequest9AttributeE8QVariantE@Qt_6 6.1.2
 _ZN21QNetworkCacheMetaData13setRawHeadersERK5QListISt4pairI10QByteArrayS2_EE@Qt_6 6.1.2
 _ZN21QNetworkCacheMetaData13setSaveToDiskEb@Qt_6 6.1.2
 _ZN21QNetworkCacheMetaData15setLastModifiedERK9QDateTime@Qt_6 6.1.2
 _ZN21QNetworkCacheMetaData17setExpirationDateERK9QDateTime@Qt_6 6.1.2
 _ZN21QNetworkCacheMetaData6setUrlERK4QUrl@Qt_6 6.1.2
 _ZN21QNetworkCacheMetaDataC1ERKS_@Qt_6 6.1.2
 _ZN21QNetworkCacheMetaDataC1Ev@Qt_6 6.1.2
 _ZN21QNetworkCacheMetaDataC2ERKS_@Qt_6 6.1.2
 _ZN21QNetworkCacheMetaDataC2Ev@Qt_6 6.1.2
 _ZN21QNetworkCacheMetaDataD1Ev@Qt_6 6.1.2
 _ZN21QNetworkCacheMetaDataD2Ev@Qt_6 6.1.2
 _ZN21QNetworkCacheMetaDataaSERKS_@Qt_6 6.1.2
 _ZN22QDnsMailExchangeRecordC1ERKS_@Qt_6 6.1.2
 _ZN22QDnsMailExchangeRecordC1Ev@Qt_6 6.1.2
 _ZN22QDnsMailExchangeRecordC2ERKS_@Qt_6 6.1.2
 _ZN22QDnsMailExchangeRecordC2Ev@Qt_6 6.1.2
 _ZN22QDnsMailExchangeRecordD1Ev@Qt_6 6.1.2
 _ZN22QDnsMailExchangeRecordD2Ev@Qt_6 6.1.2
 _ZN22QDnsMailExchangeRecordaSERKS_@Qt_6 6.1.2
 _ZN22QSslCertificatePrivate13isBlacklistedERK15QSslCertificate@Qt_6 6.1.2
 _ZN22QSslCertificatePrivate19subjectInfoToStringEN15QSslCertificate11SubjectInfoE@Qt_6 6.1.2
 _ZN24QSslCertificateExtensionC1ERKS_@Qt_6 6.1.2
 _ZN24QSslCertificateExtensionC1Ev@Qt_6 6.1.2
 _ZN24QSslCertificateExtensionC2ERKS_@Qt_6 6.1.2
 _ZN24QSslCertificateExtensionC2Ev@Qt_6 6.1.2
 _ZN24QSslCertificateExtensionD1Ev@Qt_6 6.1.2
 _ZN24QSslCertificateExtensionD2Ev@Qt_6 6.1.2
 _ZN24QSslCertificateExtensionaSERKS_@Qt_6 6.1.2
 _ZN27QSslDiffieHellmanParameters11fromEncodedEP9QIODeviceN4QSsl14EncodingFormatE@Qt_6 6.1.2
 _ZN27QSslDiffieHellmanParameters11fromEncodedERK10QByteArrayN4QSsl14EncodingFormatE@Qt_6 6.1.2
 _ZN27QSslDiffieHellmanParameters17defaultParametersEv@Qt_6 6.1.2
 _ZN27QSslDiffieHellmanParametersC1ERKS_@Qt_6 6.1.2
 _ZN27QSslDiffieHellmanParametersC1Ev@Qt_6 6.1.2
 _ZN27QSslDiffieHellmanParametersC2ERKS_@Qt_6 6.1.2
 _ZN27QSslDiffieHellmanParametersC2Ev@Qt_6 6.1.2
 _ZN27QSslDiffieHellmanParametersD1Ev@Qt_6 6.1.2
 _ZN27QSslDiffieHellmanParametersD2Ev@Qt_6 6.1.2
 _ZN27QSslDiffieHellmanParametersaSERKS_@Qt_6 6.1.2
 _ZN29QSslPreSharedKeyAuthenticator11setIdentityERK10QByteArray@Qt_6 6.1.2
 _ZN29QSslPreSharedKeyAuthenticator15setPreSharedKeyERK10QByteArray@Qt_6 6.1.2
 _ZN29QSslPreSharedKeyAuthenticatorC1ERKS_@Qt_6 6.1.2
 _ZN29QSslPreSharedKeyAuthenticatorC1Ev@Qt_6 6.1.2
 _ZN29QSslPreSharedKeyAuthenticatorC2ERKS_@Qt_6 6.1.2
 _ZN29QSslPreSharedKeyAuthenticatorC2Ev@Qt_6 6.1.2
 _ZN29QSslPreSharedKeyAuthenticatorD1Ev@Qt_6 6.1.2
 _ZN29QSslPreSharedKeyAuthenticatorD2Ev@Qt_6 6.1.2
 _ZN29QSslPreSharedKeyAuthenticatoraSERKS_@Qt_6 6.1.2
 _ZN5QDtls10setMtuHintEt@Qt_6 6.1.2
 _ZN5QDtls11doHandshakeEP10QUdpSocketRK10QByteArray@Qt_6 6.1.2
 _ZN5QDtls11pskRequiredEP29QSslPreSharedKeyAuthenticator@Qt_6 6.1.2
 _ZN5QDtls11qt_metacallEN11QMetaObject4CallEiPPv@Qt_6 6.1.2
 _ZN5QDtls11qt_metacastEPKc@Qt_6 6.1.2
 _ZN5QDtls13handleTimeoutEP10QUdpSocket@Qt_6 6.1.2
 _ZN5QDtls14abortHandshakeEP10QUdpSocket@Qt_6 6.1.2
 _ZN5QDtls14startHandshakeEP10QUdpSocketRK10QByteArray@Qt_6 6.1.2
 _ZN5QDtls15decryptDatagramEP10QUdpSocketRK10QByteArray@Qt_6 6.1.2
 _ZN5QDtls15resumeHandshakeEP10QUdpSocket@Qt_6 6.1.2
 _ZN5QDtls16handshakeTimeoutEv@Qt_6 6.1.2
 _ZN5QDtls16staticMetaObjectE@Qt_6 6.1.2
 _ZN5QDtls17continueHandshakeEP10QUdpSocketRK10QByteArray@Qt_6 6.1.2
 _ZN5QDtls20setDtlsConfigurationERK17QSslConfiguration@Qt_6 6.1.2
 _ZN5QDtls22writeDatagramEncryptedEP10QUdpSocketRK10QByteArray@Qt_6 6.1.2
 _ZN5QDtls23setPeerVerificationNameERK7QString@Qt_6 6.1.2
 _ZN5QDtls24ignoreVerificationErrorsERK5QListI9QSslErrorE@Qt_6 6.1.2
 _ZN5QDtls28setCookieGeneratorParametersERKN19QDtlsClientVerifier19GeneratorParametersE@Qt_6 6.1.2
 _ZN5QDtls7setPeerERK12QHostAddresstRK7QString@Qt_6 6.1.2
 _ZN5QDtls8shutdownEP10QUdpSocket@Qt_6 6.1.2
 _ZN5QDtlsC1EN10QSslSocket7SslModeEP7QObject@Qt_6 6.1.2
 _ZN5QDtlsC2EN10QSslSocket7SslModeEP7QObject@Qt_6 6.1.2
 _ZN5QDtlsD0Ev@Qt_6 6.1.2
 _ZN5QDtlsD1Ev@Qt_6 6.1.2
 _ZN5QDtlsD2Ev@Qt_6 6.1.2
 _ZN7QSslKey5clearEv@Qt_6 6.1.2
 _ZN7QSslKeyC1EOS_@Qt_6 6.1.2
 _ZN7QSslKeyC1EP9QIODeviceN4QSsl12KeyAlgorithmENS2_14EncodingFormatENS2_7KeyTypeERK10QByteArray@Qt_6 6.1.2
 _ZN7QSslKeyC1EPvN4QSsl7KeyTypeE@Qt_6 6.1.2
 _ZN7QSslKeyC1ERK10QByteArrayN4QSsl12KeyAlgorithmENS3_14EncodingFormatENS3_7KeyTypeES2_@Qt_6 6.1.2
 _ZN7QSslKeyC1ERKS_@Qt_6 6.1.2
 _ZN7QSslKeyC1Ev@Qt_6 6.1.2
 _ZN7QSslKeyC2EOS_@Qt_6 6.1.2
 _ZN7QSslKeyC2EP9QIODeviceN4QSsl12KeyAlgorithmENS2_14EncodingFormatENS2_7KeyTypeERK10QByteArray@Qt_6 6.1.2
 _ZN7QSslKeyC2EPvN4QSsl7KeyTypeE@Qt_6 6.1.2
 _ZN7QSslKeyC2ERK10QByteArrayN4QSsl12KeyAlgorithmENS3_14EncodingFormatENS3_7KeyTypeES2_@Qt_6 6.1.2
 _ZN7QSslKeyC2ERKS_@Qt_6 6.1.2
 _ZN7QSslKeyC2Ev@Qt_6 6.1.2
 _ZN7QSslKeyD1Ev@Qt_6 6.1.2
 _ZN7QSslKeyD2Ev@Qt_6 6.1.2
 _ZN7QSslKeyaSEOS_@Qt_6 6.1.2
 _ZN7QSslKeyaSERKS_@Qt_6 6.1.2
 _ZN9QHostInfo10lookupHostERK7QStringP7QObjectPKc@Qt_6 6.1.2
 _ZN9QHostInfo11setHostNameERK7QString@Qt_6 6.1.2
 _ZN9QHostInfo11setLookupIdEi@Qt_6 6.1.2
 _ZN9QHostInfo12setAddressesERK5QListI12QHostAddressE@Qt_6 6.1.2
 _ZN9QHostInfo13localHostNameEv@Qt_6 6.1.2
 _ZN9QHostInfo14lookupHostImplERK7QStringPK7QObjectPN9QtPrivate15QSlotObjectBaseEPKc@Qt_6 6.1.2
 _ZN9QHostInfo14setErrorStringERK7QString@Qt_6 6.1.2
 _ZN9QHostInfo15abortHostLookupEi@Qt_6 6.1.2
 _ZN9QHostInfo15localDomainNameEv@Qt_6 6.1.2
 _ZN9QHostInfo8fromNameERK7QString@Qt_6 6.1.2
 _ZN9QHostInfo8setErrorENS_13HostInfoErrorE@Qt_6 6.1.2
 _ZN9QHostInfoC1ERKS_@Qt_6 6.1.2
 _ZN9QHostInfoC1Ei@Qt_6 6.1.2
 _ZN9QHostInfoC2ERKS_@Qt_6 6.1.2
 _ZN9QHostInfoC2Ei@Qt_6 6.1.2
 _ZN9QHostInfoD1Ev@Qt_6 6.1.2
 _ZN9QHostInfoD2Ev@Qt_6 6.1.2
 _ZN9QHostInfoaSERKS_@Qt_6 6.1.2
 _ZN9QHttpPart12setRawHeaderERK10QByteArrayS2_@Qt_6 6.1.2
 _ZN9QHttpPart13setBodyDeviceEP9QIODevice@Qt_6 6.1.2
 _ZN9QHttpPart7setBodyERK10QByteArray@Qt_6 6.1.2
 _ZN9QHttpPart9setHeaderEN15QNetworkRequest12KnownHeadersERK8QVariant@Qt_6 6.1.2
 _ZN9QHttpPartC1ERKS_@Qt_6 6.1.2
 _ZN9QHttpPartC1Ev@Qt_6 6.1.2
 _ZN9QHttpPartC2ERKS_@Qt_6 6.1.2
 _ZN9QHttpPartC2Ev@Qt_6 6.1.2
 _ZN9QHttpPartD1Ev@Qt_6 6.1.2
 _ZN9QHttpPartD2Ev@Qt_6 6.1.2
 _ZN9QHttpPartaSERKS_@Qt_6 6.1.2
 _ZN9QSslError16staticMetaObjectE@Qt_6 6.1.2
 _ZN9QSslErrorC1ENS_8SslErrorE@Qt_6 6.1.2
 _ZN9QSslErrorC1ENS_8SslErrorERK15QSslCertificate@Qt_6 6.1.2
 _ZN9QSslErrorC1ERKS_@Qt_6 6.1.2
 _ZN9QSslErrorC1Ev@Qt_6 6.1.2
 _ZN9QSslErrorC2ENS_8SslErrorE@Qt_6 6.1.2
 _ZN9QSslErrorC2ENS_8SslErrorERK15QSslCertificate@Qt_6 6.1.2
 _ZN9QSslErrorC2ERKS_@Qt_6 6.1.2
 _ZN9QSslErrorC2Ev@Qt_6 6.1.2
 _ZN9QSslErrorD1Ev@Qt_6 6.1.2
 _ZN9QSslErrorD2Ev@Qt_6 6.1.2
 _ZN9QSslErroraSERKS_@Qt_6 6.1.2
 _ZNK10QDnsLookup10isFinishedEv@Qt_6 6.1.2
 _ZNK10QDnsLookup10metaObjectEv@Qt_6 6.1.2
 _ZNK10QDnsLookup10nameserverEv@Qt_6 6.1.2
 _ZNK10QDnsLookup11errorStringEv@Qt_6 6.1.2
 _ZNK10QDnsLookup11textRecordsEv@Qt_6 6.1.2
 _ZNK10QDnsLookup14pointerRecordsEv@Qt_6 6.1.2
 _ZNK10QDnsLookup14serviceRecordsEv@Qt_6 6.1.2
 _ZNK10QDnsLookup17nameServerRecordsEv@Qt_6 6.1.2
 _ZNK10QDnsLookup18hostAddressRecordsEv@Qt_6 6.1.2
 _ZNK10QDnsLookup19mailExchangeRecordsEv@Qt_6 6.1.2
 _ZNK10QDnsLookup20canonicalNameRecordsEv@Qt_6 6.1.2
 _ZNK10QDnsLookup4nameEv@Qt_6 6.1.2
 _ZNK10QDnsLookup4typeEv@Qt_6 6.1.2
 _ZNK10QDnsLookup5errorEv@Qt_6 6.1.2
 _ZNK10QSslCipher13supportedBitsEv@Qt_6 6.1.2
 _ZNK10QSslCipher14protocolStringEv@Qt_6 6.1.2
 _ZNK10QSslCipher16encryptionMethodEv@Qt_6 6.1.2
 _ZNK10QSslCipher17keyExchangeMethodEv@Qt_6 6.1.2
 _ZNK10QSslCipher20authenticationMethodEv@Qt_6 6.1.2
 _ZNK10QSslCipher4nameEv@Qt_6 6.1.2
 _ZNK10QSslCipher6isNullEv@Qt_6 6.1.2
 _ZNK10QSslCipher8protocolEv@Qt_6 6.1.2
 _ZNK10QSslCipher8usedBitsEv@Qt_6 6.1.2
 _ZNK10QSslCiphereqERKS_@Qt_6 6.1.2
 _ZNK10QSslSocket10metaObjectEv@Qt_6 6.1.2
 _ZNK10QSslSocket10privateKeyEv@Qt_6 6.1.2
 _ZNK10QSslSocket11canReadLineEv@Qt_6 6.1.2
 _ZNK10QSslSocket11isEncryptedEv@Qt_6 6.1.2
 _ZNK10QSslSocket12bytesToWriteEv@Qt_6 6.1.2
 _ZNK10QSslSocket13ocspResponsesEv@Qt_6 6.1.2
 _ZNK10QSslSocket13sessionCipherEv@Qt_6 6.1.2
 _ZNK10QSslSocket14bytesAvailableEv@Qt_6 6.1.2
 _ZNK10QSslSocket14peerVerifyModeEv@Qt_6 6.1.2
 _ZNK10QSslSocket14peerVerifyNameEv@Qt_6 6.1.2
 _ZNK10QSslSocket15peerCertificateEv@Qt_6 6.1.2
 _ZNK10QSslSocket15peerVerifyDepthEv@Qt_6 6.1.2
 _ZNK10QSslSocket15sessionProtocolEv@Qt_6 6.1.2
 _ZNK10QSslSocket16localCertificateEv@Qt_6 6.1.2
 _ZNK10QSslSocket16sslConfigurationEv@Qt_6 6.1.2
 _ZNK10QSslSocket18sslHandshakeErrorsEv@Qt_6 6.1.2
 _ZNK10QSslSocket20peerCertificateChainEv@Qt_6 6.1.2
 _ZNK10QSslSocket21encryptedBytesToWriteEv@Qt_6 6.1.2
 _ZNK10QSslSocket21localCertificateChainEv@Qt_6 6.1.2
 _ZNK10QSslSocket23encryptedBytesAvailableEv@Qt_6 6.1.2
 _ZNK10QSslSocket4modeEv@Qt_6 6.1.2
 _ZNK10QSslSocket5atEndEv@Qt_6 6.1.2
 _ZNK10QSslSocket8protocolEv@Qt_6 6.1.2
 _ZNK10QTcpServer10metaObjectEv@Qt_6 6.1.2
 _ZNK10QTcpServer10serverPortEv@Qt_6 6.1.2
 _ZNK10QTcpServer11errorStringEv@Qt_6 6.1.2
 _ZNK10QTcpServer11isListeningEv@Qt_6 6.1.2
 _ZNK10QTcpServer11serverErrorEv@Qt_6 6.1.2
 _ZNK10QTcpServer13serverAddressEv@Qt_6 6.1.2
 _ZNK10QTcpServer16socketDescriptorEv@Qt_6 6.1.2
 _ZNK10QTcpServer21hasPendingConnectionsEv@Qt_6 6.1.2
 _ZNK10QTcpServer21maxPendingConnectionsEv@Qt_6 6.1.2
 _ZNK10QTcpServer5proxyEv@Qt_6 6.1.2
 _ZNK10QTcpSocket10metaObjectEv@Qt_6 6.1.2
 _ZNK10QUdpSocket10metaObjectEv@Qt_6 6.1.2
 _ZNK10QUdpSocket18multicastInterfaceEv@Qt_6 6.1.2
 _ZNK10QUdpSocket19hasPendingDatagramsEv@Qt_6 6.1.2
 _ZNK10QUdpSocket19pendingDatagramSizeEv@Qt_6 6.1.2
 _ZNK11QHstsPolicy18includesSubDomainsEv@Qt_6 6.1.2
 _ZNK11QHstsPolicy4hostE6QFlagsIN4QUrl25ComponentFormattingOptionEE@Qt_6 6.1.2
 _ZNK11QHstsPolicy6expiryEv@Qt_6 6.1.2
 _ZNK11QHstsPolicy7isEqualERKS_@Qt_6 6.1.2
 _ZNK11QHstsPolicy9isExpiredEv@Qt_6 6.1.2
 (arch=linux-any)_ZNK11QSctpServer10metaObjectEv@Qt_6 6.1.2
 (arch=linux-any)_ZNK11QSctpServer19maximumChannelCountEv@Qt_6 6.1.2
 (arch=linux-any)_ZNK11QSctpSocket10metaObjectEv@Qt_6 6.1.2
 (arch=linux-any)_ZNK11QSctpSocket16isInDatagramModeEv@Qt_6 6.1.2
 (arch=linux-any)_ZNK11QSctpSocket19maximumChannelCountEv@Qt_6 6.1.2
 _ZNK12QHostAddress10isInSubnetERKS_i@Qt_6 6.1.2
 _ZNK12QHostAddress10isInSubnetERKSt4pairIS_iE@Qt_6 6.1.2
 _ZNK12QHostAddress10isLoopbackEv@Qt_6 6.1.2
 _ZNK12QHostAddress11isBroadcastEv@Qt_6 6.1.2
 _ZNK12QHostAddress11isLinkLocalEv@Qt_6 6.1.2
 _ZNK12QHostAddress11isMulticastEv@Qt_6 6.1.2
 _ZNK12QHostAddress11isSiteLocalEv@Qt_6 6.1.2
 _ZNK12QHostAddress13toIPv4AddressEPb@Qt_6 6.1.2
 _ZNK12QHostAddress13toIPv6AddressEv@Qt_6 6.1.2
 _ZNK12QHostAddress20isUniqueLocalUnicastEv@Qt_6 6.1.2
 _ZNK12QHostAddress6isNullEv@Qt_6 6.1.2
 _ZNK12QHostAddress7isEqualERKS_6QFlagsINS_18ConversionModeFlagEE@Qt_6 6.1.2
 _ZNK12QHostAddress7scopeIdEv@Qt_6 6.1.2
 _ZNK12QHostAddress8isGlobalEv@Qt_6 6.1.2
 _ZNK12QHostAddress8protocolEv@Qt_6 6.1.2
 _ZNK12QHostAddress8toStringEv@Qt_6 6.1.2
 _ZNK12QHostAddresseqENS_14SpecialAddressE@Qt_6 6.1.2
 _ZNK12QHostAddresseqERKS_@Qt_6 6.1.2
 _ZNK12QLocalServer10metaObjectEv@Qt_6 6.1.2
 _ZNK12QLocalServer10serverNameEv@Qt_6 6.1.2
 _ZNK12QLocalServer11errorStringEv@Qt_6 6.1.2
 _ZNK12QLocalServer11isListeningEv@Qt_6 6.1.2
 _ZNK12QLocalServer11serverErrorEv@Qt_6 6.1.2
 _ZNK12QLocalServer13socketOptionsEv@Qt_6 6.1.2
 _ZNK12QLocalServer14fullServerNameEv@Qt_6 6.1.2
 _ZNK12QLocalServer16socketDescriptorEv@Qt_6 6.1.2
 _ZNK12QLocalServer21hasPendingConnectionsEv@Qt_6 6.1.2
 _ZNK12QLocalServer21maxPendingConnectionsEv@Qt_6 6.1.2
 _ZNK12QLocalSocket10metaObjectEv@Qt_6 6.1.2
 _ZNK12QLocalSocket10serverNameEv@Qt_6 6.1.2
 _ZNK12QLocalSocket11canReadLineEv@Qt_6 6.1.2
 _ZNK12QLocalSocket12bytesToWriteEv@Qt_6 6.1.2
 _ZNK12QLocalSocket12isSequentialEv@Qt_6 6.1.2
 _ZNK12QLocalSocket13socketOptionsEv@Qt_6 6.2.0
 _ZNK12QLocalSocket14bytesAvailableEv@Qt_6 6.1.2
 _ZNK12QLocalSocket14fullServerNameEv@Qt_6 6.1.2
 _ZNK12QLocalSocket14readBufferSizeEv@Qt_6 6.1.2
 _ZNK12QLocalSocket16socketDescriptorEv@Qt_6 6.1.2
 _ZNK12QLocalSocket5errorEv@Qt_6 6.1.2
 _ZNK12QLocalSocket5stateEv@Qt_6 6.1.2
 _ZNK12QLocalSocket7isValidEv@Qt_6 6.1.2
 _ZNK13QNetworkProxy12capabilitiesEv@Qt_6 6.1.2
 _ZNK13QNetworkProxy12hasRawHeaderERK10QByteArray@Qt_6 6.1.2
 _ZNK13QNetworkProxy13rawHeaderListEv@Qt_6 6.1.2
 _ZNK13QNetworkProxy14isCachingProxyEv@Qt_6 6.1.2
 _ZNK13QNetworkProxy18isTransparentProxyEv@Qt_6 6.1.2
 _ZNK13QNetworkProxy4portEv@Qt_6 6.1.2
 _ZNK13QNetworkProxy4typeEv@Qt_6 6.1.2
 _ZNK13QNetworkProxy4userEv@Qt_6 6.1.2
 _ZNK13QNetworkProxy6headerEN15QNetworkRequest12KnownHeadersE@Qt_6 6.1.2
 _ZNK13QNetworkProxy8hostNameEv@Qt_6 6.1.2
 _ZNK13QNetworkProxy8passwordEv@Qt_6 6.1.2
 _ZNK13QNetworkProxy9rawHeaderERK10QByteArray@Qt_6 6.1.2
 _ZNK13QNetworkProxyeqERKS_@Qt_6 6.1.2
 _ZNK13QNetworkReply10isFinishedEv@Qt_6 6.1.2
 _ZNK13QNetworkReply10metaObjectEv@Qt_6 6.1.2
 _ZNK13QNetworkReply12hasRawHeaderERK10QByteArray@Qt_6 6.1.2
 _ZNK13QNetworkReply12isSequentialEv@Qt_6 6.1.2
 _ZNK13QNetworkReply13rawHeaderListEv@Qt_6 6.1.2
 _ZNK13QNetworkReply14rawHeaderPairsEv@Qt_6 6.1.2
 _ZNK13QNetworkReply14readBufferSizeEv@Qt_6 6.1.2
 _ZNK13QNetworkReply16sslConfigurationEv@Qt_6 6.1.2
 _ZNK13QNetworkReply30sslConfigurationImplementationER17QSslConfiguration@Qt_6 6.1.2
 _ZNK13QNetworkReply3urlEv@Qt_6 6.1.2
 _ZNK13QNetworkReply5errorEv@Qt_6 6.1.2
 _ZNK13QNetworkReply6headerEN15QNetworkRequest12KnownHeadersE@Qt_6 6.1.2
 _ZNK13QNetworkReply7managerEv@Qt_6 6.1.2
 _ZNK13QNetworkReply7requestEv@Qt_6 6.1.2
 _ZNK13QNetworkReply9attributeEN15QNetworkRequest9AttributeE@Qt_6 6.1.2
 _ZNK13QNetworkReply9isRunningEv@Qt_6 6.1.2
 _ZNK13QNetworkReply9operationEv@Qt_6 6.1.2
 _ZNK13QNetworkReply9rawHeaderERK10QByteArray@Qt_6 6.1.2
 _ZNK13QOcspResponse16revocationReasonEv@Qt_6 6.1.2
 _ZNK13QOcspResponse17certificateStatusEv@Qt_6 6.1.2
 _ZNK13QOcspResponse7isEqualERKS_@Qt_6 6.1.2
 _ZNK13QOcspResponse7subjectEv@Qt_6 6.1.2
 _ZNK13QOcspResponse9responderEv@Qt_6 6.1.2
 _ZNK14QAuthenticator4userEv@Qt_6 6.1.2
 _ZNK14QAuthenticator5realmEv@Qt_6 6.1.2
 _ZNK14QAuthenticator6isNullEv@Qt_6 6.1.2
 _ZNK14QAuthenticator6optionERK7QString@Qt_6 6.1.2
 _ZNK14QAuthenticator7optionsEv@Qt_6 6.1.2
 _ZNK14QAuthenticator8passwordEv@Qt_6 6.1.2
 _ZNK14QAuthenticatoreqERKS_@Qt_6 6.1.2
 _ZNK14QDnsTextRecord10timeToLiveEv@Qt_6 6.1.2
 _ZNK14QDnsTextRecord4nameEv@Qt_6 6.1.2
 _ZNK14QDnsTextRecord6valuesEv@Qt_6 6.1.2
 _ZNK14QHttpMultiPart10metaObjectEv@Qt_6 6.1.2
 _ZNK14QHttpMultiPart8boundaryEv@Qt_6 6.1.2
 _ZNK14QNetworkCookie10isHttpOnlyEv@Qt_6 6.1.2
 _ZNK14QNetworkCookie14expirationDateEv@Qt_6 6.1.2
 _ZNK14QNetworkCookie14sameSitePolicyEv@Qt_6 6.1.2
 _ZNK14QNetworkCookie15isSessionCookieEv@Qt_6 6.1.2
 _ZNK14QNetworkCookie17hasSameIdentifierERKS_@Qt_6 6.1.2
 _ZNK14QNetworkCookie4nameEv@Qt_6 6.1.2
 _ZNK14QNetworkCookie4pathEv@Qt_6 6.1.2
 _ZNK14QNetworkCookie5valueEv@Qt_6 6.1.2
 _ZNK14QNetworkCookie6domainEv@Qt_6 6.1.2
 _ZNK14QNetworkCookie8isSecureEv@Qt_6 6.1.2
 _ZNK14QNetworkCookie9toRawFormENS_7RawFormE@Qt_6 6.1.2
 _ZNK14QNetworkCookieeqERKS_@Qt_6 6.1.2
 _ZNK15QAbstractSocket10metaObjectEv@Qt_6 6.1.2
 _ZNK15QAbstractSocket10socketTypeEv@Qt_6 6.1.2
 _ZNK15QAbstractSocket11peerAddressEv@Qt_6 6.1.2
 _ZNK15QAbstractSocket11protocolTagEv@Qt_6 6.1.2
 _ZNK15QAbstractSocket12bytesToWriteEv@Qt_6 6.1.2
 _ZNK15QAbstractSocket12isSequentialEv@Qt_6 6.1.2
 _ZNK15QAbstractSocket12localAddressEv@Qt_6 6.1.2
 _ZNK15QAbstractSocket14bytesAvailableEv@Qt_6 6.1.2
 _ZNK15QAbstractSocket14readBufferSizeEv@Qt_6 6.1.2
 _ZNK15QAbstractSocket16socketDescriptorEv@Qt_6 6.1.2
 _ZNK15QAbstractSocket5errorEv@Qt_6 6.1.2
 _ZNK15QAbstractSocket5proxyEv@Qt_6 6.1.2
 _ZNK15QAbstractSocket5stateEv@Qt_6 6.1.2
 _ZNK15QAbstractSocket7isValidEv@Qt_6 6.1.2
 _ZNK15QAbstractSocket8peerNameEv@Qt_6 6.1.2
 _ZNK15QAbstractSocket8peerPortEv@Qt_6 6.1.2
 _ZNK15QAbstractSocket9localPortEv@Qt_6 6.1.2
 _ZNK15QAbstractSocket9pauseModeEv@Qt_6 6.1.2
 _ZNK15QNetworkRequest12hasRawHeaderERK10QByteArray@Qt_6 6.1.2
 _ZNK15QNetworkRequest13rawHeaderListEv@Qt_6 6.1.2
 _ZNK15QNetworkRequest14peerVerifyNameEv@Qt_6 6.1.2
 _ZNK15QNetworkRequest15transferTimeoutEv@Qt_6 6.1.2
 _ZNK15QNetworkRequest16sslConfigurationEv@Qt_6 6.1.2
 _ZNK15QNetworkRequest17originatingObjectEv@Qt_6 6.1.2
 _ZNK15QNetworkRequest18http2ConfigurationEv@Qt_6 6.1.2
 _ZNK15QNetworkRequest23maximumRedirectsAllowedEv@Qt_6 6.1.2
 _ZNK15QNetworkRequest32decompressedSafetyCheckThresholdEv@Qt_6 6.2.0
 _ZNK15QNetworkRequest3urlEv@Qt_6 6.1.2
 _ZNK15QNetworkRequest6headerENS_12KnownHeadersE@Qt_6 6.1.2
 _ZNK15QNetworkRequest8priorityEv@Qt_6 6.1.2
 _ZNK15QNetworkRequest9attributeENS_9AttributeERK8QVariant@Qt_6 6.1.2
 _ZNK15QNetworkRequest9rawHeaderERK10QByteArray@Qt_6 6.1.2
 _ZNK15QNetworkRequesteqERKS_@Qt_6 6.1.2
 _ZNK15QSslCertificate10expiryDateEv@Qt_6 6.1.2
 _ZNK15QSslCertificate10extensionsEv@Qt_6 6.1.2
 _ZNK15QSslCertificate10issuerInfoENS_11SubjectInfoE@Qt_6 6.1.2
 _ZNK15QSslCertificate10issuerInfoERK10QByteArray@Qt_6 6.1.2
 _ZNK15QSslCertificate11subjectInfoENS_11SubjectInfoE@Qt_6 6.1.2
 _ZNK15QSslCertificate11subjectInfoERK10QByteArray@Qt_6 6.1.2
 _ZNK15QSslCertificate12isSelfSignedEv@Qt_6 6.1.2
 _ZNK15QSslCertificate12serialNumberEv@Qt_6 6.1.2
 _ZNK15QSslCertificate13effectiveDateEv@Qt_6 6.1.2
 _ZNK15QSslCertificate13isBlacklistedEv@Qt_6 6.1.2
 _ZNK15QSslCertificate17issuerDisplayNameEv@Qt_6 6.1.2
 _ZNK15QSslCertificate18subjectDisplayNameEv@Qt_6 6.1.2
 _ZNK15QSslCertificate20issuerInfoAttributesEv@Qt_6 6.1.2
 _ZNK15QSslCertificate21subjectInfoAttributesEv@Qt_6 6.1.2
 _ZNK15QSslCertificate23subjectAlternativeNamesEv@Qt_6 6.1.2
 _ZNK15QSslCertificate5toDerEv@Qt_6 6.1.2
 _ZNK15QSslCertificate5toPemEv@Qt_6 6.1.2
 _ZNK15QSslCertificate6digestEN18QCryptographicHash9AlgorithmE@Qt_6 6.1.2
 _ZNK15QSslCertificate6handleEv@Qt_6 6.1.2
 _ZNK15QSslCertificate6isNullEv@Qt_6 6.1.2
 _ZNK15QSslCertificate6toTextEv@Qt_6 6.1.2
 _ZNK15QSslCertificate7versionEv@Qt_6 6.1.2
 _ZNK15QSslCertificate9publicKeyEv@Qt_6 6.1.2
 _ZNK15QSslCertificateeqERKS_@Qt_6 6.1.2
 _ZNK16QNetworkDatagram10senderPortEv@Qt_6 6.1.2
 _ZNK16QNetworkDatagram13senderAddressEv@Qt_6 6.1.2
 _ZNK16QNetworkDatagram14interfaceIndexEv@Qt_6 6.1.2
 _ZNK16QNetworkDatagram15destinationPortEv@Qt_6 6.1.2
 _ZNK16QNetworkDatagram16makeReply_helperERK10QByteArray@Qt_6 6.1.2
 _ZNK16QNetworkDatagram18destinationAddressEv@Qt_6 6.1.2
 _ZNK16QNetworkDatagram4dataEv@Qt_6 6.1.2
 _ZNK16QNetworkDatagram7isValidEv@Qt_6 6.1.2
 _ZNK16QNetworkDatagram8hopLimitEv@Qt_6 6.1.2
 _ZNK17QDnsServiceRecord10timeToLiveEv@Qt_6 6.1.2
 _ZNK17QDnsServiceRecord4nameEv@Qt_6 6.1.2
 _ZNK17QDnsServiceRecord4portEv@Qt_6 6.1.2
 _ZNK17QDnsServiceRecord6targetEv@Qt_6 6.1.2
 _ZNK17QDnsServiceRecord6weightEv@Qt_6 6.1.2
 _ZNK17QDnsServiceRecord8priorityEv@Qt_6 6.1.2
 _ZNK17QNetworkCookieJar10allCookiesEv@Qt_6 6.1.2
 _ZNK17QNetworkCookieJar10metaObjectEv@Qt_6 6.1.2
 _ZNK17QNetworkCookieJar13cookiesForUrlERK4QUrl@Qt_6 6.1.2
 _ZNK17QNetworkCookieJar14validateCookieERK14QNetworkCookieRK4QUrl@Qt_6 6.1.2
 _ZNK17QNetworkDiskCache10metaObjectEv@Qt_6 6.1.2
 _ZNK17QNetworkDiskCache12fileMetaDataERK7QString@Qt_6 6.1.2
 _ZNK17QNetworkDiskCache14cacheDirectoryEv@Qt_6 6.1.2
 _ZNK17QNetworkDiskCache16maximumCacheSizeEv@Qt_6 6.1.2
 _ZNK17QNetworkDiskCache9cacheSizeEv@Qt_6 6.1.2
 _ZNK17QNetworkInterface14addressEntriesEv@Qt_6 6.1.2
 _ZNK17QNetworkInterface15hardwareAddressEv@Qt_6 6.1.2
 _ZNK17QNetworkInterface17humanReadableNameEv@Qt_6 6.1.2
 _ZNK17QNetworkInterface23maximumTransmissionUnitEv@Qt_6 6.1.2
 _ZNK17QNetworkInterface4nameEv@Qt_6 6.1.2
 _ZNK17QNetworkInterface4typeEv@Qt_6 6.1.2
 _ZNK17QNetworkInterface5flagsEv@Qt_6 6.1.2
 _ZNK17QNetworkInterface5indexEv@Qt_6 6.1.2
 _ZNK17QNetworkInterface7isValidEv@Qt_6 6.1.2
 _ZNK17QSslConfiguration10privateKeyEv@Qt_6 6.1.2
 _ZNK17QSslConfiguration13sessionCipherEv@Qt_6 6.1.2
 _ZNK17QSslConfiguration13sessionTicketEv@Qt_6 6.1.2
 _ZNK17QSslConfiguration13testSslOptionEN4QSsl9SslOptionE@Qt_6 6.1.2
 _ZNK17QSslConfiguration14caCertificatesEv@Qt_6 6.1.2
 _ZNK17QSslConfiguration14ellipticCurvesEv@Qt_6 6.1.2
 _ZNK17QSslConfiguration14peerVerifyModeEv@Qt_6 6.1.2
 _ZNK17QSslConfiguration15peerCertificateEv@Qt_6 6.1.2
 _ZNK17QSslConfiguration15peerVerifyDepthEv@Qt_6 6.1.2
 _ZNK17QSslConfiguration15sessionProtocolEv@Qt_6 6.1.2
 _ZNK17QSslConfiguration16localCertificateEv@Qt_6 6.1.2
 _ZNK17QSslConfiguration18ephemeralServerKeyEv@Qt_6 6.1.2
 _ZNK17QSslConfiguration19ocspStaplingEnabledEv@Qt_6 6.1.2
 _ZNK17QSslConfiguration20allowedNextProtocolsEv@Qt_6 6.1.2
 _ZNK17QSslConfiguration20backendConfigurationEv@Qt_6 6.1.2
 _ZNK17QSslConfiguration20peerCertificateChainEv@Qt_6 6.1.2
 _ZNK17QSslConfiguration21localCertificateChainEv@Qt_6 6.1.2
 _ZNK17QSslConfiguration22nextNegotiatedProtocolEv@Qt_6 6.1.2
 _ZNK17QSslConfiguration23diffieHellmanParametersEv@Qt_6 6.1.2
 _ZNK17QSslConfiguration24preSharedKeyIdentityHintEv@Qt_6 6.1.2
 _ZNK17QSslConfiguration25missingCertificateIsFatalEv@Qt_6 6.1.2
 _ZNK17QSslConfiguration25sessionTicketLifeTimeHintEv@Qt_6 6.1.2
 _ZNK17QSslConfiguration29dtlsCookieVerificationEnabledEv@Qt_6 6.1.2
 _ZNK17QSslConfiguration29handshakeMustInterruptOnErrorEv@Qt_6 6.1.2
 _ZNK17QSslConfiguration29nextProtocolNegotiationStatusEv@Qt_6 6.1.2
 _ZNK17QSslConfiguration6isNullEv@Qt_6 6.1.2
 _ZNK17QSslConfiguration7ciphersEv@Qt_6 6.1.2
 _ZNK17QSslConfiguration8protocolEv@Qt_6 6.1.2
 _ZNK17QSslConfigurationeqERKS_@Qt_6 6.1.2
 _ZNK17QSslEllipticCurve15isTlsNamedCurveEv@Qt_6 6.1.2
 _ZNK17QSslEllipticCurve8longNameEv@Qt_6 6.1.2
 _ZNK17QSslEllipticCurve9shortNameEv@Qt_6 6.1.2
 _ZNK18QNetworkProxyQuery11protocolTagEv@Qt_6 6.1.2
 _ZNK18QNetworkProxyQuery12peerHostNameEv@Qt_6 6.1.2
 _ZNK18QNetworkProxyQuery3urlEv@Qt_6 6.1.2
 _ZNK18QNetworkProxyQuery8peerPortEv@Qt_6 6.1.2
 _ZNK18QNetworkProxyQuery9localPortEv@Qt_6 6.1.2
 _ZNK18QNetworkProxyQuery9queryTypeEv@Qt_6 6.1.2
 _ZNK18QNetworkProxyQueryeqERKS_@Qt_6 6.1.2
 _ZNK19QDtlsClientVerifier10metaObjectEv@Qt_6 6.1.2
 _ZNK19QDtlsClientVerifier13verifiedHelloEv@Qt_6 6.1.2
 _ZNK19QDtlsClientVerifier15dtlsErrorStringEv@Qt_6 6.1.2
 _ZNK19QDtlsClientVerifier25cookieGeneratorParametersEv@Qt_6 6.1.2
 _ZNK19QDtlsClientVerifier9dtlsErrorEv@Qt_6 6.1.2
 _ZNK19QHttp2Configuration12maxFrameSizeEv@Qt_6 6.1.2
 _ZNK19QHttp2Configuration17serverPushEnabledEv@Qt_6 6.1.2
 _ZNK19QHttp2Configuration23streamReceiveWindowSizeEv@Qt_6 6.1.2
 _ZNK19QHttp2Configuration24sessionReceiveWindowSizeEv@Qt_6 6.1.2
 _ZNK19QHttp2Configuration25huffmanCompressionEnabledEv@Qt_6 6.1.2
 _ZNK19QHttp2Configuration7isEqualERKS_@Qt_6 6.1.2
 _ZNK19QNetworkInformation10metaObjectEv@Qt_6 6.1.2
 _ZNK19QNetworkInformation11backendNameEv@Qt_6 6.1.2
 _ZNK19QNetworkInformation12reachabilityEv@Qt_6 6.1.2
 _ZNK19QNetworkInformation21isBehindCaptivePortalEv@Qt_6 6.2.0
 _ZNK19QNetworkInformation8supportsE6QFlagsINS_7FeatureEE@Qt_6 6.1.2
 _ZNK20QDnsDomainNameRecord10timeToLiveEv@Qt_6 6.1.2
 _ZNK20QDnsDomainNameRecord4nameEv@Qt_6 6.1.2
 _ZNK20QDnsDomainNameRecord5valueEv@Qt_6 6.1.2
 _ZNK20QNetworkAddressEntry11isPermanentEv@Qt_6 6.1.2
 _ZNK20QNetworkAddressEntry12prefixLengthEv@Qt_6 6.1.2
 _ZNK20QNetworkAddressEntry14dnsEligibilityEv@Qt_6 6.1.2
 _ZNK20QNetworkAddressEntry15isLifetimeKnownEv@Qt_6 6.1.2
 _ZNK20QNetworkAddressEntry16validityLifetimeEv@Qt_6 6.1.2
 _ZNK20QNetworkAddressEntry17preferredLifetimeEv@Qt_6 6.1.2
 _ZNK20QNetworkAddressEntry2ipEv@Qt_6 6.1.2
 _ZNK20QNetworkAddressEntry7netmaskEv@Qt_6 6.1.2
 _ZNK20QNetworkAddressEntry9broadcastEv@Qt_6 6.1.2
 _ZNK20QNetworkAddressEntryeqERKS_@Qt_6 6.1.2
 _ZNK21QAbstractNetworkCache10metaObjectEv@Qt_6 6.1.2
 _ZNK21QDnsHostAddressRecord10timeToLiveEv@Qt_6 6.1.2
 _ZNK21QDnsHostAddressRecord4nameEv@Qt_6 6.1.2
 _ZNK21QDnsHostAddressRecord5valueEv@Qt_6 6.1.2
 _ZNK21QNetworkAccessManager10metaObjectEv@Qt_6 6.1.2
 _ZNK21QNetworkAccessManager12proxyFactoryEv@Qt_6 6.1.2
 _ZNK21QNetworkAccessManager14redirectPolicyEv@Qt_6 6.1.2
 _ZNK21QNetworkAccessManager15transferTimeoutEv@Qt_6 6.1.2
 _ZNK21QNetworkAccessManager16supportedSchemesEv@Qt_6 6.1.2
 _ZNK21QNetworkAccessManager17autoDeleteRepliesEv@Qt_6 6.1.2
 _ZNK21QNetworkAccessManager28strictTransportSecurityHostsEv@Qt_6 6.1.2
 _ZNK21QNetworkAccessManager30supportedSchemesImplementationEv@Qt_6 6.1.2
 _ZNK21QNetworkAccessManager32isStrictTransportSecurityEnabledEv@Qt_6 6.1.2
 _ZNK21QNetworkAccessManager37isStrictTransportSecurityStoreEnabledEv@Qt_6 6.1.2
 _ZNK21QNetworkAccessManager5cacheEv@Qt_6 6.1.2
 _ZNK21QNetworkAccessManager5proxyEv@Qt_6 6.1.2
 _ZNK21QNetworkAccessManager9cookieJarEv@Qt_6 6.1.2
 _ZNK21QNetworkCacheMetaData10attributesEv@Qt_6 6.1.2
 _ZNK21QNetworkCacheMetaData10rawHeadersEv@Qt_6 6.1.2
 _ZNK21QNetworkCacheMetaData10saveToDiskEv@Qt_6 6.1.2
 _ZNK21QNetworkCacheMetaData12lastModifiedEv@Qt_6 6.1.2
 _ZNK21QNetworkCacheMetaData14expirationDateEv@Qt_6 6.1.2
 _ZNK21QNetworkCacheMetaData3urlEv@Qt_6 6.1.2
 _ZNK21QNetworkCacheMetaData7isValidEv@Qt_6 6.1.2
 _ZNK21QNetworkCacheMetaDataeqERKS_@Qt_6 6.1.2
 _ZNK22QDnsMailExchangeRecord10preferenceEv@Qt_6 6.1.2
 _ZNK22QDnsMailExchangeRecord10timeToLiveEv@Qt_6 6.1.2
 _ZNK22QDnsMailExchangeRecord4nameEv@Qt_6 6.1.2
 _ZNK22QDnsMailExchangeRecord8exchangeEv@Qt_6 6.1.2
 _ZNK24QSslCertificateExtension10isCriticalEv@Qt_6 6.1.2
 _ZNK24QSslCertificateExtension11isSupportedEv@Qt_6 6.1.2
 _ZNK24QSslCertificateExtension3oidEv@Qt_6 6.1.2
 _ZNK24QSslCertificateExtension4nameEv@Qt_6 6.1.2
 _ZNK24QSslCertificateExtension5valueEv@Qt_6 6.1.2
 _ZNK27QSslDiffieHellmanParameters11errorStringEv@Qt_6 6.1.2
 _ZNK27QSslDiffieHellmanParameters5errorEv@Qt_6 6.1.2
 _ZNK27QSslDiffieHellmanParameters7isEmptyEv@Qt_6 6.1.2
 _ZNK27QSslDiffieHellmanParameters7isEqualERKS_@Qt_6 6.1.2
 _ZNK27QSslDiffieHellmanParameters7isValidEv@Qt_6 6.1.2
 _ZNK29QSslPreSharedKeyAuthenticator12identityHintEv@Qt_6 6.1.2
 _ZNK29QSslPreSharedKeyAuthenticator12preSharedKeyEv@Qt_6 6.1.2
 _ZNK29QSslPreSharedKeyAuthenticator21maximumIdentityLengthEv@Qt_6 6.1.2
 _ZNK29QSslPreSharedKeyAuthenticator25maximumPreSharedKeyLengthEv@Qt_6 6.1.2
 _ZNK29QSslPreSharedKeyAuthenticator7isEqualERKS_@Qt_6 6.1.2
 _ZNK29QSslPreSharedKeyAuthenticator8identityEv@Qt_6 6.1.2
 _ZNK5QDtls10metaObjectEv@Qt_6 6.1.2
 _ZNK5QDtls11peerAddressEv@Qt_6 6.1.2
 _ZNK5QDtls13sessionCipherEv@Qt_6 6.1.2
 _ZNK5QDtls14handshakeStateEv@Qt_6 6.1.2
 _ZNK5QDtls15dtlsErrorStringEv@Qt_6 6.1.2
 _ZNK5QDtls15sessionProtocolEv@Qt_6 6.1.2
 _ZNK5QDtls17dtlsConfigurationEv@Qt_6 6.1.2
 _ZNK5QDtls20peerVerificationNameEv@Qt_6 6.1.2
 _ZNK5QDtls21isConnectionEncryptedEv@Qt_6 6.1.2
 _ZNK5QDtls22peerVerificationErrorsEv@Qt_6 6.1.2
 _ZNK5QDtls25cookieGeneratorParametersEv@Qt_6 6.1.2
 _ZNK5QDtls7mtuHintEv@Qt_6 6.1.2
 _ZNK5QDtls7sslModeEv@Qt_6 6.1.2
 _ZNK5QDtls8peerPortEv@Qt_6 6.1.2
 _ZNK5QDtls9dtlsErrorEv@Qt_6 6.1.2
 _ZNK7QSslKey4typeEv@Qt_6 6.1.2
 _ZNK7QSslKey5toDerERK10QByteArray@Qt_6 6.1.2
 _ZNK7QSslKey5toPemERK10QByteArray@Qt_6 6.1.2
 _ZNK7QSslKey6handleEv@Qt_6 6.1.2
 _ZNK7QSslKey6isNullEv@Qt_6 6.1.2
 _ZNK7QSslKey6lengthEv@Qt_6 6.1.2
 _ZNK7QSslKey9algorithmEv@Qt_6 6.1.2
 _ZNK7QSslKeyeqERKS_@Qt_6 6.1.2
 _ZNK9QHostInfo11errorStringEv@Qt_6 6.1.2
 _ZNK9QHostInfo5errorEv@Qt_6 6.1.2
 _ZNK9QHostInfo8hostNameEv@Qt_6 6.1.2
 _ZNK9QHostInfo8lookupIdEv@Qt_6 6.1.2
 _ZNK9QHostInfo9addressesEv@Qt_6 6.1.2
 _ZNK9QHttpParteqERKS_@Qt_6 6.1.2
 _ZNK9QSslError11certificateEv@Qt_6 6.1.2
 _ZNK9QSslError11errorStringEv@Qt_6 6.1.2
 _ZNK9QSslError5errorEv@Qt_6 6.1.2
 _ZNK9QSslErroreqERKS_@Qt_6 6.1.2
 (optional=templinst|arch=!ia64 !mips64el !ppc64el !riscv64 !sparc64)_ZNKSt8_Rb_treeIN4QSsl24AlternativeNameEntryTypeESt4pairIKS1_7QStringESt10_Select1stIS5_ESt4lessIS1_ESaIS5_EE11equal_rangeERS3_@Qt_6 6.1.2
 (optional=templinst|subst)_ZNSt11_Deque_baseIjSaIjEE17_M_initialize_mapE{size_t}@Qt_6 6.1.2
 (optional=templinst)_ZNSt11_Deque_baseIjSaIjEED1Ev@Qt_6 6.1.2
 (optional=templinst)_ZNSt11_Deque_baseIjSaIjEED2Ev@Qt_6 6.1.2
 (optional=templinst)_ZNSt5dequeIjSaIjEE16_M_push_back_auxIJRKjEEEvDpOT_@Qt_6 6.1.2
 (optional=templinst|subst)_ZNSt5dequeIjSaIjEE17_M_reallocate_mapE{size_t}b@Qt_6 6.1.2
 (optional=templinst)_ZNSt5dequeIjSaIjEE8_M_eraseESt15_Deque_iteratorIjRjPjE@Qt_6 6.1.2
 (optional=templinst)_ZNSt5dequeIjSaIjEE8_M_eraseESt15_Deque_iteratorIjRjPjES5_@Qt_6 6.1.2
 (optional=templinst)_ZNSt6vectorIN24QNetworkReplyImplPrivate21InternalNotificationsESaIS1_EE17_M_realloc_insertIJRKS1_EEEvN9__gnu_cxx17__normal_iteratorIPS1_S3_EEDpOT_@Qt_6 6.1.2
 (optional=templinst)_ZNSt6vectorIN24QNetworkReplyImplPrivate21InternalNotificationsESaIS1_EE17_M_realloc_insertIJS1_EEEvN9__gnu_cxx17__normal_iteratorIPS1_S3_EEDpOT_@Qt_6 6.1.2
 (optional=templinst|subst)_ZNSt6vectorIhSaIhEE17_M_default_appendE{size_t}@Qt_6 6.1.2
 (optional=templinst)_ZNSt6vectorIhSaIhEE17_M_realloc_insertIJRKhEEEvN9__gnu_cxx17__normal_iteratorIPhS1_EEDpOT_@Qt_6 6.1.2
 (optional=templinst)_ZNSt6vectorIhSaIhEE17_M_realloc_insertIJhEEEvN9__gnu_cxx17__normal_iteratorIPhS1_EEDpOT_@Qt_6 6.1.2
 (optional=templinst)_ZNSt6vectorIjSaIjEE17_M_realloc_insertIJRKjEEEvN9__gnu_cxx17__normal_iteratorIPjS1_EEDpOT_@Qt_6 6.1.2
 (optional=templinst)_ZNSt8_Rb_treeI10QByteArraySt4pairIKS0_8QVariantESt10_Select1stIS4_ESt4lessIS0_ESaIS4_EE16_M_insert_uniqueIS4_EES1_ISt17_Rb_tree_iteratorIS4_EbEOT_@Qt_6 6.1.2
 (optional=templinst)_ZNSt8_Rb_treeI10QByteArraySt4pairIKS0_S0_ESt10_Select1stIS3_ESt4lessIS0_ESaIS3_EE16_M_insert_uniqueIS3_EES1_ISt17_Rb_tree_iteratorIS3_EbEOT_@Qt_6 6.1.2
 (optional=templinst)_ZNSt8_Rb_treeI9QDateTimeSt4pairIKS0_7QStringESt10_Select1stIS4_ESt4lessIS0_ESaIS4_EE21_M_insert_equal_lowerIS4_EESt17_Rb_tree_iteratorIS4_EOT_@Qt_6 6.1.2
 (optional=templinst|arch=amd64 ppc64el riscv64 sh4 sparc64)_ZNSt8_Rb_treeI9QDateTimeSt4pairIKS0_7QStringESt10_Select1stIS4_ESt4lessIS0_ESaIS4_EE28_M_get_insert_hint_equal_posESt23_Rb_tree_const_iteratorIS4_ERS2_@Qt_6 6.1.2
 (optional=templinst)_ZSt14__copy_move_a1ILb1EPjjEN9__gnu_cxx11__enable_ifIXsrSt23__is_random_access_iterIT0_NSt15iterator_traitsIS4_E17iterator_categoryEE7__valueESt15_Deque_iteratorIT1_RSA_PSA_EE6__typeES4_S4_SD_@Qt_6 6.1.2
 (optional=templinst|arch=!amd64 !arm64 !sh4)_ZSt15__copy_move_ditILb1EjRjPjSt15_Deque_iteratorIjS0_S1_EET3_S2_IT0_T1_T2_ES8_S4_@Qt_6 6.2.1
 (optional=templinst)_ZSt23__copy_move_backward_a1ILb1EPjjEN9__gnu_cxx11__enable_ifIXsrSt23__is_random_access_iterIT0_NSt15iterator_traitsIS4_E17iterator_categoryEE7__valueESt15_Deque_iteratorIT1_RSA_PSA_EE6__typeES4_S4_SD_@Qt_6 6.1.2
 (optional=templinst|arch=!amd64 !arm64 !sh4)_ZSt24__copy_move_backward_ditILb1EjRjPjSt15_Deque_iteratorIjS0_S1_EET3_S2_IT0_T1_T2_ES8_S4_@Qt_6 6.2.1
 _ZTI10QDnsLookup@Qt_6 6.1.2
 _ZTI10QSslSocket@Qt_6 6.1.2
 _ZTI10QTcpServer@Qt_6 6.1.2
 _ZTI10QTcpSocket@Qt_6 6.1.2
 _ZTI10QUdpSocket@Qt_6 6.1.2
 (arch=linux-any)_ZTI11QSctpServer@Qt_6 6.1.2
 (arch=linux-any)_ZTI11QSctpSocket@Qt_6 6.1.2
 _ZTI12QLocalServer@Qt_6 6.1.2
 _ZTI12QLocalSocket@Qt_6 6.1.2
 _ZTI13QNetworkReply@Qt_6 6.1.2
 _ZTI14QHttpMultiPart@Qt_6 6.1.2
 _ZTI15QAbstractSocket@Qt_6 6.1.2
 _ZTI17QNetworkCookieJar@Qt_6 6.1.2
 _ZTI17QNetworkDiskCache@Qt_6 6.1.2
 _ZTI19QDtlsClientVerifier@Qt_6 6.1.2
 _ZTI19QNetworkInformation@Qt_6 6.1.2
 _ZTI20QNetworkProxyFactory@Qt_6 6.1.2
 _ZTI21QAbstractNetworkCache@Qt_6 6.1.2
 _ZTI21QNetworkAccessManager@Qt_6 6.1.2
 _ZTI5QDtls@Qt_6 6.1.2
 _ZTIZN9QMetaType17registerConverterI5QListI14QNetworkCookieE9QIterableI13QMetaSequenceEN9QtPrivate33QSequentialIterableConvertFunctorIS3_EEEEbT1_EUlPKvPvE_@Qt_6 6.1.2
 _ZTIZN9QMetaType17registerConverterI5QListI9QSslErrorE9QIterableI13QMetaSequenceEN9QtPrivate33QSequentialIterableConvertFunctorIS3_EEEEbT1_EUlPKvPvE_@Qt_6 6.1.2
 _ZTIZN9QMetaType17registerConverterI5QListISt4pairI10QByteArrayS3_EE9QIterableI13QMetaSequenceEN9QtPrivate33QSequentialIterableConvertFunctorIS5_EEEEbT1_EUlPKvPvE_@Qt_6 6.1.2
 _ZTIZN9QMetaType17registerConverterISt4pairI10QByteArrayS2_EN17QtMetaTypePrivate25QPairVariantInterfaceImplENS4_35QPairVariantInterfaceConvertFunctorIS3_EEEEbT1_EUlPKvPvE_@Qt_6 6.1.2
 _ZTIZN9QMetaType19registerMutableViewI5QListI14QNetworkCookieE9QIterableI13QMetaSequenceEN9QtPrivate37QSequentialIterableMutableViewFunctorIS3_EEEEbT1_EUlPvSB_E_@Qt_6 6.1.2
 _ZTIZN9QMetaType19registerMutableViewI5QListI9QSslErrorE9QIterableI13QMetaSequenceEN9QtPrivate37QSequentialIterableMutableViewFunctorIS3_EEEEbT1_EUlPvSB_E_@Qt_6 6.1.2
 _ZTIZN9QMetaType19registerMutableViewI5QListISt4pairI10QByteArrayS3_EE9QIterableI13QMetaSequenceEN9QtPrivate37QSequentialIterableMutableViewFunctorIS5_EEEEbT1_EUlPvSD_E_@Qt_6 6.1.2
 _ZTS10QDnsLookup@Qt_6 6.1.2
 _ZTS10QSslSocket@Qt_6 6.1.2
 _ZTS10QTcpServer@Qt_6 6.1.2
 _ZTS10QTcpSocket@Qt_6 6.1.2
 _ZTS10QUdpSocket@Qt_6 6.1.2
 (arch=linux-any)_ZTS11QSctpServer@Qt_6 6.1.2
 (arch=linux-any)_ZTS11QSctpSocket@Qt_6 6.1.2
 _ZTS12QLocalServer@Qt_6 6.1.2
 _ZTS12QLocalSocket@Qt_6 6.1.2
 _ZTS13QNetworkReply@Qt_6 6.1.2
 _ZTS14QHttpMultiPart@Qt_6 6.1.2
 _ZTS15QAbstractSocket@Qt_6 6.1.2
 _ZTS17QNetworkCookieJar@Qt_6 6.1.2
 _ZTS17QNetworkDiskCache@Qt_6 6.1.2
 _ZTS19QDtlsClientVerifier@Qt_6 6.1.2
 _ZTS19QNetworkInformation@Qt_6 6.1.2
 _ZTS20QNetworkProxyFactory@Qt_6 6.1.2
 _ZTS21QAbstractNetworkCache@Qt_6 6.1.2
 _ZTS21QNetworkAccessManager@Qt_6 6.1.2
 _ZTS5QDtls@Qt_6 6.1.2
 _ZTSZN9QMetaType17registerConverterI5QListI14QNetworkCookieE9QIterableI13QMetaSequenceEN9QtPrivate33QSequentialIterableConvertFunctorIS3_EEEEbT1_EUlPKvPvE_@Qt_6 6.1.2
 _ZTSZN9QMetaType17registerConverterI5QListI9QSslErrorE9QIterableI13QMetaSequenceEN9QtPrivate33QSequentialIterableConvertFunctorIS3_EEEEbT1_EUlPKvPvE_@Qt_6 6.1.2
 _ZTSZN9QMetaType17registerConverterI5QListISt4pairI10QByteArrayS3_EE9QIterableI13QMetaSequenceEN9QtPrivate33QSequentialIterableConvertFunctorIS5_EEEEbT1_EUlPKvPvE_@Qt_6 6.1.2
 _ZTSZN9QMetaType17registerConverterISt4pairI10QByteArrayS2_EN17QtMetaTypePrivate25QPairVariantInterfaceImplENS4_35QPairVariantInterfaceConvertFunctorIS3_EEEEbT1_EUlPKvPvE_@Qt_6 6.1.2
 _ZTSZN9QMetaType19registerMutableViewI5QListI14QNetworkCookieE9QIterableI13QMetaSequenceEN9QtPrivate37QSequentialIterableMutableViewFunctorIS3_EEEEbT1_EUlPvSB_E_@Qt_6 6.1.2
 _ZTSZN9QMetaType19registerMutableViewI5QListI9QSslErrorE9QIterableI13QMetaSequenceEN9QtPrivate37QSequentialIterableMutableViewFunctorIS3_EEEEbT1_EUlPvSB_E_@Qt_6 6.1.2
 _ZTSZN9QMetaType19registerMutableViewI5QListISt4pairI10QByteArrayS3_EE9QIterableI13QMetaSequenceEN9QtPrivate37QSequentialIterableMutableViewFunctorIS5_EEEEbT1_EUlPvSD_E_@Qt_6 6.1.2
 _ZTV10QDnsLookup@Qt_6 6.1.2
 _ZTV10QSslSocket@Qt_6 6.1.2
 _ZTV10QTcpServer@Qt_6 6.1.2
 _ZTV10QTcpSocket@Qt_6 6.1.2
 _ZTV10QUdpSocket@Qt_6 6.1.2
 (arch=linux-any)_ZTV11QSctpServer@Qt_6 6.1.2
 (arch=linux-any)_ZTV11QSctpSocket@Qt_6 6.1.2
 _ZTV12QLocalServer@Qt_6 6.1.2
 _ZTV12QLocalSocket@Qt_6 6.1.2
 _ZTV13QNetworkReply@Qt_6 6.1.2
 _ZTV14QHttpMultiPart@Qt_6 6.1.2
 _ZTV15QAbstractSocket@Qt_6 6.1.2
 _ZTV17QNetworkCookieJar@Qt_6 6.1.2
 _ZTV17QNetworkDiskCache@Qt_6 6.1.2
 _ZTV19QDtlsClientVerifier@Qt_6 6.1.2
 _ZTV19QNetworkInformation@Qt_6 6.1.2
 _ZTV20QNetworkProxyFactory@Qt_6 6.1.2
 _ZTV21QAbstractNetworkCache@Qt_6 6.1.2
 _ZTV21QNetworkAccessManager@Qt_6 6.1.2
 _ZTV5QDtls@Qt_6 6.1.2
 (optional=templinst)_ZZN9QMetaType21registerConverterImplI5QListI14QNetworkCookieE9QIterableI13QMetaSequenceEEEbSt8functionIFbPKvPvEES_S_E10unregister@Qt_6 6.2.0
 (optional=templinst)_ZZN9QMetaType21registerConverterImplI5QListI9QSslErrorE9QIterableI13QMetaSequenceEEEbSt8functionIFbPKvPvEES_S_E10unregister@Qt_6 6.2.0
 (optional=templinst)_ZZN9QMetaType21registerConverterImplI5QListISt4pairI10QByteArrayS3_EE9QIterableI13QMetaSequenceEEEbSt8functionIFbPKvPvEES_S_E10unregister@Qt_6 6.2.0
 (optional=templinst)_ZZN9QMetaType21registerConverterImplISt4pairI10QByteArrayS2_EN17QtMetaTypePrivate25QPairVariantInterfaceImplEEEbSt8functionIFbPKvPvEES_S_E10unregister@Qt_6 6.2.0
 (optional=templinst)_ZZN9QMetaType23registerMutableViewImplI5QListI14QNetworkCookieE9QIterableI13QMetaSequenceEEEbSt8functionIFbPvS8_EES_S_E10unregister@Qt_6 6.2.0
 (optional=templinst)_ZZN9QMetaType23registerMutableViewImplI5QListI9QSslErrorE9QIterableI13QMetaSequenceEEEbSt8functionIFbPvS8_EES_S_E10unregister@Qt_6 6.2.0
 (optional=templinst)_ZZN9QMetaType23registerMutableViewImplI5QListISt4pairI10QByteArrayS3_EE9QIterableI13QMetaSequenceEEEbSt8functionIFbPvSA_EES_S_E10unregister@Qt_6 6.2.0
 (optional=templinst)_ZZN9QtPrivate16QMetaTypeForTypeI10QByteArrayE10getCopyCtrEvENUlPKNS_18QMetaTypeInterfaceEPvPKvE_4_FUNES5_S6_S8_@Qt_6 6.1.2
 (optional=templinst)_ZZN9QtPrivate16QMetaTypeForTypeI10QByteArrayE10getMoveCtrEvENUlPKNS_18QMetaTypeInterfaceEPvS6_E_4_FUNES5_S6_S6_@Qt_6 6.1.2
 (optional=templinst)_ZZN9QtPrivate16QMetaTypeForTypeI10QByteArrayE13getDefaultCtrEvENUlPKNS_18QMetaTypeInterfaceEPvE_4_FUNES5_S6_@Qt_6 6.1.2
 (optional=templinst)_ZZN9QtPrivate16QMetaTypeForTypeI10QByteArrayE7getDtorEvENUlPKNS_18QMetaTypeInterfaceEPvE_4_FUNES5_S6_@Qt_6 6.1.2
 (optional=templinst)_ZZN9QtPrivate16QMetaTypeForTypeI4QUrlE10getCopyCtrEvENUlPKNS_18QMetaTypeInterfaceEPvPKvE_4_FUNES5_S6_S8_@Qt_6 6.1.2
 (optional=templinst)_ZZN9QtPrivate16QMetaTypeForTypeI4QUrlE10getMoveCtrEvENUlPKNS_18QMetaTypeInterfaceEPvS6_E_4_FUNES5_S6_S6_@Qt_6 6.1.2
 (optional=templinst)_ZZN9QtPrivate16QMetaTypeForTypeI4QUrlE13getDefaultCtrEvENUlPKNS_18QMetaTypeInterfaceEPvE_4_FUNES5_S6_@Qt_6 6.1.2
 (optional=templinst)_ZZN9QtPrivate16QMetaTypeForTypeI4QUrlE7getDtorEvENUlPKNS_18QMetaTypeInterfaceEPvE_4_FUNES5_S6_@Qt_6 6.1.2
 (optional=templinst)_ZZN9QtPrivate16QMetaTypeForTypeI5QListI7QStringEE10getCopyCtrEvENUlPKNS_18QMetaTypeInterfaceEPvPKvE_4_FUNES7_S8_SA_@Qt_6 6.1.2
 (optional=templinst)_ZZN9QtPrivate16QMetaTypeForTypeI5QListI7QStringEE10getMoveCtrEvENUlPKNS_18QMetaTypeInterfaceEPvS8_E_4_FUNES7_S8_S8_@Qt_6 6.1.2
 (optional=templinst)_ZZN9QtPrivate16QMetaTypeForTypeI5QListI7QStringEE13getDefaultCtrEvENUlPKNS_18QMetaTypeInterfaceEPvE_4_FUNES7_S8_@Qt_6 6.1.2
 (optional=templinst)_ZZN9QtPrivate16QMetaTypeForTypeI5QListI7QStringEE7getDtorEvENUlPKNS_18QMetaTypeInterfaceEPvE_4_FUNES7_S8_@Qt_6 6.1.2
 (optional=templinst)_ZZN9QtPrivate16QMetaTypeForTypeI7QStringE10getCopyCtrEvENUlPKNS_18QMetaTypeInterfaceEPvPKvE_4_FUNES5_S6_S8_@Qt_6 6.1.2
 (optional=templinst)_ZZN9QtPrivate16QMetaTypeForTypeI7QStringE10getMoveCtrEvENUlPKNS_18QMetaTypeInterfaceEPvS6_E_4_FUNES5_S6_S6_@Qt_6 6.1.2
 (optional=templinst)_ZZN9QtPrivate16QMetaTypeForTypeI7QStringE13getDefaultCtrEvENUlPKNS_18QMetaTypeInterfaceEPvE_4_FUNES5_S6_@Qt_6 6.1.2
 (optional=templinst)_ZZN9QtPrivate16QMetaTypeForTypeI7QStringE7getDtorEvENUlPKNS_18QMetaTypeInterfaceEPvE_4_FUNES5_S6_@Qt_6 6.1.2
 (optional=templinst)_ZZN9QtPrivate16QMetaTypeForTypeI8QVariantE10getCopyCtrEvENUlPKNS_18QMetaTypeInterfaceEPvPKvE_4_FUNES5_S6_S8_@Qt_6 6.1.2
 (optional=templinst)_ZZN9QtPrivate16QMetaTypeForTypeI8QVariantE10getMoveCtrEvENUlPKNS_18QMetaTypeInterfaceEPvS6_E_4_FUNES5_S6_S6_@Qt_6 6.1.2
 (optional=templinst)_ZZN9QtPrivate16QMetaTypeForTypeI8QVariantE13getDefaultCtrEvENUlPKNS_18QMetaTypeInterfaceEPvE_4_FUNES5_S6_@Qt_6 6.1.2
 (optional=templinst)_ZZN9QtPrivate16QMetaTypeForTypeI8QVariantE7getDtorEvENUlPKNS_18QMetaTypeInterfaceEPvE_4_FUNES5_S6_@Qt_6 6.1.2
 (optional=templinst)_ZZN9QtPrivate16QMetaTypeForTypeI9QDateTimeE10getCopyCtrEvENUlPKNS_18QMetaTypeInterfaceEPvPKvE_4_FUNES5_S6_S8_@Qt_6 6.1.2
 (optional=templinst)_ZZN9QtPrivate16QMetaTypeForTypeI9QDateTimeE10getMoveCtrEvENUlPKNS_18QMetaTypeInterfaceEPvS6_E_4_FUNES5_S6_S6_@Qt_6 6.1.2
 (optional=templinst)_ZZN9QtPrivate16QMetaTypeForTypeI9QDateTimeE13getDefaultCtrEvENUlPKNS_18QMetaTypeInterfaceEPvE_4_FUNES5_S6_@Qt_6 6.1.2
 (optional=templinst)_ZZN9QtPrivate16QMetaTypeForTypeI9QDateTimeE7getDtorEvENUlPKNS_18QMetaTypeInterfaceEPvE_4_FUNES5_S6_@Qt_6 6.1.2
 (optional=templinst)_ZZN9QtPrivate16QMetaTypeForTypeIP7QObjectE10getCopyCtrEvENUlPKNS_18QMetaTypeInterfaceEPvPKvE_4_FUNES6_S7_S9_@Qt_6 6.1.2
 (optional=templinst)_ZZN9QtPrivate16QMetaTypeForTypeIP7QObjectE10getMoveCtrEvENUlPKNS_18QMetaTypeInterfaceEPvS7_E_4_FUNES6_S7_S7_@Qt_6 6.1.2
 (optional=templinst)_ZZN9QtPrivate16QMetaTypeForTypeIP7QObjectE13getDefaultCtrEvENUlPKNS_18QMetaTypeInterfaceEPvE_4_FUNES6_S7_@Qt_6 6.1.2
 (optional=templinst)_ZZN9QtPrivate16QMetaTypeForTypeIbE10getCopyCtrEvENUlPKNS_18QMetaTypeInterfaceEPvPKvE_4_FUNES4_S5_S7_@Qt_6 6.1.2
 (optional=templinst)_ZZN9QtPrivate16QMetaTypeForTypeIbE10getMoveCtrEvENUlPKNS_18QMetaTypeInterfaceEPvS5_E_4_FUNES4_S5_S5_@Qt_6 6.1.2
 (optional=templinst)_ZZN9QtPrivate16QMetaTypeForTypeIbE13getDefaultCtrEvENUlPKNS_18QMetaTypeInterfaceEPvE_4_FUNES4_S5_@Qt_6 6.1.2
 (optional=templinst)_ZZN9QtPrivate16QMetaTypeForTypeIiE10getCopyCtrEvENUlPKNS_18QMetaTypeInterfaceEPvPKvE_4_FUNES4_S5_S7_@Qt_6 6.1.2
 (optional=templinst)_ZZN9QtPrivate16QMetaTypeForTypeIiE10getMoveCtrEvENUlPKNS_18QMetaTypeInterfaceEPvS5_E_4_FUNES4_S5_S5_@Qt_6 6.1.2
 (optional=templinst)_ZZN9QtPrivate16QMetaTypeForTypeIiE13getDefaultCtrEvENUlPKNS_18QMetaTypeInterfaceEPvE_4_FUNES4_S5_@Qt_6 6.1.2
 (optional=templinst)_ZZN9QtPrivate16QMetaTypeForTypeIjE10getCopyCtrEvENUlPKNS_18QMetaTypeInterfaceEPvPKvE_4_FUNES4_S5_S7_@Qt_6 6.1.2
 (optional=templinst)_ZZN9QtPrivate16QMetaTypeForTypeIjE10getMoveCtrEvENUlPKNS_18QMetaTypeInterfaceEPvS5_E_4_FUNES4_S5_S5_@Qt_6 6.1.2
 (optional=templinst)_ZZN9QtPrivate16QMetaTypeForTypeIjE13getDefaultCtrEvENUlPKNS_18QMetaTypeInterfaceEPvE_4_FUNES4_S5_@Qt_6 6.1.2
 (optional=templinst)_ZZN9QtPrivate16QMetaTypeForTypeIxE10getCopyCtrEvENUlPKNS_18QMetaTypeInterfaceEPvPKvE_4_FUNES4_S5_S7_@Qt_6 6.1.2
 (optional=templinst)_ZZN9QtPrivate16QMetaTypeForTypeIxE10getMoveCtrEvENUlPKNS_18QMetaTypeInterfaceEPvS5_E_4_FUNES4_S5_S5_@Qt_6 6.1.2
 (optional=templinst)_ZZN9QtPrivate16QMetaTypeForTypeIxE13getDefaultCtrEvENUlPKNS_18QMetaTypeInterfaceEPvE_4_FUNES4_S5_@Qt_6 6.1.2
 _Zls6QDebug17QSslEllipticCurve@Qt_6 6.1.2
 _Zls6QDebugN12QLocalSocket16LocalSocketErrorE@Qt_6 6.1.2
 _Zls6QDebugN12QLocalSocket16LocalSocketStateE@Qt_6 6.1.2
 _Zls6QDebugN15QAbstractSocket11SocketErrorE@Qt_6 6.1.2
 _Zls6QDebugN15QAbstractSocket11SocketStateE@Qt_6 6.1.2
 _Zls6QDebugN15QSslCertificate11SubjectInfoE@Qt_6 6.1.2
 _Zls6QDebugRK10QSslCipher@Qt_6 6.1.2
 _Zls6QDebugRK12QHostAddress@Qt_6 6.1.2
 _Zls6QDebugRK13QNetworkProxy@Qt_6 6.1.2
 _Zls6QDebugRK14QNetworkCookie@Qt_6 6.1.2
 _Zls6QDebugRK15QSslCertificate@Qt_6 6.1.2
 _Zls6QDebugRK17QNetworkInterface@Qt_6 6.1.2
 _Zls6QDebugRK18QNetworkProxyQuery@Qt_6 6.1.2
 _Zls6QDebugRK20QNetworkAddressEntry@Qt_6 6.2.0
 _Zls6QDebugRK27QSslDiffieHellmanParameters@Qt_6 6.1.2
 _Zls6QDebugRK7QSslKey@Qt_6 6.1.2
 _Zls6QDebugRK9QSslError@Qt_6 6.1.2
 _Zls6QDebugRKN9QSslError8SslErrorE@Qt_6 6.1.2
 _ZlsR11QDataStreamRK12QHostAddress@Qt_6 6.1.2
 _ZlsR11QDataStreamRK21QNetworkCacheMetaData@Qt_6 6.1.2
 _ZrsR11QDataStreamR12QHostAddress@Qt_6 6.1.2
 _ZrsR11QDataStreamR21QNetworkCacheMetaData@Qt_6 6.1.2
