# SymbolsHelper-Confirmed: 6.2.4 amd64
libQt6Test.so.6 libqt6test6 #MINVER#
| libqt6test6 #MINVER#, qt6-base-abi (= 6.2.4)
* Build-Depends-Package: qt6-base-dev
 Qt_6.0@Qt_6.0 6.1.2
 Qt_6.1@Qt_6.1 6.1.2
 Qt_6.2@Qt_6.2 6.2.0
 Qt_6@Qt_6 6.1.2
 (symver)Qt_6_PRIVATE_API 0 1
 _ZGVZN9QMetaType21registerConverterImplI5QListI21QPersistentModelIndexE9QIterableI13QMetaSequenceEEEbSt8functionIFbPKvPvEES_S_E10unregister@Qt_6 6.2.4
 _ZGVZN9QMetaType21registerConverterImplI5QListIiE9QIterableI13QMetaSequenceEEEbSt8functionIFbPKvPvEES_S_E10unregister@Qt_6 6.2.4
 _ZGVZN9QMetaType23registerMutableViewImplI5QListI21QPersistentModelIndexE9QIterableI13QMetaSequenceEEEbSt8functionIFbPvS8_EES_S_E10unregister@Qt_6 6.2.4
 _ZGVZN9QMetaType23registerMutableViewImplI5QListIiE9QIterableI13QMetaSequenceEEEbSt8functionIFbPvS7_EES_S_E10unregister@Qt_6 6.2.4
 _ZN12QTestPrivate14parseBlackListEv@Qt_6 6.1.2
 _ZN12QTestPrivate15checkBlackListsEPKcS1_@Qt_6 6.1.2
 _ZN12QTestPrivate17qtestMouseButtonsE@Qt_6 6.1.2
 _ZN12QTestPrivate22generateTestIdentifierEP15QTestCharBufferi@Qt_6 6.1.2
 _ZN13QMetaSequence12MetaSequenceI5QListI21QPersistentModelIndexEE5valueE@Qt_6 6.2.4
 _ZN13QMetaSequence12MetaSequenceI5QListIiEE5valueE@Qt_6 6.2.4
 _ZN14QTestEventLoop11qt_metacallEN11QMetaObject4CallEiPPv@Qt_6 6.1.2
 _ZN14QTestEventLoop11qt_metacastEPKc@Qt_6 6.1.2
 _ZN14QTestEventLoop16staticMetaObjectE@Qt_6 6.1.2
 _ZN24QAbstractItemModelTester11qt_metacallEN11QMetaObject4CallEiPPv@Qt_6 6.1.2
 _ZN24QAbstractItemModelTester11qt_metacastEPKc@Qt_6 6.1.2
 _ZN24QAbstractItemModelTester16staticMetaObjectE@Qt_6 6.1.2
 _ZN24QAbstractItemModelTester6verifyEbPKcS1_S1_i@Qt_6 6.1.2
 _ZN24QAbstractItemModelTesterC1EP18QAbstractItemModelNS_20FailureReportingModeEP7QObject@Qt_6 6.1.2
 _ZN24QAbstractItemModelTesterC1EP18QAbstractItemModelP7QObject@Qt_6 6.1.2
 _ZN24QAbstractItemModelTesterC2EP18QAbstractItemModelNS_20FailureReportingModeEP7QObject@Qt_6 6.1.2
 _ZN24QAbstractItemModelTesterC2EP18QAbstractItemModelP7QObject@Qt_6 6.1.2
 _ZN5QTest10asciiToKeyEc@Qt_6 6.1.2
 _ZN5QTest10keyToAsciiEN2Qt3KeyE@Qt_6 6.1.2
 _ZN5QTest10testObjectEv@Qt_6 6.1.2
 _ZN5QTest11qExpectFailEPKcS1_NS_12TestFailModeES1_i@Qt_6 6.1.2
 _ZN5QTest11qGlobalDataEPKci@Qt_6 6.1.2
 (subst)_ZN5QTest12formatStringEPKcS1_{size_t}z@Qt_6 6.1.2
 _ZN5QTest12qElementDataEPKci@Qt_6 6.1.2
 _ZN5QTest13ignoreMessageE9QtMsgTypePKc@Qt_6 6.1.2
 _ZN5QTest13ignoreMessageE9QtMsgTypeRK18QRegularExpression@Qt_6 6.1.2
 _ZN5QTest13qFindTestDataEPKcS1_iS1_S1_@Qt_6 6.1.2
 _ZN5QTest13qFindTestDataERK7QStringPKciS4_S4_@Qt_6 6.1.2
 _ZN5QTest13testFunctionsE@Qt_6 6.1.2
 _ZN5QTest14compare_helperEbPKcPcS2_S1_S1_S1_i@Qt_6 6.1.2
 _ZN5QTest14currentAppNameEv@Qt_6 6.1.2
 _ZN5QTest14currentDataTagEv@Qt_6 6.1.2
 _ZN5QTest15defaultKeyDelayEv@Qt_6 6.1.2
 _ZN5QTest15toPrettyCStringEPKci@Qt_6 6.1.2
 _ZN5QTest15toPrettyUnicodeE11QStringView@Qt_6 6.1.2
 _ZN5QTest16qExtractTestDataERK7QString@Qt_6 6.1.2
 _ZN5QTest16qtest_qParseArgsEiPKPKcb@Qt_6 6.1.2
 _ZN5QTest16qtest_qParseArgsEiPPcb@Qt_6 6.1.2
 _ZN5QTest17addColumnInternalEiPKc@Qt_6 6.1.2
 _ZN5QTest17currentTestFailedEv@Qt_6 6.1.2
 _ZN5QTest17defaultMouseDelayEv@Qt_6 6.1.2
 _ZN5QTest17setMainSourcePathEPKcS1_@Qt_6 6.1.2
 _ZN5QTest18lastMouseTimestampE@Qt_6 6.1.2
 _ZN5QTest18setBenchmarkResultEdNS_16QBenchmarkMetricE@Qt_6 6.1.2
 _ZN5QTest19currentTestFunctionEv@Qt_6 6.1.2
 _ZN5QTest19toHexRepresentationEPKci@Qt_6 6.1.2
 _ZN5QTest21compare_string_helperEPKcS1_S1_S1_S1_i@Qt_6 6.1.2
 _ZN5QTest23endBenchmarkMeasurementEv@Qt_6 6.1.2
 _ZN5QTest23printAvailableFunctionsE@Qt_6 6.1.2
 _ZN5QTest25beginBenchmarkMeasurementEv@Qt_6 6.1.2
 _ZN5QTest29QBenchmarkIterationController4nextEv@Qt_6 6.1.2
 _ZN5QTest29QBenchmarkIterationController6isDoneEv@Qt_6 6.1.2
 _ZN5QTest29QBenchmarkIterationControllerC1ENS0_7RunModeE@Qt_6 6.1.2
 _ZN5QTest29QBenchmarkIterationControllerC1Ev@Qt_6 6.1.2
 _ZN5QTest29QBenchmarkIterationControllerC2ENS0_7RunModeE@Qt_6 6.1.2
 _ZN5QTest29QBenchmarkIterationControllerC2Ev@Qt_6 6.1.2
 _ZN5QTest29QBenchmarkIterationControllerD1Ev@Qt_6 6.1.2
 _ZN5QTest29QBenchmarkIterationControllerD2Ev@Qt_6 6.1.2
 _ZN5QTest4qRunEv@Qt_6 6.1.2
 _ZN5QTest5qDataEPKci@Qt_6 6.1.2
 _ZN5QTest5qExecEP7QObjectRK5QListI7QStringE@Qt_6 6.1.2
 _ZN5QTest5qExecEP7QObjectiPPc@Qt_6 6.1.2
 _ZN5QTest5qFailEPKcS1_i@Qt_6 6.1.2
 _ZN5QTest5qInitEP7QObjectiPPc@Qt_6 6.1.2
 _ZN5QTest5qSkipEPKcS1_i@Qt_6 6.1.2
 _ZN5QTest5qWarnEPKcS1_i@Qt_6 6.1.2
 _ZN5QTest6addRowEPKcz@Qt_6 6.1.2
 _ZN5QTest6newRowEPKc@Qt_6 6.1.2
 _ZN5QTest7qVerifyEbPKcS1_S1_i@Qt_6 6.1.2
 _ZN5QTest8qCleanupEv@Qt_6 6.1.2
 _ZN5QTest8qCompareE11QStringViewRK13QLatin1StringPKcS5_S5_i@Qt_6 6.1.2
 _ZN5QTest8qCompareE11QStringViewS0_PKcS2_S2_i@Qt_6 6.1.2
 _ZN5QTest8qCompareERK13QLatin1String11QStringViewPKcS5_S5_i@Qt_6 6.1.2
 _ZN5QTest8qCompareERK8qfloat16S2_PKcS4_S4_i@Qt_6 6.1.2
 _ZN5QTest8qCompareERKdS1_PKcS3_S3_i@Qt_6 6.1.2
 _ZN5QTest8qCompareERKfS1_PKcS3_S3_i@Qt_6 6.1.2
 _ZN5QTest8qCompareEiiPKcS1_S1_i@Qt_6 6.1.2
 _ZN5QTest8qCompareEjjPKcS1_S1_i@Qt_6 6.1.2
 (arch-bits=64)_ZN5QTest8qCompareExxPKcS1_S1_i@Qt_6 6.1.2
 _ZN5QTest8testTagsE@Qt_6 6.1.2
 _ZN5QTest8toStringEPKc@Qt_6 6.1.2
 _ZN5QTest8toStringEPKv@Qt_6 6.1.2
 _ZN5QTest8toStringEPVK7QObject@Qt_6 6.2.0
 _ZN5QTest8toStringEPVKv@Qt_6 6.1.2
 (optional=templinst)_ZN5QTest8toStringI8qfloat16EEPcRKT_@Qt_6 6.1.2
 (optional=templinst)_ZN5QTest8toStringIaEEPcRKT_@Qt_6 6.1.2
 (optional=templinst)_ZN5QTest8toStringIbEEPcRKT_@Qt_6 6.1.2
 (optional=templinst)_ZN5QTest8toStringIcEEPcRKT_@Qt_6 6.1.2
 (optional=templinst)_ZN5QTest8toStringIdEEPcRKT_@Qt_6 6.1.2
 (optional=templinst)_ZN5QTest8toStringIfEEPcRKT_@Qt_6 6.1.2
 (optional=templinst)_ZN5QTest8toStringIhEEPcRKT_@Qt_6 6.1.2
 (optional=templinst)_ZN5QTest8toStringIiEEPcRKT_@Qt_6 6.1.2
 (optional=templinst)_ZN5QTest8toStringIjEEPcRKT_@Qt_6 6.1.2
 (optional=templinst)_ZN5QTest8toStringIlEEPcRKT_@Qt_6 6.1.2
 (optional=templinst)_ZN5QTest8toStringImEEPcRKT_@Qt_6 6.1.2
 (optional=templinst)_ZN5QTest8toStringIsEEPcRKT_@Qt_6 6.1.2
 (optional=templinst)_ZN5QTest8toStringItEEPcRKT_@Qt_6 6.1.2
 (optional=templinst)_ZN5QTest8toStringIxEEPcRKT_@Qt_6 6.1.2
 (optional=templinst)_ZN5QTest8toStringIyEEPcRKT_@Qt_6 6.1.2
 _ZN9QTestData6appendEiPKv@Qt_6 6.1.2
 _ZN9QTestDataD1Ev@Qt_6 6.1.2
 _ZN9QTestDataD2Ev@Qt_6 6.1.2
 _ZNK14QTestEventLoop10metaObjectEv@Qt_6 6.1.2
 _ZNK24QAbstractItemModelTester10metaObjectEv@Qt_6 6.1.2
 _ZNK24QAbstractItemModelTester20failureReportingModeEv@Qt_6 6.1.2
 _ZNK24QAbstractItemModelTester5modelEv@Qt_6 6.1.2
 (optional=templinst)_ZNK7QString3argIJRKS_S_EEENSt9enable_ifIXaagesZT_Li2EsrSt7is_sameIN9QtPrivate8BoolListIJXspsrNS_33is_convertible_to_view_or_qstringIT_EE5valueELb1EEEENS6_IJLb1EXspsrS9_5valueEEEEE5valueES_E4typeEDpOS8_@Qt_6 6.2.4
 _ZNK9QTestData4dataEi@Qt_6 6.1.2
 _ZNK9QTestData6parentEv@Qt_6 6.1.2
 _ZNK9QTestData7dataTagEv@Qt_6 6.1.2
 _ZNK9QTestData9dataCountEv@Qt_6 6.1.2
 (optional=templinst)_ZNSt14_Function_base13_Base_managerIZN9QMetaType17registerConverterI5QListI21QPersistentModelIndexE9QIterableI13QMetaSequenceEN9QtPrivate33QSequentialIterableConvertFunctorIS5_EEEEbT1_EUlPKvPvE_E10_M_managerERSt9_Any_dataRKSI_St18_Manager_operation@Qt_6 6.2.4
 (optional=templinst)_ZNSt14_Function_base13_Base_managerIZN9QMetaType17registerConverterI5QListIiE9QIterableI13QMetaSequenceEN9QtPrivate33QSequentialIterableConvertFunctorIS4_EEEEbT1_EUlPKvPvE_E10_M_managerERSt9_Any_dataRKSH_St18_Manager_operation@Qt_6 6.2.4
 (optional=templinst)_ZNSt14_Function_base13_Base_managerIZN9QMetaType19registerMutableViewI5QListI21QPersistentModelIndexE9QIterableI13QMetaSequenceEN9QtPrivate37QSequentialIterableMutableViewFunctorIS5_EEEEbT1_EUlPvSD_E_E10_M_managerERSt9_Any_dataRKSG_St18_Manager_operation@Qt_6 6.2.4
 (optional=templinst)_ZNSt14_Function_base13_Base_managerIZN9QMetaType19registerMutableViewI5QListIiE9QIterableI13QMetaSequenceEN9QtPrivate37QSequentialIterableMutableViewFunctorIS4_EEEEbT1_EUlPvSC_E_E10_M_managerERSt9_Any_dataRKSF_St18_Manager_operation@Qt_6 6.2.4
 (optional=templinst)_ZNSt17_Function_handlerIFbPKvPvEZN9QMetaType17registerConverterI5QListI21QPersistentModelIndexE9QIterableI13QMetaSequenceEN9QtPrivate33QSequentialIterableConvertFunctorIS8_EEEEbT1_EUlS1_S2_E_E9_M_invokeERKSt9_Any_dataOS1_OS2_@Qt_6 6.2.4
 (optional=templinst)_ZNSt17_Function_handlerIFbPKvPvEZN9QMetaType17registerConverterI5QListIiE9QIterableI13QMetaSequenceEN9QtPrivate33QSequentialIterableConvertFunctorIS7_EEEEbT1_EUlS1_S2_E_E9_M_invokeERKSt9_Any_dataOS1_OS2_@Qt_6 6.2.4
 (optional=templinst)_ZNSt17_Function_handlerIFbPvS0_EZN9QMetaType19registerMutableViewI5QListI21QPersistentModelIndexE9QIterableI13QMetaSequenceEN9QtPrivate37QSequentialIterableMutableViewFunctorIS6_EEEEbT1_EUlS0_S0_E_E9_M_invokeERKSt9_Any_dataOS0_SJ_@Qt_6 6.2.4
 (optional=templinst)_ZNSt17_Function_handlerIFbPvS0_EZN9QMetaType19registerMutableViewI5QListIiE9QIterableI13QMetaSequenceEN9QtPrivate37QSequentialIterableMutableViewFunctorIS5_EEEEbT1_EUlS0_S0_E_E9_M_invokeERKSt9_Any_dataOS0_SI_@Qt_6 6.2.4
 (optional=templinst)_ZNSt6vectorI11QMetaMethodSaIS0_EE17_M_realloc_insertIJRKS0_EEEvN9__gnu_cxx17__normal_iteratorIPS0_S2_EEDpOT_@Qt_6 6.1.2
 (optional=templinst)_ZNSt6vectorIP9QTestDataSaIS1_EE17_M_realloc_insertIJRKS1_EEEvN9__gnu_cxx17__normal_iteratorIPS1_S3_EEDpOT_@Qt_6 6.1.2
 (optional=templinst)_ZNSt8_Rb_treeI10QByteArrayS0_St9_IdentityIS0_ESt4lessIS0_ESaIS0_EE16_M_insert_uniqueIRKS0_EESt4pairISt17_Rb_tree_iteratorIS0_EbEOT_@Qt_6 6.1.2
 (optional=templinst)_ZNSt8_Rb_treeI10QByteArrayS0_St9_IdentityIS0_ESt4lessIS0_ESaIS0_EE4findERKS0_@Qt_6 6.1.2
 _ZTI14QTestEventLoop@Qt_6 6.1.2
 _ZTI24QAbstractItemModelTester@Qt_6 6.1.2
 _ZTIZN9QMetaType17registerConverterI5QListI21QPersistentModelIndexE9QIterableI13QMetaSequenceEN9QtPrivate33QSequentialIterableConvertFunctorIS3_EEEEbT1_EUlPKvPvE_@Qt_6 6.2.4
 _ZTIZN9QMetaType17registerConverterI5QListIiE9QIterableI13QMetaSequenceEN9QtPrivate33QSequentialIterableConvertFunctorIS2_EEEEbT1_EUlPKvPvE_@Qt_6 6.2.4
 _ZTIZN9QMetaType19registerMutableViewI5QListI21QPersistentModelIndexE9QIterableI13QMetaSequenceEN9QtPrivate37QSequentialIterableMutableViewFunctorIS3_EEEEbT1_EUlPvSB_E_@Qt_6 6.2.4
 _ZTIZN9QMetaType19registerMutableViewI5QListIiE9QIterableI13QMetaSequenceEN9QtPrivate37QSequentialIterableMutableViewFunctorIS2_EEEEbT1_EUlPvSA_E_@Qt_6 6.2.4
 _ZTS14QTestEventLoop@Qt_6 6.1.2
 _ZTS24QAbstractItemModelTester@Qt_6 6.1.2
 _ZTSZN9QMetaType17registerConverterI5QListI21QPersistentModelIndexE9QIterableI13QMetaSequenceEN9QtPrivate33QSequentialIterableConvertFunctorIS3_EEEEbT1_EUlPKvPvE_@Qt_6 6.2.4
 _ZTSZN9QMetaType17registerConverterI5QListIiE9QIterableI13QMetaSequenceEN9QtPrivate33QSequentialIterableConvertFunctorIS2_EEEEbT1_EUlPKvPvE_@Qt_6 6.2.4
 _ZTSZN9QMetaType19registerMutableViewI5QListI21QPersistentModelIndexE9QIterableI13QMetaSequenceEN9QtPrivate37QSequentialIterableMutableViewFunctorIS3_EEEEbT1_EUlPvSB_E_@Qt_6 6.2.4
 _ZTSZN9QMetaType19registerMutableViewI5QListIiE9QIterableI13QMetaSequenceEN9QtPrivate37QSequentialIterableMutableViewFunctorIS2_EEEEbT1_EUlPvSA_E_@Qt_6 6.2.4
 _ZTV14QTestEventLoop@Qt_6 6.1.2
 _ZTV24QAbstractItemModelTester@Qt_6 6.1.2
 (optional=templinst)_ZZN9QMetaType21registerConverterImplI5QListI21QPersistentModelIndexE9QIterableI13QMetaSequenceEEEbSt8functionIFbPKvPvEES_S_E10unregister@Qt_6 6.2.4
 (optional=templinst)_ZZN9QMetaType21registerConverterImplI5QListIiE9QIterableI13QMetaSequenceEEEbSt8functionIFbPKvPvEES_S_E10unregister@Qt_6 6.2.4
 (optional=templinst)_ZZN9QMetaType23registerMutableViewImplI5QListI21QPersistentModelIndexE9QIterableI13QMetaSequenceEEEbSt8functionIFbPvS8_EES_S_E10unregister@Qt_6 6.2.4
 (optional=templinst)_ZZN9QMetaType23registerMutableViewImplI5QListIiE9QIterableI13QMetaSequenceEEEbSt8functionIFbPvS7_EES_S_E10unregister@Qt_6 6.2.4
 (optional=templinst)_ZZN9QtPrivate16QMetaTypeForTypeI21QPersistentModelIndexE10getCopyCtrEvENUlPKNS_18QMetaTypeInterfaceEPvPKvE_4_FUNES5_S6_S8_@Qt_6 6.2.4
 (optional=templinst)_ZZN9QtPrivate16QMetaTypeForTypeI21QPersistentModelIndexE10getMoveCtrEvENUlPKNS_18QMetaTypeInterfaceEPvS6_E_4_FUNES5_S6_S6_@Qt_6 6.2.4
 (optional=templinst)_ZZN9QtPrivate16QMetaTypeForTypeI21QPersistentModelIndexE13getDefaultCtrEvENUlPKNS_18QMetaTypeInterfaceEPvE_4_FUNES5_S6_@Qt_6 6.2.4
 (optional=templinst)_ZZN9QtPrivate16QMetaTypeForTypeI21QPersistentModelIndexE7getDtorEvENUlPKNS_18QMetaTypeInterfaceEPvE_4_FUNES5_S6_@Qt_6 6.2.4
 (optional=templinst)_ZZN9QtPrivate16QMetaTypeForTypeI5QSizeE10getCopyCtrEvENUlPKNS_18QMetaTypeInterfaceEPvPKvE_4_FUNES5_S6_S8_@Qt_6 6.1.2
 (optional=templinst)_ZZN9QtPrivate16QMetaTypeForTypeI5QSizeE10getMoveCtrEvENUlPKNS_18QMetaTypeInterfaceEPvS6_E_4_FUNES5_S6_S6_@Qt_6 6.1.2
 (optional=templinst)_ZZN9QtPrivate16QMetaTypeForTypeI5QSizeE13getDefaultCtrEvENUlPKNS_18QMetaTypeInterfaceEPvE_4_FUNES5_S6_@Qt_6 6.1.2
 (optional=templinst)_ZZN9QtPrivate16QMetaTypeForTypeI7QStringE10getCopyCtrEvENUlPKNS_18QMetaTypeInterfaceEPvPKvE_4_FUNES5_S6_S8_@Qt_6 6.1.2
 (optional=templinst)_ZZN9QtPrivate16QMetaTypeForTypeI7QStringE10getMoveCtrEvENUlPKNS_18QMetaTypeInterfaceEPvS6_E_4_FUNES5_S6_S6_@Qt_6 6.1.2
 (optional=templinst)_ZZN9QtPrivate16QMetaTypeForTypeI7QStringE13getDefaultCtrEvENUlPKNS_18QMetaTypeInterfaceEPvE_4_FUNES5_S6_@Qt_6 6.1.2
 (optional=templinst)_ZZN9QtPrivate16QMetaTypeForTypeI7QStringE7getDtorEvENUlPKNS_18QMetaTypeInterfaceEPvE_4_FUNES5_S6_@Qt_6 6.1.2
 (optional=templinst)_ZZN9QtPrivate16QMetaTypeForTypeIiE10getCopyCtrEvENUlPKNS_18QMetaTypeInterfaceEPvPKvE_4_FUNES4_S5_S7_@Qt_6 6.2.4
 (optional=templinst)_ZZN9QtPrivate16QMetaTypeForTypeIiE10getMoveCtrEvENUlPKNS_18QMetaTypeInterfaceEPvS5_E_4_FUNES4_S5_S5_@Qt_6 6.2.4
 (optional=templinst)_ZZN9QtPrivate16QMetaTypeForTypeIiE13getDefaultCtrEvENUlPKNS_18QMetaTypeInterfaceEPvE_4_FUNES4_S5_@Qt_6 6.2.4
